
HDMI_RECORD.elf:     file format elf32-littlearm

Sections:
Idx Name          Size      VMA       LMA       File off  Algn
  0 .isr_vector   0000010c  08000000  08000000  00001000  2**0
                  CONTENTS, ALLOC, LOAD, READONLY, DATA
  1 .text         00006124  0800010c  0800010c  0000110c  2**2
                  CONTENTS, ALLOC, LOAD, READONLY, CODE
  2 .rodata       00002130  08006230  08006230  00007230  2**0
                  CONTENTS, ALLOC, LOAD, READONLY, DATA
  3 .ARM.extab    00000000  08008360  08008360  0000a234  2**0
                  CONTENTS, READONLY
  4 .ARM          00000000  08008360  08008360  0000a234  2**0
                  CONTENTS, READONLY
  5 .preinit_array 00000000  08008360  08008360  0000a234  2**0
                  CONTENTS, ALLOC, LOAD, DATA
  6 .init_array   00000004  08008360  08008360  00009360  2**2
                  CONTENTS, ALLOC, LOAD, READONLY, DATA
  7 .fini_array   00000004  08008364  08008364  00009364  2**2
                  CONTENTS, ALLOC, LOAD, READONLY, DATA
  8 .data         00000234  20000000  08008368  0000a000  2**2
                  CONTENTS, ALLOC, LOAD, DATA
  9 .bss          00000378  20000234  0800859c  0000a234  2**2
                  ALLOC
 10 ._user_heap_stack 00000604  200005ac  0800859c  0000a5ac  2**0
                  ALLOC
 11 .ARM.attributes 00000029  00000000  00000000  0000a234  2**0
                  CONTENTS, READONLY
 12 .debug_info   0001708b  00000000  00000000  0000a25d  2**0
                  CONTENTS, READONLY, DEBUGGING, OCTETS
 13 .debug_abbrev 000027ab  00000000  00000000  000212e8  2**0
                  CONTENTS, READONLY, DEBUGGING, OCTETS
 14 .debug_loclists 00009141  00000000  00000000  00023a93  2**0
                  CONTENTS, READONLY, DEBUGGING, OCTETS
 15 .debug_aranges 00000ca8  00000000  00000000  0002cbd8  2**3
                  CONTENTS, READONLY, DEBUGGING, OCTETS
 16 .debug_rnglists 00000daf  00000000  00000000  0002d880  2**0
                  CONTENTS, READONLY, DEBUGGING, OCTETS
 17 .debug_macro  00008a54  00000000  00000000  0002e62f  2**0
                  CONTENTS, READONLY, DEBUGGING, OCTETS
 18 .debug_line   000163f0  00000000  00000000  00037083  2**0
                  CONTENTS, READONLY, DEBUGGING, OCTETS
 19 .debug_str    00090318  00000000  00000000  0004d473  2**0
                  CONTENTS, READONLY, DEBUGGING, OCTETS
 20 .comment      00000043  00000000  00000000  000dd78b  2**0
                  CONTENTS, READONLY
 21 .debug_frame  00002d58  00000000  00000000  000dd7d0  2**2
                  CONTENTS, READONLY, DEBUGGING, OCTETS
 22 .debug_line_str 00000064  00000000  00000000  000e0528  2**0
                  CONTENTS, READONLY, DEBUGGING, OCTETS

Disassembly of section .text:

0800010c <__do_global_dtors_aux>:
 800010c:	b510      	push	{r4, lr}
 800010e:	4c05      	ldr	r4, [pc, #20]	@ (8000124 <__do_global_dtors_aux+0x18>)
 8000110:	7823      	ldrb	r3, [r4, #0]
 8000112:	b933      	cbnz	r3, 8000122 <__do_global_dtors_aux+0x16>
 8000114:	4b04      	ldr	r3, [pc, #16]	@ (8000128 <__do_global_dtors_aux+0x1c>)
 8000116:	b113      	cbz	r3, 800011e <__do_global_dtors_aux+0x12>
 8000118:	4804      	ldr	r0, [pc, #16]	@ (800012c <__do_global_dtors_aux+0x20>)
 800011a:	f3af 8000 	nop.w
 800011e:	2301      	movs	r3, #1
 8000120:	7023      	strb	r3, [r4, #0]
 8000122:	bd10      	pop	{r4, pc}
 8000124:	20000234 	.word	0x20000234
 8000128:	00000000 	.word	0x00000000
 800012c:	08006218 	.word	0x08006218

08000130 <frame_dummy>:
 8000130:	b508      	push	{r3, lr}
 8000132:	4b03      	ldr	r3, [pc, #12]	@ (8000140 <frame_dummy+0x10>)
 8000134:	b11b      	cbz	r3, 800013e <frame_dummy+0xe>
 8000136:	4903      	ldr	r1, [pc, #12]	@ (8000144 <frame_dummy+0x14>)
 8000138:	4803      	ldr	r0, [pc, #12]	@ (8000148 <frame_dummy+0x18>)
 800013a:	f3af 8000 	nop.w
 800013e:	bd08      	pop	{r3, pc}
 8000140:	00000000 	.word	0x00000000
 8000144:	20000238 	.word	0x20000238
 8000148:	08006218 	.word	0x08006218

0800014c <_write>:
typedef unsigned char u8;

#endif

#if 1
int _write(int file, char* p, int len){
 800014c:	b510      	push	{r4, lr}
 800014e:	4614      	mov	r4, r2
	HAL_UART_Transmit(&huart1, (unsigned char*)p, len, 10);
 8000150:	230a      	movs	r3, #10
 8000152:	b292      	uxth	r2, r2
 8000154:	4802      	ldr	r0, [pc, #8]	@ (8000160 <_write+0x14>)
 8000156:	f005 f87a 	bl	800524e <HAL_UART_Transmit>
	return len;
}
 800015a:	4620      	mov	r0, r4
 800015c:	bd10      	pop	{r4, pc}
 800015e:	bf00      	nop
 8000160:	20000298 	.word	0x20000298

08000164 <Reset_ITE>:
#endif
void Reset_ITE(void)
{
 8000164:	b510      	push	{r4, lr}
  printf("#####ITE Reset!!\r\n");
 8000166:	4813      	ldr	r0, [pc, #76]	@ (80001b4 <Reset_ITE+0x50>)
	HAL_Delay(100);
	//yjh2026 회로도 확인해서 수정, PA5(MCU_RESET)은 ITE칩 리셋이 아님
	HAL_GPIO_WritePin(HDMI_RX_RST_GPIO_Port, HDMI_RX_RST_Pin, GPIO_PIN_RESET); //yjh2026 PB9
 8000168:	4c13      	ldr	r4, [pc, #76]	@ (80001b8 <Reset_ITE+0x54>)
  printf("#####ITE Reset!!\r\n");
 800016a:	f005 f9e9 	bl	8005540 <puts>
	HAL_Delay(100);
 800016e:	2064      	movs	r0, #100	@ 0x64
 8000170:	f003 ff68 	bl	8004044 <HAL_Delay>
	HAL_GPIO_WritePin(HDMI_RX_RST_GPIO_Port, HDMI_RX_RST_Pin, GPIO_PIN_RESET); //yjh2026 PB9
 8000174:	4620      	mov	r0, r4
 8000176:	2200      	movs	r2, #0
 8000178:	f44f 7100 	mov.w	r1, #512	@ 0x200
 800017c:	f004 f89e 	bl	80042bc <HAL_GPIO_WritePin>
	HAL_GPIO_WritePin(HDMI_TX_RST_GPIO_Port, HDMI_TX_RST_Pin, GPIO_PIN_RESET); //yjh2026 PB12
 8000180:	2200      	movs	r2, #0
 8000182:	f44f 5180 	mov.w	r1, #4096	@ 0x1000
 8000186:	4620      	mov	r0, r4
 8000188:	f004 f898 	bl	80042bc <HAL_GPIO_WritePin>
	HAL_Delay(100);
 800018c:	2064      	movs	r0, #100	@ 0x64
 800018e:	f003 ff59 	bl	8004044 <HAL_Delay>
	HAL_GPIO_WritePin(HDMI_RX_RST_GPIO_Port, HDMI_RX_RST_Pin, GPIO_PIN_SET); //yjh2026
 8000192:	4620      	mov	r0, r4
 8000194:	2201      	movs	r2, #1
 8000196:	f44f 7100 	mov.w	r1, #512	@ 0x200
 800019a:	f004 f88f 	bl	80042bc <HAL_GPIO_WritePin>
	HAL_GPIO_WritePin(HDMI_TX_RST_GPIO_Port, HDMI_TX_RST_Pin, GPIO_PIN_SET); //yjh2026
 800019e:	4620      	mov	r0, r4
 80001a0:	2201      	movs	r2, #1
 80001a2:	f44f 5180 	mov.w	r1, #4096	@ 0x1000
 80001a6:	f004 f889 	bl	80042bc <HAL_GPIO_WritePin>
	HAL_Delay(10); //yjh2026 TODO - 리셋후 대기시간 데이터시트 확인
}
 80001aa:	e8bd 4010 	ldmia.w	sp!, {r4, lr}
	HAL_Delay(10); //yjh2026 TODO - 리셋후 대기시간 데이터시트 확인
 80001ae:	200a      	movs	r0, #10
 80001b0:	f003 bf48 	b.w	8004044 <HAL_Delay>
 80001b4:	08006230 	.word	0x08006230
 80001b8:	40010c00 	.word	0x40010c00

080001bc <SystemClock_Config>:
/**
  * @brief System Clock Configuration
  * @retval None
  */
void SystemClock_Config(void)
{
 80001bc:	b500      	push	{lr}
 80001be:	b091      	sub	sp, #68	@ 0x44
  RCC_OscInitTypeDef RCC_OscInitStruct = {0};
 80001c0:	2224      	movs	r2, #36	@ 0x24
 80001c2:	2100      	movs	r1, #0
 80001c4:	a807      	add	r0, sp, #28
 80001c6:	f005 fa9b 	bl	8005700 <memset>
  RCC_ClkInitTypeDef RCC_ClkInitStruct = {0};
 80001ca:	2214      	movs	r2, #20
 80001cc:	2100      	movs	r1, #0
 80001ce:	a801      	add	r0, sp, #4
 80001d0:	f005 fa96 	bl	8005700 <memset>

  /** Initializes the RCC Oscillators according to the specified parameters
  * in the RCC_OscInitTypeDef structure.
  */
  RCC_OscInitStruct.OscillatorType = RCC_OSCILLATORTYPE_HSI;
 80001d4:	2302      	movs	r3, #2
  RCC_OscInitStruct.HSIState = RCC_HSI_ON;
  RCC_OscInitStruct.HSICalibrationValue = RCC_HSICALIBRATION_DEFAULT;
 80001d6:	2101      	movs	r1, #1
  RCC_OscInitStruct.OscillatorType = RCC_OSCILLATORTYPE_HSI;
 80001d8:	9306      	str	r3, [sp, #24]
  RCC_OscInitStruct.HSICalibrationValue = RCC_HSICALIBRATION_DEFAULT;
 80001da:	2310      	movs	r3, #16
  RCC_OscInitStruct.PLL.PLLState = RCC_PLL_NONE;
  if (HAL_RCC_OscConfig(&RCC_OscInitStruct) != HAL_OK)
 80001dc:	a806      	add	r0, sp, #24
  RCC_OscInitStruct.HSICalibrationValue = RCC_HSICALIBRATION_DEFAULT;
 80001de:	e9cd 130a 	strd	r1, r3, [sp, #40]	@ 0x28
  if (HAL_RCC_OscConfig(&RCC_OscInitStruct) != HAL_OK)
 80001e2:	f004 fced 	bl	8004bc0 <HAL_RCC_OscConfig>
 80001e6:	4601      	mov	r1, r0
 80001e8:	b108      	cbz	r0, 80001ee <SystemClock_Config+0x32>
  \details Disables IRQ interrupts by setting the I-bit in the CPSR.
           Can only be executed in Privileged modes.
 */
__STATIC_FORCEINLINE void __disable_irq(void)
{
  __ASM volatile ("cpsid i" : : : "memory");
 80001ea:	b672      	cpsid	i
void Error_Handler(void)
{
  /* USER CODE BEGIN Error_Handler_Debug */
  /* User can add his own implementation to report the HAL error return state */
  __disable_irq();
  while (1)
 80001ec:	e7fe      	b.n	80001ec <SystemClock_Config+0x30>
  RCC_ClkInitStruct.ClockType = RCC_CLOCKTYPE_HCLK|RCC_CLOCKTYPE_SYSCLK
 80001ee:	230f      	movs	r3, #15
  RCC_ClkInitStruct.APB1CLKDivider = RCC_HCLK_DIV1;
 80001f0:	e9cd 0003 	strd	r0, r0, [sp, #12]
  RCC_ClkInitStruct.SYSCLKSource = RCC_SYSCLKSOURCE_HSI;
 80001f4:	e9cd 3001 	strd	r3, r0, [sp, #4]
  RCC_ClkInitStruct.APB2CLKDivider = RCC_HCLK_DIV1;
 80001f8:	9005      	str	r0, [sp, #20]
  if (HAL_RCC_ClockConfig(&RCC_ClkInitStruct, FLASH_LATENCY_0) != HAL_OK)
 80001fa:	a801      	add	r0, sp, #4
 80001fc:	f004 fea2 	bl	8004f44 <HAL_RCC_ClockConfig>
 8000200:	b108      	cbz	r0, 8000206 <SystemClock_Config+0x4a>
 8000202:	b672      	cpsid	i
  while (1)
 8000204:	e7fe      	b.n	8000204 <SystemClock_Config+0x48>
}
 8000206:	b011      	add	sp, #68	@ 0x44
 8000208:	f85d fb04 	ldr.w	pc, [sp], #4

0800020c <main>:
{
 800020c:	b57f      	push	{r0, r1, r2, r3, r4, r5, r6, lr}
  HAL_Init();
 800020e:	f003 fef5 	bl	8003ffc <HAL_Init>
  SystemClock_Config();
 8000212:	f7ff ffd3 	bl	80001bc <SystemClock_Config>
  GPIO_InitTypeDef GPIO_InitStruct = {0};
 8000216:	2210      	movs	r2, #16
 8000218:	2100      	movs	r1, #0
 800021a:	a802      	add	r0, sp, #8
 800021c:	f005 fa70 	bl	8005700 <memset>
  __HAL_RCC_GPIOA_CLK_ENABLE();
 8000220:	4b3c      	ldr	r3, [pc, #240]	@ (8000314 <main+0x108>)
  HAL_GPIO_WritePin(GPIOA, PWR_RST_CTL_Pin|MICOM_IR_Pin|MCU_RESET_Pin|MCU_RESETA7_Pin
 8000222:	f44f 71d9 	mov.w	r1, #434	@ 0x1b2
  __HAL_RCC_GPIOA_CLK_ENABLE();
 8000226:	699a      	ldr	r2, [r3, #24]
  HAL_GPIO_WritePin(GPIOA, PWR_RST_CTL_Pin|MICOM_IR_Pin|MCU_RESET_Pin|MCU_RESETA7_Pin
 8000228:	483b      	ldr	r0, [pc, #236]	@ (8000318 <main+0x10c>)
  __HAL_RCC_GPIOA_CLK_ENABLE();
 800022a:	f042 0204 	orr.w	r2, r2, #4
 800022e:	619a      	str	r2, [r3, #24]
 8000230:	699a      	ldr	r2, [r3, #24]
  GPIO_InitStruct.Speed = GPIO_SPEED_FREQ_LOW;
 8000232:	2400      	movs	r4, #0
  __HAL_RCC_GPIOA_CLK_ENABLE();
 8000234:	f002 0204 	and.w	r2, r2, #4
 8000238:	9200      	str	r2, [sp, #0]
 800023a:	9a00      	ldr	r2, [sp, #0]
  __HAL_RCC_GPIOB_CLK_ENABLE();
 800023c:	699a      	ldr	r2, [r3, #24]
  GPIO_InitStruct.Mode = GPIO_MODE_OUTPUT_PP;
 800023e:	2601      	movs	r6, #1
  __HAL_RCC_GPIOB_CLK_ENABLE();
 8000240:	f042 0208 	orr.w	r2, r2, #8
 8000244:	619a      	str	r2, [r3, #24]
 8000246:	699b      	ldr	r3, [r3, #24]
  HAL_GPIO_WritePin(GPIOA, PWR_RST_CTL_Pin|MICOM_IR_Pin|MCU_RESET_Pin|MCU_RESETA7_Pin
 8000248:	2200      	movs	r2, #0
  __HAL_RCC_GPIOB_CLK_ENABLE();
 800024a:	f003 0308 	and.w	r3, r3, #8
 800024e:	9301      	str	r3, [sp, #4]
 8000250:	9b01      	ldr	r3, [sp, #4]
  HAL_GPIO_WritePin(GPIOA, PWR_RST_CTL_Pin|MICOM_IR_Pin|MCU_RESET_Pin|MCU_RESETA7_Pin
 8000252:	f004 f833 	bl	80042bc <HAL_GPIO_WritePin>
  HAL_GPIO_WritePin(GPIOB, PWR_LED_Pin|GPS_LED_Pin|HDMI_TX_RST_Pin|STATUS_LED_Pin
 8000256:	2200      	movs	r2, #0
 8000258:	f44f 415e 	mov.w	r1, #56832	@ 0xde00
 800025c:	482f      	ldr	r0, [pc, #188]	@ (800031c <main+0x110>)
 800025e:	f004 f82d 	bl	80042bc <HAL_GPIO_WritePin>
  GPIO_InitStruct.Speed = GPIO_SPEED_FREQ_LOW;
 8000262:	2502      	movs	r5, #2
  GPIO_InitStruct.Mode = GPIO_MODE_OUTPUT_PP;
 8000264:	f44f 73d9 	mov.w	r3, #434	@ 0x1b2
  HAL_GPIO_Init(GPIOA, &GPIO_InitStruct);
 8000268:	482b      	ldr	r0, [pc, #172]	@ (8000318 <main+0x10c>)
 800026a:	a902      	add	r1, sp, #8
  GPIO_InitStruct.Mode = GPIO_MODE_OUTPUT_PP;
 800026c:	e9cd 3602 	strd	r3, r6, [sp, #8]
  GPIO_InitStruct.Speed = GPIO_SPEED_FREQ_LOW;
 8000270:	e9cd 4504 	strd	r4, r5, [sp, #16]
  HAL_GPIO_Init(GPIOA, &GPIO_InitStruct);
 8000274:	f003 ff4e 	bl	8004114 <HAL_GPIO_Init>
  GPIO_InitStruct.Pin = PWR_LED_Pin|GPS_LED_Pin|HDMI_TX_RST_Pin|STATUS_LED_Pin
 8000278:	f44f 435e 	mov.w	r3, #56832	@ 0xde00
  HAL_GPIO_Init(GPIOB, &GPIO_InitStruct);
 800027c:	4827      	ldr	r0, [pc, #156]	@ (800031c <main+0x110>)
 800027e:	a902      	add	r1, sp, #8
  GPIO_InitStruct.Mode = GPIO_MODE_OUTPUT_PP;
 8000280:	e9cd 3602 	strd	r3, r6, [sp, #8]
  GPIO_InitStruct.Speed = GPIO_SPEED_FREQ_LOW;
 8000284:	e9cd 4504 	strd	r4, r5, [sp, #16]
  HAL_GPIO_Init(GPIOB, &GPIO_InitStruct);
 8000288:	f003 ff44 	bl	8004114 <HAL_GPIO_Init>
  GPIO_InitStruct.Pin = HDMI_TX_INT_Pin;
 800028c:	f44f 5300 	mov.w	r3, #8192	@ 0x2000
  HAL_GPIO_Init(HDMI_TX_INT_GPIO_Port, &GPIO_InitStruct);
 8000290:	4822      	ldr	r0, [pc, #136]	@ (800031c <main+0x110>)
 8000292:	a902      	add	r1, sp, #8
  GPIO_InitStruct.Mode = GPIO_MODE_INPUT;
 8000294:	e9cd 3402 	strd	r3, r4, [sp, #8]
  GPIO_InitStruct.Pull = GPIO_NOPULL;
 8000298:	9404      	str	r4, [sp, #16]
  HAL_GPIO_Init(HDMI_TX_INT_GPIO_Port, &GPIO_InitStruct);
 800029a:	f003 ff3b 	bl	8004114 <HAL_GPIO_Init>
  hi2c1.Instance = I2C1;
 800029e:	4820      	ldr	r0, [pc, #128]	@ (8000320 <main+0x114>)
  hi2c1.Init.ClockSpeed = 100000;
 80002a0:	4a20      	ldr	r2, [pc, #128]	@ (8000324 <main+0x118>)
 80002a2:	4b21      	ldr	r3, [pc, #132]	@ (8000328 <main+0x11c>)
  hi2c1.Init.OwnAddress1 = 0;
 80002a4:	e9c0 4402 	strd	r4, r4, [r0, #8]
  hi2c1.Init.ClockSpeed = 100000;
 80002a8:	e9c0 2300 	strd	r2, r3, [r0]
  hi2c1.Init.AddressingMode = I2C_ADDRESSINGMODE_7BIT;
 80002ac:	f44f 4380 	mov.w	r3, #16384	@ 0x4000
  hi2c1.Init.GeneralCallMode = I2C_GENERALCALL_DISABLE;
 80002b0:	e9c0 4406 	strd	r4, r4, [r0, #24]
  hi2c1.Init.DualAddressMode = I2C_DUALADDRESS_DISABLE;
 80002b4:	e9c0 3404 	strd	r3, r4, [r0, #16]
  hi2c1.Init.NoStretchMode = I2C_NOSTRETCH_DISABLE;
 80002b8:	6204      	str	r4, [r0, #32]
  if (HAL_I2C_Init(&hi2c1) != HAL_OK)
 80002ba:	f004 fa05 	bl	80046c8 <HAL_I2C_Init>
 80002be:	4603      	mov	r3, r0
 80002c0:	b108      	cbz	r0, 80002c6 <main+0xba>
 80002c2:	b672      	cpsid	i
  while (1)
 80002c4:	e7fe      	b.n	80002c4 <main+0xb8>
  huart1.Init.BaudRate = 115200;
 80002c6:	f44f 35e1 	mov.w	r5, #115200	@ 0x1c200
  huart1.Init.Mode = UART_MODE_TX_RX;
 80002ca:	240c      	movs	r4, #12
  huart1.Instance = USART1;
 80002cc:	4817      	ldr	r0, [pc, #92]	@ (800032c <main+0x120>)
  huart1.Init.BaudRate = 115200;
 80002ce:	4a18      	ldr	r2, [pc, #96]	@ (8000330 <main+0x124>)
  huart1.Init.StopBits = UART_STOPBITS_1;
 80002d0:	e9c0 3302 	strd	r3, r3, [r0, #8]
  huart1.Init.HwFlowCtl = UART_HWCONTROL_NONE;
 80002d4:	e9c0 4305 	strd	r4, r3, [r0, #20]
  huart1.Init.Parity = UART_PARITY_NONE;
 80002d8:	6103      	str	r3, [r0, #16]
  huart1.Init.OverSampling = UART_OVERSAMPLING_16;
 80002da:	61c3      	str	r3, [r0, #28]
  huart1.Init.BaudRate = 115200;
 80002dc:	e9c0 2500 	strd	r2, r5, [r0]
  if (HAL_UART_Init(&huart1) != HAL_OK)
 80002e0:	f004 ff86 	bl	80051f0 <HAL_UART_Init>
 80002e4:	4603      	mov	r3, r0
 80002e6:	b108      	cbz	r0, 80002ec <main+0xe0>
 80002e8:	b672      	cpsid	i
  while (1)
 80002ea:	e7fe      	b.n	80002ea <main+0xde>
  huart2.Instance = USART2;
 80002ec:	4811      	ldr	r0, [pc, #68]	@ (8000334 <main+0x128>)
 80002ee:	4a12      	ldr	r2, [pc, #72]	@ (8000338 <main+0x12c>)
  huart2.Init.StopBits = UART_STOPBITS_1;
 80002f0:	e9c0 3302 	strd	r3, r3, [r0, #8]
  huart2.Init.BaudRate = 115200;
 80002f4:	e9c0 2500 	strd	r2, r5, [r0]
  huart2.Init.Mode = UART_MODE_TX_RX;
 80002f8:	e9c0 3404 	strd	r3, r4, [r0, #16]
  huart2.Init.OverSampling = UART_OVERSAMPLING_16;
 80002fc:	e9c0 3306 	strd	r3, r3, [r0, #24]
  if (HAL_UART_Init(&huart2) != HAL_OK)
 8000300:	f004 ff76 	bl	80051f0 <HAL_UART_Init>
 8000304:	b108      	cbz	r0, 800030a <main+0xfe>
 8000306:	b672      	cpsid	i
  while (1)
 8000308:	e7fe      	b.n	8000308 <main+0xfc>
  Reset_ITE();
 800030a:	f7ff ff2b 	bl	8000164 <Reset_ITE>
    it68013CX_main();    //HDMI RX
 800030e:	f003 fdfd 	bl	8003f0c <it68013CX_main>
  while (1)
 8000312:	e7fc      	b.n	800030e <main+0x102>
 8000314:	40021000 	.word	0x40021000
 8000318:	40010800 	.word	0x40010800
 800031c:	40010c00 	.word	0x40010c00
 8000320:	200002e0 	.word	0x200002e0
 8000324:	40005400 	.word	0x40005400
 8000328:	000186a0 	.word	0x000186a0
 800032c:	20000298 	.word	0x20000298
 8000330:	40013800 	.word	0x40013800
 8000334:	20000250 	.word	0x20000250
 8000338:	40004400 	.word	0x40004400

0800033c <HAL_MspInit>:

  /* USER CODE BEGIN MspInit 0 */

  /* USER CODE END MspInit 0 */

  __HAL_RCC_AFIO_CLK_ENABLE();
 800033c:	4b0a      	ldr	r3, [pc, #40]	@ (8000368 <HAL_MspInit+0x2c>)
{
 800033e:	b082      	sub	sp, #8
  __HAL_RCC_AFIO_CLK_ENABLE();
 8000340:	699a      	ldr	r2, [r3, #24]
 8000342:	f042 0201 	orr.w	r2, r2, #1
 8000346:	619a      	str	r2, [r3, #24]
 8000348:	699a      	ldr	r2, [r3, #24]
 800034a:	f002 0201 	and.w	r2, r2, #1
 800034e:	9200      	str	r2, [sp, #0]
 8000350:	9a00      	ldr	r2, [sp, #0]
  __HAL_RCC_PWR_CLK_ENABLE();
 8000352:	69da      	ldr	r2, [r3, #28]
 8000354:	f042 5280 	orr.w	r2, r2, #268435456	@ 0x10000000
 8000358:	61da      	str	r2, [r3, #28]
 800035a:	69db      	ldr	r3, [r3, #28]
 800035c:	f003 5380 	and.w	r3, r3, #268435456	@ 0x10000000
 8000360:	9301      	str	r3, [sp, #4]
 8000362:	9b01      	ldr	r3, [sp, #4]
  // __HAL_AFIO_REMAP_SWJ_DISABLE();

  /* USER CODE BEGIN MspInit 1 */

  /* USER CODE END MspInit 1 */
}
 8000364:	b002      	add	sp, #8
 8000366:	4770      	bx	lr
 8000368:	40021000 	.word	0x40021000

0800036c <HAL_I2C_MspInit>:
  * This function configures the hardware resources used in this example
  * @param hi2c: I2C handle pointer
  * @retval None
  */
void HAL_I2C_MspInit(I2C_HandleTypeDef* hi2c)
{
 800036c:	b510      	push	{r4, lr}
 800036e:	4604      	mov	r4, r0
 8000370:	b086      	sub	sp, #24
  GPIO_InitTypeDef GPIO_InitStruct = {0};
 8000372:	2210      	movs	r2, #16
 8000374:	2100      	movs	r1, #0
 8000376:	a802      	add	r0, sp, #8
 8000378:	f005 f9c2 	bl	8005700 <memset>
  if(hi2c->Instance==I2C1)
 800037c:	6822      	ldr	r2, [r4, #0]
 800037e:	4b11      	ldr	r3, [pc, #68]	@ (80003c4 <HAL_I2C_MspInit+0x58>)
 8000380:	429a      	cmp	r2, r3
 8000382:	d11c      	bne.n	80003be <HAL_I2C_MspInit+0x52>
  {
    /* USER CODE BEGIN I2C1_MspInit 0 */

    /* USER CODE END I2C1_MspInit 0 */

    __HAL_RCC_GPIOB_CLK_ENABLE();
 8000384:	4c10      	ldr	r4, [pc, #64]	@ (80003c8 <HAL_I2C_MspInit+0x5c>)
    /**I2C1 GPIO Configuration
    PB6     ------> I2C1_SCL
    PB7     ------> I2C1_SDA
    */
    GPIO_InitStruct.Pin = GPIO_PIN_6|GPIO_PIN_7;
    GPIO_InitStruct.Mode = GPIO_MODE_AF_OD;
 8000386:	22c0      	movs	r2, #192	@ 0xc0
    __HAL_RCC_GPIOB_CLK_ENABLE();
 8000388:	69a3      	ldr	r3, [r4, #24]
    GPIO_InitStruct.Speed = GPIO_SPEED_FREQ_HIGH;
    HAL_GPIO_Init(GPIOB, &GPIO_InitStruct);
 800038a:	4810      	ldr	r0, [pc, #64]	@ (80003cc <HAL_I2C_MspInit+0x60>)
    __HAL_RCC_GPIOB_CLK_ENABLE();
 800038c:	f043 0308 	orr.w	r3, r3, #8
 8000390:	61a3      	str	r3, [r4, #24]
 8000392:	69a3      	ldr	r3, [r4, #24]
    HAL_GPIO_Init(GPIOB, &GPIO_InitStruct);
 8000394:	a902      	add	r1, sp, #8
    __HAL_RCC_GPIOB_CLK_ENABLE();
 8000396:	f003 0308 	and.w	r3, r3, #8
 800039a:	9300      	str	r3, [sp, #0]
 800039c:	9b00      	ldr	r3, [sp, #0]
    GPIO_InitStruct.Mode = GPIO_MODE_AF_OD;
 800039e:	2312      	movs	r3, #18
 80003a0:	e9cd 2302 	strd	r2, r3, [sp, #8]
    GPIO_InitStruct.Speed = GPIO_SPEED_FREQ_HIGH;
 80003a4:	2303      	movs	r3, #3
 80003a6:	9305      	str	r3, [sp, #20]
    HAL_GPIO_Init(GPIOB, &GPIO_InitStruct);
 80003a8:	f003 feb4 	bl	8004114 <HAL_GPIO_Init>

    /* Peripheral clock enable */
    __HAL_RCC_I2C1_CLK_ENABLE();
 80003ac:	69e3      	ldr	r3, [r4, #28]
 80003ae:	f443 1300 	orr.w	r3, r3, #2097152	@ 0x200000
 80003b2:	61e3      	str	r3, [r4, #28]
 80003b4:	69e3      	ldr	r3, [r4, #28]
 80003b6:	f403 1300 	and.w	r3, r3, #2097152	@ 0x200000
 80003ba:	9301      	str	r3, [sp, #4]
 80003bc:	9b01      	ldr	r3, [sp, #4]

    /* USER CODE END I2C1_MspInit 1 */

  }

}
 80003be:	b006      	add	sp, #24
 80003c0:	bd10      	pop	{r4, pc}
 80003c2:	bf00      	nop
 80003c4:	40005400 	.word	0x40005400
 80003c8:	40021000 	.word	0x40021000
 80003cc:	40010c00 	.word	0x40010c00

080003d0 <HAL_UART_MspInit>:
  * @param huart: UART handle pointer
  * @retval None
  */
void HAL_UART_MspInit(UART_HandleTypeDef* huart)
{
  GPIO_InitTypeDef GPIO_InitStruct = {0};
 80003d0:	2210      	movs	r2, #16
{
 80003d2:	b510      	push	{r4, lr}
 80003d4:	4604      	mov	r4, r0
 80003d6:	b088      	sub	sp, #32
  GPIO_InitTypeDef GPIO_InitStruct = {0};
 80003d8:	eb0d 0002 	add.w	r0, sp, r2
 80003dc:	2100      	movs	r1, #0
 80003de:	f005 f98f 	bl	8005700 <memset>
  if(huart->Instance==USART1)
 80003e2:	6823      	ldr	r3, [r4, #0]
 80003e4:	4a27      	ldr	r2, [pc, #156]	@ (8000484 <HAL_UART_MspInit+0xb4>)
 80003e6:	4293      	cmp	r3, r2
 80003e8:	d12a      	bne.n	8000440 <HAL_UART_MspInit+0x70>
  {
    /* USER CODE BEGIN USART1_MspInit 0 */

    /* USER CODE END USART1_MspInit 0 */
    /* Peripheral clock enable */
    __HAL_RCC_USART1_CLK_ENABLE();
 80003ea:	4b27      	ldr	r3, [pc, #156]	@ (8000488 <HAL_UART_MspInit+0xb8>)
    /**USART1 GPIO Configuration
    PA9     ------> USART1_TX
    PA10     ------> USART1_RX
    */
    GPIO_InitStruct.Pin = STM_UART1_TX_Pin;
    GPIO_InitStruct.Mode = GPIO_MODE_AF_PP;
 80003ec:	f44f 7000 	mov.w	r0, #512	@ 0x200
    __HAL_RCC_USART1_CLK_ENABLE();
 80003f0:	699a      	ldr	r2, [r3, #24]
    GPIO_InitStruct.Speed = GPIO_SPEED_FREQ_HIGH;
    HAL_GPIO_Init(STM_UART1_TX_GPIO_Port, &GPIO_InitStruct);
 80003f2:	a904      	add	r1, sp, #16
    __HAL_RCC_USART1_CLK_ENABLE();
 80003f4:	f442 4280 	orr.w	r2, r2, #16384	@ 0x4000
 80003f8:	619a      	str	r2, [r3, #24]
 80003fa:	699a      	ldr	r2, [r3, #24]
 80003fc:	f402 4280 	and.w	r2, r2, #16384	@ 0x4000
 8000400:	9200      	str	r2, [sp, #0]
 8000402:	9a00      	ldr	r2, [sp, #0]
    __HAL_RCC_GPIOA_CLK_ENABLE();
 8000404:	699a      	ldr	r2, [r3, #24]
 8000406:	f042 0204 	orr.w	r2, r2, #4
 800040a:	619a      	str	r2, [r3, #24]
 800040c:	699b      	ldr	r3, [r3, #24]
 800040e:	f003 0304 	and.w	r3, r3, #4
 8000412:	9301      	str	r3, [sp, #4]
 8000414:	9b01      	ldr	r3, [sp, #4]
    GPIO_InitStruct.Mode = GPIO_MODE_AF_PP;
 8000416:	2302      	movs	r3, #2
 8000418:	e9cd 0304 	strd	r0, r3, [sp, #16]
    GPIO_InitStruct.Speed = GPIO_SPEED_FREQ_HIGH;
 800041c:	2303      	movs	r3, #3
    HAL_GPIO_Init(STM_UART1_TX_GPIO_Port, &GPIO_InitStruct);
 800041e:	481b      	ldr	r0, [pc, #108]	@ (800048c <HAL_UART_MspInit+0xbc>)
    GPIO_InitStruct.Speed = GPIO_SPEED_FREQ_HIGH;
 8000420:	9307      	str	r3, [sp, #28]
    HAL_GPIO_Init(STM_UART1_TX_GPIO_Port, &GPIO_InitStruct);
 8000422:	f003 fe77 	bl	8004114 <HAL_GPIO_Init>

    GPIO_InitStruct.Pin = STM_UART1_RX_Pin;
 8000426:	f44f 6380 	mov.w	r3, #1024	@ 0x400
    GPIO_InitStruct.Speed = GPIO_SPEED_FREQ_HIGH;
    HAL_GPIO_Init(M_Uart1_RX_GPIO_Port, &GPIO_InitStruct);

    GPIO_InitStruct.Pin = M_Uart1_TX_Pin;
    GPIO_InitStruct.Mode = GPIO_MODE_INPUT;
    GPIO_InitStruct.Pull = GPIO_PULLUP;
 800042a:	2200      	movs	r2, #0
    GPIO_InitStruct.Pin = M_Uart1_TX_Pin;
 800042c:	9304      	str	r3, [sp, #16]
    GPIO_InitStruct.Pull = GPIO_PULLUP;
 800042e:	2301      	movs	r3, #1
    HAL_GPIO_Init(M_Uart1_TX_GPIO_Port, &GPIO_InitStruct);
 8000430:	4816      	ldr	r0, [pc, #88]	@ (800048c <HAL_UART_MspInit+0xbc>)
 8000432:	a904      	add	r1, sp, #16
    GPIO_InitStruct.Pull = GPIO_PULLUP;
 8000434:	e9cd 2305 	strd	r2, r3, [sp, #20]
    HAL_GPIO_Init(M_Uart1_TX_GPIO_Port, &GPIO_InitStruct);
 8000438:	f003 fe6c 	bl	8004114 <HAL_GPIO_Init>
    /* USER CODE BEGIN USART2_MspInit 1 */

    /* USER CODE END USART2_MspInit 1 */
  }

}
 800043c:	b008      	add	sp, #32
 800043e:	bd10      	pop	{r4, pc}
  else if(huart->Instance==USART2)
 8000440:	4a13      	ldr	r2, [pc, #76]	@ (8000490 <HAL_UART_MspInit+0xc0>)
 8000442:	4293      	cmp	r3, r2
 8000444:	d1fa      	bne.n	800043c <HAL_UART_MspInit+0x6c>
    __HAL_RCC_USART2_CLK_ENABLE();
 8000446:	4b10      	ldr	r3, [pc, #64]	@ (8000488 <HAL_UART_MspInit+0xb8>)
    GPIO_InitStruct.Mode = GPIO_MODE_AF_PP;
 8000448:	2104      	movs	r1, #4
    __HAL_RCC_USART2_CLK_ENABLE();
 800044a:	69da      	ldr	r2, [r3, #28]
    HAL_GPIO_Init(M_Uart1_RX_GPIO_Port, &GPIO_InitStruct);
 800044c:	480f      	ldr	r0, [pc, #60]	@ (800048c <HAL_UART_MspInit+0xbc>)
    __HAL_RCC_USART2_CLK_ENABLE();
 800044e:	f442 3200 	orr.w	r2, r2, #131072	@ 0x20000
 8000452:	61da      	str	r2, [r3, #28]
 8000454:	69da      	ldr	r2, [r3, #28]
 8000456:	f402 3200 	and.w	r2, r2, #131072	@ 0x20000
 800045a:	9202      	str	r2, [sp, #8]
 800045c:	9a02      	ldr	r2, [sp, #8]
    __HAL_RCC_GPIOA_CLK_ENABLE();
 800045e:	699a      	ldr	r2, [r3, #24]
 8000460:	f042 0204 	orr.w	r2, r2, #4
 8000464:	619a      	str	r2, [r3, #24]
 8000466:	699b      	ldr	r3, [r3, #24]
 8000468:	f003 0304 	and.w	r3, r3, #4
 800046c:	9303      	str	r3, [sp, #12]
 800046e:	9b03      	ldr	r3, [sp, #12]
    GPIO_InitStruct.Mode = GPIO_MODE_AF_PP;
 8000470:	2302      	movs	r3, #2
 8000472:	e9cd 1304 	strd	r1, r3, [sp, #16]
    GPIO_InitStruct.Speed = GPIO_SPEED_FREQ_HIGH;
 8000476:	2303      	movs	r3, #3
    HAL_GPIO_Init(M_Uart1_RX_GPIO_Port, &GPIO_InitStruct);
 8000478:	a904      	add	r1, sp, #16
    GPIO_InitStruct.Speed = GPIO_SPEED_FREQ_HIGH;
 800047a:	9307      	str	r3, [sp, #28]
    HAL_GPIO_Init(M_Uart1_RX_GPIO_Port, &GPIO_InitStruct);
 800047c:	f003 fe4a 	bl	8004114 <HAL_GPIO_Init>
    GPIO_InitStruct.Pin = M_Uart1_TX_Pin;
 8000480:	2308      	movs	r3, #8
 8000482:	e7d2      	b.n	800042a <HAL_UART_MspInit+0x5a>
 8000484:	40013800 	.word	0x40013800
 8000488:	40021000 	.word	0x40021000
 800048c:	40010800 	.word	0x40010800
 8000490:	40004400 	.word	0x40004400

08000494 <NMI_Handler>:
{
  /* USER CODE BEGIN NonMaskableInt_IRQn 0 */

  /* USER CODE END NonMaskableInt_IRQn 0 */
  /* USER CODE BEGIN NonMaskableInt_IRQn 1 */
   while (1)
 8000494:	e7fe      	b.n	8000494 <NMI_Handler>

08000496 <HardFault_Handler>:
void HardFault_Handler(void)
{
  /* USER CODE BEGIN HardFault_IRQn 0 */

  /* USER CODE END HardFault_IRQn 0 */
  while (1)
 8000496:	e7fe      	b.n	8000496 <HardFault_Handler>

08000498 <MemManage_Handler>:
void MemManage_Handler(void)
{
  /* USER CODE BEGIN MemoryManagement_IRQn 0 */

  /* USER CODE END MemoryManagement_IRQn 0 */
  while (1)
 8000498:	e7fe      	b.n	8000498 <MemManage_Handler>

0800049a <BusFault_Handler>:
void BusFault_Handler(void)
{
  /* USER CODE BEGIN BusFault_IRQn 0 */

  /* USER CODE END BusFault_IRQn 0 */
  while (1)
 800049a:	e7fe      	b.n	800049a <BusFault_Handler>

0800049c <UsageFault_Handler>:
void UsageFault_Handler(void)
{
  /* USER CODE BEGIN UsageFault_IRQn 0 */

  /* USER CODE END UsageFault_IRQn 0 */
  while (1)
 800049c:	e7fe      	b.n	800049c <UsageFault_Handler>

0800049e <SVC_Handler>:

  /* USER CODE END SVCall_IRQn 0 */
  /* USER CODE BEGIN SVCall_IRQn 1 */

  /* USER CODE END SVCall_IRQn 1 */
}
 800049e:	4770      	bx	lr

080004a0 <DebugMon_Handler>:

/**
  * @brief This function handles Debug monitor.
  */
void DebugMon_Handler(void)
 80004a0:	4770      	bx	lr

080004a2 <PendSV_Handler>:
}

/**
  * @brief This function handles Pendable request for system service.
  */
void PendSV_Handler(void)
 80004a2:	4770      	bx	lr

080004a4 <SysTick_Handler>:
void SysTick_Handler(void)
{
  /* USER CODE BEGIN SysTick_IRQn 0 */

  /* USER CODE END SysTick_IRQn 0 */
  HAL_IncTick();
 80004a4:	f003 bdbc 	b.w	8004020 <HAL_IncTick>

080004a8 <_read>:
  _kill(status, -1);
  while (1) {}    /* Make sure we hang here */
}

__attribute__((weak)) int _read(int file, char *ptr, int len)
{
 80004a8:	b570      	push	{r4, r5, r6, lr}
 80004aa:	460d      	mov	r5, r1
 80004ac:	4614      	mov	r4, r2
  (void)file;
  int DataIdx;

  for (DataIdx = 0; DataIdx < len; DataIdx++)
 80004ae:	460e      	mov	r6, r1
 80004b0:	1b73      	subs	r3, r6, r5
 80004b2:	429c      	cmp	r4, r3
 80004b4:	dc01      	bgt.n	80004ba <_read+0x12>
  {
    *ptr++ = __io_getchar();
  }

  return len;
}
 80004b6:	4620      	mov	r0, r4
 80004b8:	bd70      	pop	{r4, r5, r6, pc}
    *ptr++ = __io_getchar();
 80004ba:	f3af 8000 	nop.w
 80004be:	f806 0b01 	strb.w	r0, [r6], #1
  for (DataIdx = 0; DataIdx < len; DataIdx++)
 80004c2:	e7f5      	b.n	80004b0 <_read+0x8>

080004c4 <_close>:

int _close(int file)
{
  (void)file;
  return -1;
}
 80004c4:	f04f 30ff 	mov.w	r0, #4294967295
 80004c8:	4770      	bx	lr

080004ca <_fstat>:


int _fstat(int file, struct stat *st)
{
  (void)file;
  st->st_mode = S_IFCHR;
 80004ca:	f44f 5300 	mov.w	r3, #8192	@ 0x2000
  return 0;
}
 80004ce:	2000      	movs	r0, #0
  st->st_mode = S_IFCHR;
 80004d0:	604b      	str	r3, [r1, #4]
}
 80004d2:	4770      	bx	lr

080004d4 <_isatty>:

int _isatty(int file)
{
  (void)file;
  return 1;
}
 80004d4:	2001      	movs	r0, #1
 80004d6:	4770      	bx	lr

080004d8 <_lseek>:
{
  (void)file;
  (void)ptr;
  (void)dir;
  return 0;
}
 80004d8:	2000      	movs	r0, #0
 80004da:	4770      	bx	lr

080004dc <_sbrk>:
  const uint32_t stack_limit = (uint32_t)&_estack - (uint32_t)&_Min_Stack_Size;
  const uint8_t *max_heap = (uint8_t *)stack_limit;
  uint8_t *prev_heap_end;

  /* Initialize heap end at first call */
  if (NULL == __sbrk_heap_end)
 80004dc:	4a0b      	ldr	r2, [pc, #44]	@ (800050c <_sbrk+0x30>)
{
 80004de:	4603      	mov	r3, r0
  if (NULL == __sbrk_heap_end)
 80004e0:	6811      	ldr	r1, [r2, #0]
{
 80004e2:	b510      	push	{r4, lr}
  if (NULL == __sbrk_heap_end)
 80004e4:	b909      	cbnz	r1, 80004ea <_sbrk+0xe>
  {
    __sbrk_heap_end = &_end;
 80004e6:	490a      	ldr	r1, [pc, #40]	@ (8000510 <_sbrk+0x34>)
 80004e8:	6011      	str	r1, [r2, #0]
  }

  /* Protect heap from growing into the reserved MSP stack */
  if (__sbrk_heap_end + incr > max_heap)
 80004ea:	6810      	ldr	r0, [r2, #0]
 80004ec:	4909      	ldr	r1, [pc, #36]	@ (8000514 <_sbrk+0x38>)
 80004ee:	4c0a      	ldr	r4, [pc, #40]	@ (8000518 <_sbrk+0x3c>)
 80004f0:	4403      	add	r3, r0
 80004f2:	1b09      	subs	r1, r1, r4
 80004f4:	428b      	cmp	r3, r1
 80004f6:	d906      	bls.n	8000506 <_sbrk+0x2a>
  {
    errno = ENOMEM;
 80004f8:	f005 f950 	bl	800579c <__errno>
 80004fc:	230c      	movs	r3, #12
 80004fe:	6003      	str	r3, [r0, #0]
    return (void *)-1;
 8000500:	f04f 30ff 	mov.w	r0, #4294967295

  prev_heap_end = __sbrk_heap_end;
  __sbrk_heap_end += incr;

  return (void *)prev_heap_end;
}
 8000504:	bd10      	pop	{r4, pc}
  __sbrk_heap_end += incr;
 8000506:	6013      	str	r3, [r2, #0]
  return (void *)prev_heap_end;
 8000508:	e7fc      	b.n	8000504 <_sbrk+0x28>
 800050a:	bf00      	nop
 800050c:	20000334 	.word	0x20000334
 8000510:	200005b0 	.word	0x200005b0
 8000514:	20005000 	.word	0x20005000
 8000518:	00000400 	.word	0x00000400

0800051c <SystemInit>:

  /* Configure the Vector Table location -------------------------------------*/
#if defined(USER_VECT_TAB_ADDRESS)
  SCB->VTOR = VECT_TAB_BASE_ADDRESS | VECT_TAB_OFFSET; /* Vector Table Relocation in Internal SRAM. */
#endif /* USER_VECT_TAB_ADDRESS */
}
 800051c:	4770      	bx	lr
	...

08000520 <it68013CX_i2c_write_byte>:
#else //yjh2026

extern I2C_HandleTypeDef hi2c1;

BOOL i2c_write_byte( BYTE address,BYTE offset,BYTE byteno,BYTE *p_data,BYTE device )
{
 8000520:	b530      	push	{r4, r5, lr}
 8000522:	460d      	mov	r5, r1
	HAL_StatusTypeDef ret;
	(void)device;
	ret = HAL_I2C_Mem_Write(&hi2c1, address, offset, I2C_MEMADD_SIZE_8BIT, p_data, byteno, 100);
 8000524:	2164      	movs	r1, #100	@ 0x64
{
 8000526:	b085      	sub	sp, #20
	ret = HAL_I2C_Mem_Write(&hi2c1, address, offset, I2C_MEMADD_SIZE_8BIT, p_data, byteno, 100);
 8000528:	e9cd 2101 	strd	r2, r1, [sp, #4]
{
 800052c:	4604      	mov	r4, r0
	ret = HAL_I2C_Mem_Write(&hi2c1, address, offset, I2C_MEMADD_SIZE_8BIT, p_data, byteno, 100);
 800052e:	4601      	mov	r1, r0
 8000530:	9300      	str	r3, [sp, #0]
 8000532:	462a      	mov	r2, r5
 8000534:	2301      	movs	r3, #1
 8000536:	4807      	ldr	r0, [pc, #28]	@ (8000554 <it68013CX_i2c_write_byte+0x34>)
 8000538:	f004 f96e 	bl	8004818 <HAL_I2C_Mem_Write>
	if(ret != HAL_OK)
 800053c:	b138      	cbz	r0, 800054e <it68013CX_i2c_write_byte+0x2e>
	{
		printf("i2c_wr err 0x%02X 0x%02X\r\n", address, offset);
 800053e:	462a      	mov	r2, r5
 8000540:	4621      	mov	r1, r4
 8000542:	4805      	ldr	r0, [pc, #20]	@ (8000558 <it68013CX_i2c_write_byte+0x38>)
 8000544:	f004 ff94 	bl	8005470 <iprintf>
		return FALSE;
 8000548:	2000      	movs	r0, #0
	}
	return TRUE;
}
 800054a:	b005      	add	sp, #20
 800054c:	bd30      	pop	{r4, r5, pc}
	return TRUE;
 800054e:	2001      	movs	r0, #1
 8000550:	e7fb      	b.n	800054a <it68013CX_i2c_write_byte+0x2a>
 8000552:	bf00      	nop
 8000554:	200002e0 	.word	0x200002e0
 8000558:	08006242 	.word	0x08006242

0800055c <it68013CX_i2c_read_byte>:

BOOL i2c_read_byte( BYTE address,BYTE offset,BYTE byteno,BYTE *p_data,BYTE device )
{
 800055c:	b530      	push	{r4, r5, lr}
 800055e:	460d      	mov	r5, r1
	HAL_StatusTypeDef ret;
	(void)device;
	ret = HAL_I2C_Mem_Read(&hi2c1, address, offset, I2C_MEMADD_SIZE_8BIT, p_data, byteno, 100);
 8000560:	2164      	movs	r1, #100	@ 0x64
{
 8000562:	b085      	sub	sp, #20
	ret = HAL_I2C_Mem_Read(&hi2c1, address, offset, I2C_MEMADD_SIZE_8BIT, p_data, byteno, 100);
 8000564:	e9cd 2101 	strd	r2, r1, [sp, #4]
{
 8000568:	4604      	mov	r4, r0
	ret = HAL_I2C_Mem_Read(&hi2c1, address, offset, I2C_MEMADD_SIZE_8BIT, p_data, byteno, 100);
 800056a:	4601      	mov	r1, r0
 800056c:	9300      	str	r3, [sp, #0]
 800056e:	462a      	mov	r2, r5
 8000570:	2301      	movs	r3, #1
 8000572:	4807      	ldr	r0, [pc, #28]	@ (8000590 <it68013CX_i2c_read_byte+0x34>)
 8000574:	f004 f9e0 	bl	8004938 <HAL_I2C_Mem_Read>
	if(ret != HAL_OK)
 8000578:	b138      	cbz	r0, 800058a <it68013CX_i2c_read_byte+0x2e>
	{
		printf("i2c_rd err 0x%02X 0x%02X\r\n", address, offset);
 800057a:	462a      	mov	r2, r5
 800057c:	4621      	mov	r1, r4
 800057e:	4805      	ldr	r0, [pc, #20]	@ (8000594 <it68013CX_i2c_read_byte+0x38>)
 8000580:	f004 ff76 	bl	8005470 <iprintf>
		return FALSE;
 8000584:	2000      	movs	r0, #0
	}
	return TRUE;
}
 8000586:	b005      	add	sp, #20
 8000588:	bd30      	pop	{r4, r5, pc}
	return TRUE;
 800058a:	2001      	movs	r0, #1
 800058c:	e7fb      	b.n	8000586 <it68013CX_i2c_read_byte+0x2a>
 800058e:	bf00      	nop
 8000590:	200002e0 	.word	0x200002e0
 8000594:	0800625d 	.word	0x0800625d

08000598 <init_printf>:
#else //yjh2026

void init_printf(void)
{
	//UART already initialized in main.c
}
 8000598:	4770      	bx	lr

0800059a <initialTimer1>:

void initialTimer1(void)
 800059a:	4770      	bx	lr

0800059c <getloopTicCount>:
{
	//SysTick already configured by HAL_Init()
}

USHORT getloopTicCount()
{
 800059c:	b508      	push	{r3, lr}
	static uint32_t prevTick = 0;
	uint32_t curTick = HAL_GetTick();
 800059e:	f003 fd4b 	bl	8004038 <HAL_GetTick>
	uint32_t diff = curTick - prevTick;
 80005a2:	4a03      	ldr	r2, [pc, #12]	@ (80005b0 <getloopTicCount+0x14>)
 80005a4:	6813      	ldr	r3, [r2, #0]
	prevTick = curTick;
 80005a6:	6010      	str	r0, [r2, #0]
	uint32_t diff = curTick - prevTick;
 80005a8:	1ac3      	subs	r3, r0, r3
	return (USHORT)diff;
}
 80005aa:	b298      	uxth	r0, r3
 80005ac:	bd08      	pop	{r3, pc}
 80005ae:	bf00      	nop
 80005b0:	20000338 	.word	0x20000338

080005b4 <delay1ms>:
	return (USHORT)(HAL_GetTick() & 0xFFFF);
}

void delay1ms(USHORT ms)
{
	HAL_Delay(ms);
 80005b4:	f003 bd46 	b.w	8004044 <HAL_Delay>

080005b8 <hdmirxbwr.part.0>:
    temp = hdmirxrd(offset);
    temp = (temp&((~mask)&0xFF))+(mask&ucdata);
    return hdmirxwr(offset, temp);
}

void hdmirxbwr( unsigned char offset, unsigned char byteno, unsigned char *rddata )
 80005b8:	b507      	push	{r0, r1, r2, lr}
 80005ba:	4613      	mov	r3, r2
{
    unsigned char flag;
    if( byteno>0 )
//FIX_ID_002 xxxxx    Check IT6802 chip version Identify for TogglePolarity and Port 1 Deskew
    flag= i2c_write_byte(HdmiI2cAddr, offset, byteno, rddata, HDMI_DEV);
 80005bc:	2200      	movs	r2, #0
 80005be:	9200      	str	r2, [sp, #0]
 80005c0:	460a      	mov	r2, r1
 80005c2:	4601      	mov	r1, r0
 80005c4:	4803      	ldr	r0, [pc, #12]	@ (80005d4 <hdmirxbwr.part.0+0x1c>)
 80005c6:	7800      	ldrb	r0, [r0, #0]
 80005c8:	f7ff ffaa 	bl	8000520 <it68013CX_i2c_write_byte>
    MxLRX_DEBUG_PRINTF(("====================================\n"));
    MxLRX_DEBUG_PRINTF(("IT6802 I2C ERROR !!!"));
    MxLRX_DEBUG_PRINTF(("=====  Write Reg0x%X=%X =====\n",(int)offset,(int)rddata));
    MxLRX_DEBUG_PRINTF(("====================================\n"));
    }
}
 80005cc:	b003      	add	sp, #12
 80005ce:	f85d fb04 	ldr.w	pc, [sp], #4
 80005d2:	bf00      	nop
 80005d4:	200001cc 	.word	0x200001cc

080005d8 <hdmirxrd>:
{
 80005d8:	b51f      	push	{r0, r1, r2, r3, r4, lr}
    FLAG= i2c_read_byte(HdmiI2cAddr, RegAddr, 1, &mDataIn, HDMI_DEV);
 80005da:	2300      	movs	r3, #0
{
 80005dc:	4601      	mov	r1, r0
    FLAG= i2c_read_byte(HdmiI2cAddr, RegAddr, 1, &mDataIn, HDMI_DEV);
 80005de:	4806      	ldr	r0, [pc, #24]	@ (80005f8 <hdmirxrd+0x20>)
 80005e0:	9300      	str	r3, [sp, #0]
 80005e2:	2201      	movs	r2, #1
 80005e4:	f10d 030f 	add.w	r3, sp, #15
 80005e8:	7800      	ldrb	r0, [r0, #0]
 80005ea:	f7ff ffb7 	bl	800055c <it68013CX_i2c_read_byte>
}
 80005ee:	f89d 000f 	ldrb.w	r0, [sp, #15]
 80005f2:	b005      	add	sp, #20
 80005f4:	f85d fb04 	ldr.w	pc, [sp], #4
 80005f8:	200001cc 	.word	0x200001cc

080005fc <hdmirxwr>:
{
 80005fc:	b51f      	push	{r0, r1, r2, r3, r4, lr}
    flag= i2c_write_byte(HdmiI2cAddr, RegAddr, 1, &DataIn, HDMI_DEV);
 80005fe:	2300      	movs	r3, #0
{
 8000600:	f88d 100f 	strb.w	r1, [sp, #15]
    flag= i2c_write_byte(HdmiI2cAddr, RegAddr, 1, &DataIn, HDMI_DEV);
 8000604:	4601      	mov	r1, r0
 8000606:	4807      	ldr	r0, [pc, #28]	@ (8000624 <hdmirxwr+0x28>)
 8000608:	9300      	str	r3, [sp, #0]
 800060a:	2201      	movs	r2, #1
 800060c:	f10d 030f 	add.w	r3, sp, #15
 8000610:	7800      	ldrb	r0, [r0, #0]
 8000612:	f7ff ff85 	bl	8000520 <it68013CX_i2c_write_byte>
}
 8000616:	fab0 f080 	clz	r0, r0
 800061a:	0940      	lsrs	r0, r0, #5
 800061c:	b005      	add	sp, #20
 800061e:	f85d fb04 	ldr.w	pc, [sp], #4
 8000622:	bf00      	nop
 8000624:	200001cc 	.word	0x200001cc

08000628 <hdmirxset>:
{
 8000628:	b570      	push	{r4, r5, r6, lr}
 800062a:	4605      	mov	r5, r0
 800062c:	460c      	mov	r4, r1
 800062e:	4616      	mov	r6, r2
    temp = hdmirxrd(offset);
 8000630:	f7ff ffd2 	bl	80005d8 <hdmirxrd>
    temp = (temp&((~mask)&0xFF))+(mask&ucdata);
 8000634:	ea20 0104 	bic.w	r1, r0, r4
 8000638:	4034      	ands	r4, r6
 800063a:	4421      	add	r1, r4
    return hdmirxwr(offset, temp);
 800063c:	4628      	mov	r0, r5
}
 800063e:	e8bd 4070 	ldmia.w	sp!, {r4, r5, r6, lr}
    return hdmirxwr(offset, temp);
 8000642:	b2c9      	uxtb	r1, r1
 8000644:	f7ff bfda 	b.w	80005fc <hdmirxwr>

08000648 <DisableOverWriteRS.part.0>:


//---------------------------------------------------------------------------------------------------
//FIX_ID_001 xxxxx Add Auto EQ with Manual EQ
#ifdef _SUPPORT_AUTO_EQ_
void DisableOverWriteRS (unsigned char ucPortSel)
 8000648:	b510      	push	{r4, lr}
    struct it6802_dev_data *it6802data = get_it6802_dev_data();

    if(ucPortSel == F_PORT_SEL_1)
    {
#ifdef _SUPPORT_AUTO_EQ_
        ucPortAMPOverWrite[F_PORT_SEL_1]=0;    //2013-0801
 800064a:	2400      	movs	r4, #0
 800064c:	4b10      	ldr	r3, [pc, #64]	@ (8000690 <DisableOverWriteRS.part.0+0x48>)
        ucPortAMPValid[F_PORT_SEL_1]=0;
//FIX_ID_035 xxxxx //For MTK6592 HDMI to SII MxL TX compliance issue
//xxxxx 2014-0508 disable ->        ucEqRetryCnt[F_PORT_SEL_1]=0;
//FIX_ID_035 xxxxx
        ucEQMode[F_PORT_SEL_1] = 0; // 0 for Auto Mode
        hdmirxset(REG_RX_03A, 0xFF, 0x00);    // 07-16 Reg3A=0x30    power down auto EQ
 800064e:	4622      	mov	r2, r4
        ucPortAMPOverWrite[F_PORT_SEL_1]=0;    //2013-0801
 8000650:	705c      	strb	r4, [r3, #1]
        ucPortAMPValid[F_PORT_SEL_1]=0;
 8000652:	4b10      	ldr	r3, [pc, #64]	@ (8000694 <DisableOverWriteRS.part.0+0x4c>)
        hdmirxset(REG_RX_03A, 0xFF, 0x00);    // 07-16 Reg3A=0x30    power down auto EQ
 8000654:	21ff      	movs	r1, #255	@ 0xff
        ucPortAMPValid[F_PORT_SEL_1]=0;
 8000656:	705c      	strb	r4, [r3, #1]
        ucEQMode[F_PORT_SEL_1] = 0; // 0 for Auto Mode
 8000658:	4b0f      	ldr	r3, [pc, #60]	@ (8000698 <DisableOverWriteRS.part.0+0x50>)
        hdmirxset(REG_RX_03A, 0xFF, 0x00);    // 07-16 Reg3A=0x30    power down auto EQ
 800065a:	203a      	movs	r0, #58	@ 0x3a
        ucEQMode[F_PORT_SEL_1] = 0; // 0 for Auto Mode
 800065c:	705c      	strb	r4, [r3, #1]
        hdmirxset(REG_RX_03A, 0xFF, 0x00);    // 07-16 Reg3A=0x30    power down auto EQ
 800065e:	f7ff ffe3 	bl	8000628 <hdmirxset>
        hdmirxset(REG_RX_03E,0x20,0x00);        //Manually set RS Value
 8000662:	4622      	mov	r2, r4
 8000664:	2120      	movs	r1, #32
 8000666:	203e      	movs	r0, #62	@ 0x3e
 8000668:	f7ff ffde 	bl	8000628 <hdmirxset>
        MxLRX_DEBUG_PRINTF((" ############# DisableOverWriteRS( ) port 1 ###############\n"));
#endif
        #ifdef _SUPPORT_EQ_ADJUST_
        it6802data->EQPort[F_PORT_SEL_1].f_manualEQadjust=FALSE;
        it6802data->EQPort[F_PORT_SEL_1].ucEQState=0xFF;
 800066c:	22ff      	movs	r2, #255	@ 0xff
        it6802data->EQPort[F_PORT_SEL_1].f_manualEQadjust=FALSE;
 800066e:	4b0b      	ldr	r3, [pc, #44]	@ (800069c <DisableOverWriteRS.part.0+0x54>)
        it6802data->EQPort[F_PORT_SEL_1].ucEQState=0xFF;
 8000670:	f883 2049 	strb.w	r2, [r3, #73]	@ 0x49
        it6802data->m_ucDeskew_P1=0;
        it6802data->m_ucEccCount_P1=0;


        //FIX_ID_014 xxxxx
            it6802data->HDMIIntEvent &=0x0F;;
 8000674:	f893 205c 	ldrb.w	r2, [r3, #92]	@ 0x5c
        it6802data->EQPort[F_PORT_SEL_1].f_manualEQadjust=FALSE;
 8000678:	f883 404f 	strb.w	r4, [r3, #79]	@ 0x4f
            it6802data->HDMIIntEvent &=0x0F;;
 800067c:	f002 020f 	and.w	r2, r2, #15
        it6802data->m_ucDeskew_P1=0;
 8000680:	765c      	strb	r4, [r3, #25]
        it6802data->m_ucEccCount_P1=0;
 8000682:	75dc      	strb	r4, [r3, #23]
            it6802data->HDMIIntEvent &=0x0F;;
 8000684:	f883 205c 	strb.w	r2, [r3, #92]	@ 0x5c
            it6802data->HDMIWaitNo[F_PORT_SEL_1]=0;
 8000688:	f883 405e 	strb.w	r4, [r3, #94]	@ 0x5e
#endif
//FIX_ID_036    xxxxx

    }

}
 800068c:	bd10      	pop	{r4, pc}
 800068e:	bf00      	nop
 8000690:	2000039a 	.word	0x2000039a
 8000694:	20000398 	.word	0x20000398
 8000698:	20000390 	.word	0x20000390
 800069c:	200003a8 	.word	0x200003a8

080006a0 <HDMISetEQValue.part.0>:
        ucEQPort->ErrorCount[2] = MAXECCWAIT;
//FIX_ID_010 xxxxx
    }
}

void HDMISetEQValue(struct it6802_eq_data *ucEQPort,unsigned char ucIndex)
 80006a0:	b570      	push	{r4, r5, r6, lr}
 80006a2:	460c      	mov	r4, r1
 * @return void
 */
{
    if(ucIndex<MaxEQIndex)
    {
        if(ucEQPort->ucPortID==F_PORT_SEL_0)
 80006a4:	7941      	ldrb	r1, [r0, #5]
void HDMISetEQValue(struct it6802_eq_data *ucEQPort,unsigned char ucIndex)
 80006a6:	4605      	mov	r5, r0
 80006a8:	2201      	movs	r2, #1
 80006aa:	4b16      	ldr	r3, [pc, #88]	@ (8000704 <HDMISetEQValue.part.0+0x64>)
 80006ac:	4e16      	ldr	r6, [pc, #88]	@ (8000708 <HDMISetEQValue.part.0+0x68>)
        if(ucEQPort->ucPortID==F_PORT_SEL_0)
 80006ae:	b9a9      	cbnz	r1, 80006dc <HDMISetEQValue.part.0+0x3c>
        {
#ifdef _SUPPORT_AUTO_EQ_
            ucEQMode[F_PORT_SEL_0] = 1; // 1 for Manual Mode
 80006b0:	701a      	strb	r2, [r3, #0]
#endif
            hdmirxset(REG_RX_026, 0x20, 0x20);    //07-04 add for adjust EQ
 80006b2:	2220      	movs	r2, #32
 80006b4:	2026      	movs	r0, #38	@ 0x26
 80006b6:	4611      	mov	r1, r2
 80006b8:	f7ff ffb6 	bl	8000628 <hdmirxset>
            hdmirxwr(REG_RX_027,IT6802EQTable[ucIndex]);
 80006bc:	5d31      	ldrb	r1, [r6, r4]
 80006be:	2027      	movs	r0, #39	@ 0x27
 80006c0:	f7ff ff9c 	bl	80005fc <hdmirxwr>
            EQ_PORT0_PRINTF(("Port=%X ,ucIndex = %X ,HDMISetEQValue Reg027 = %X\n",(int) ucEQPort->ucPortID,(int) ucIndex,(int) hdmirxrd(REG_RX_027)));
 80006c4:	2027      	movs	r0, #39	@ 0x27
 80006c6:	796d      	ldrb	r5, [r5, #5]
 80006c8:	f7ff ff86 	bl	80005d8 <hdmirxrd>
 80006cc:	4622      	mov	r2, r4
 80006ce:	4629      	mov	r1, r5
 80006d0:	4603      	mov	r3, r0
 80006d2:	480e      	ldr	r0, [pc, #56]	@ (800070c <HDMISetEQValue.part.0+0x6c>)
            EQ_PORT1_PRINTF(("Port=%X ,ucIndex = %X ,HDMISetEQValue Reg03F = %X\n",(int) ucEQPort->ucPortID,(int) ucIndex,(int) hdmirxrd(REG_RX_03F)));
        }

    }

}
 80006d4:	e8bd 4070 	ldmia.w	sp!, {r4, r5, r6, lr}
            EQ_PORT1_PRINTF(("Port=%X ,ucIndex = %X ,HDMISetEQValue Reg03F = %X\n",(int) ucEQPort->ucPortID,(int) ucIndex,(int) hdmirxrd(REG_RX_03F)));
 80006d8:	f004 beca 	b.w	8005470 <iprintf>
            ucEQMode[F_PORT_SEL_1] = 1; // 1 for Manual Mode
 80006dc:	705a      	strb	r2, [r3, #1]
            hdmirxset(REG_RX_03E, 0x20, 0x20);    //07-04 add for adjust EQ
 80006de:	2220      	movs	r2, #32
 80006e0:	203e      	movs	r0, #62	@ 0x3e
 80006e2:	4611      	mov	r1, r2
 80006e4:	f7ff ffa0 	bl	8000628 <hdmirxset>
            hdmirxwr(REG_RX_03F,IT6802EQTable[ucIndex]);
 80006e8:	5d31      	ldrb	r1, [r6, r4]
 80006ea:	203f      	movs	r0, #63	@ 0x3f
 80006ec:	f7ff ff86 	bl	80005fc <hdmirxwr>
            EQ_PORT1_PRINTF(("Port=%X ,ucIndex = %X ,HDMISetEQValue Reg03F = %X\n",(int) ucEQPort->ucPortID,(int) ucIndex,(int) hdmirxrd(REG_RX_03F)));
 80006f0:	203f      	movs	r0, #63	@ 0x3f
 80006f2:	796d      	ldrb	r5, [r5, #5]
 80006f4:	f7ff ff70 	bl	80005d8 <hdmirxrd>
 80006f8:	4622      	mov	r2, r4
 80006fa:	4603      	mov	r3, r0
 80006fc:	4629      	mov	r1, r5
 80006fe:	4804      	ldr	r0, [pc, #16]	@ (8000710 <HDMISetEQValue.part.0+0x70>)
 8000700:	e7e8      	b.n	80006d4 <HDMISetEQValue.part.0+0x34>
 8000702:	bf00      	nop
 8000704:	20000390 	.word	0x20000390
 8000708:	200001cd 	.word	0x200001cd
 800070c:	08006278 	.word	0x08006278
 8000710:	080062ab 	.word	0x080062ab

08000714 <IT6802_ManualVideoTristate.part.0>:



//FIX_ID_037 xxxxx //Allion MxL compliance issue !!!
//xxxxx 2014-0529 //HDCP Content On/Off
void IT6802_ManualVideoTristate(unsigned char bOff)
 8000714:	b508      	push	{r3, lr}
    hdmirxset(REG_RX_053,(B_TriVDIO),(0x00));                                //Reg53[2:0] = 000;         // 0 for enable video io data output
    HDMIRX_VIDEO_PRINTF(("+++++++++++ Manual Video / Audio off  +++++++++++++++++\n"));
    }
    else
    {
    hdmirxset(REG_RX_053,(B_TriSYNC),(0x00));                                //Reg53[0] = 0;                 // for enable video sync
 8000716:	2200      	movs	r2, #0
 8000718:	2101      	movs	r1, #1
 800071a:	2053      	movs	r0, #83	@ 0x53
 800071c:	f7ff ff84 	bl	8000628 <hdmirxset>
    hdmirxset(REG_RX_053,(B_TriVDIO),(0x00));                                //Reg53[3:1] = 000;         // 0 for enable video io data output
 8000720:	2200      	movs	r2, #0
 8000722:	210e      	movs	r1, #14
 8000724:	2053      	movs	r0, #83	@ 0x53
 8000726:	f7ff ff7f 	bl	8000628 <hdmirxset>
    hdmirxset(REG_RX_053,(B_TriVDIO),(B_TriVDIO));                            //Reg53[2:0] = 111;         // 1 for enable tri-state of video io data
 800072a:	220e      	movs	r2, #14
 800072c:	2053      	movs	r0, #83	@ 0x53
 800072e:	4611      	mov	r1, r2
 8000730:	f7ff ff7a 	bl	8000628 <hdmirxset>
    hdmirxset(REG_RX_053,(B_TriVDIO),(0x00));                                //Reg53[2:0] = 000;         // 0 for enable video io data output
 8000734:	2200      	movs	r2, #0
 8000736:	210e      	movs	r1, #14
 8000738:	2053      	movs	r0, #83	@ 0x53
 800073a:	f7ff ff75 	bl	8000628 <hdmirxset>
    hdmirxset(REG_RX_053,(B_VDGatting|B_VIOSel),(B_VDGatting|B_VIOSel));    //Reg53[7][5] = 11    // for enable B_VDIO_GATTING and VIO_SEL
 800073e:	22c0      	movs	r2, #192	@ 0xc0
 8000740:	2053      	movs	r0, #83	@ 0x53
 8000742:	4611      	mov	r1, r2
 8000744:	f7ff ff70 	bl	8000628 <hdmirxset>
    hdmirxset(REG_RX_053,(B_VDGatting|B_VIOSel),(B_VIOSel));                //Reg53[7][5] = 01    // for disable B_VDIO_GATTING
 8000748:	2240      	movs	r2, #64	@ 0x40
 800074a:	21c0      	movs	r1, #192	@ 0xc0
 800074c:	2053      	movs	r0, #83	@ 0x53
 800074e:	f7ff ff6b 	bl	8000628 <hdmirxset>
    HDMIRX_VIDEO_PRINTF(("+++++++++++ Manual Video on  +++++++++++++++++\n"));
    }
}
 8000752:	e8bd 4008 	ldmia.w	sp!, {r3, lr}
    HDMIRX_VIDEO_PRINTF(("+++++++++++ Manual Video on  +++++++++++++++++\n"));
 8000756:	4801      	ldr	r0, [pc, #4]	@ (800075c <IT6802_ManualVideoTristate.part.0+0x48>)
 8000758:	f004 bef2 	b.w	8005540 <puts>
 800075c:	080062de 	.word	0x080062de

08000760 <IT6802VideoOutputEnable.part.0>:
    {
        // enable output


        // enable output
        hdmirxset(REG_RX_064, 0x80, 0x80); // video fifo reset
 8000760:	2280      	movs	r2, #128	@ 0x80
void IT6802VideoOutputEnable(unsigned char bEnableOutput)
 8000762:	b508      	push	{r3, lr}
        hdmirxset(REG_RX_064, 0x80, 0x80); // video fifo reset
 8000764:	4611      	mov	r1, r2
 8000766:	2064      	movs	r0, #100	@ 0x64
 8000768:	f7ff ff5e 	bl	8000628 <hdmirxset>
        hdmirxset(REG_RX_064, 0x80, 0x00); // video fifo reset
 800076c:	2200      	movs	r2, #0
 800076e:	2180      	movs	r1, #128	@ 0x80
 8000770:	2064      	movs	r0, #100	@ 0x64
 8000772:	f7ff ff59 	bl	8000628 <hdmirxset>
        delay1ms(10);
 8000776:	200a      	movs	r0, #10
 8000778:	f7ff ff1c 	bl	80005b4 <delay1ms>

        hdmirxset(REG_RX_053,(B_TriSYNC|B_TriVDIO),(0x00));
 800077c:	2200      	movs	r2, #0
 800077e:	210f      	movs	r1, #15
 8000780:	2053      	movs	r0, #83	@ 0x53
 8000782:	f7ff ff51 	bl	8000628 <hdmirxset>
        #endif
        //FIX_ID_016 xxxxx


    }
}
 8000786:	e8bd 4008 	ldmia.w	sp!, {r3, lr}
        HDMIRX_VIDEO_PRINTF(("---------------- IT6802VideoOutputEnable -> On ----------------\n"));
 800078a:	4801      	ldr	r0, [pc, #4]	@ (8000790 <IT6802VideoOutputEnable.part.0+0x30>)
 800078c:	f004 bed8 	b.w	8005540 <puts>
 8000790:	0800630d 	.word	0x0800630d

08000794 <hdimrx_write_init>:
{
 8000794:	b510      	push	{r4, lr}
 8000796:	4604      	mov	r4, r0
    while(tdata[cnt].ucAddr != 0xFF)
 8000798:	f814 0b03 	ldrb.w	r0, [r4], #3
 800079c:	28ff      	cmp	r0, #255	@ 0xff
 800079e:	d100      	bne.n	80007a2 <hdimrx_write_init+0xe>
}
 80007a0:	bd10      	pop	{r4, pc}
        hdmirxset(tdata[cnt].ucAddr,tdata[cnt].andmask,tdata[cnt].ucValue);
 80007a2:	f814 2c01 	ldrb.w	r2, [r4, #-1]
 80007a6:	f814 1c02 	ldrb.w	r1, [r4, #-2]
 80007aa:	f7ff ff3d 	bl	8000628 <hdmirxset>
        cnt++;
 80007ae:	e7f3      	b.n	8000798 <hdimrx_write_init+0x4>

080007b0 <hdmirx_Var_init>:
    it6802->EQPort[F_PORT_SEL_1].ucECCfailCount=0;
 80007b0:	f44f 3180 	mov.w	r1, #65536	@ 0x10000
    it6802->m_ucSCDTOffCount=0;
 80007b4:	2300      	movs	r3, #0
{
 80007b6:	b5f0      	push	{r4, r5, r6, r7, lr}
    it6802->EQPort[F_PORT_SEL_1].ucECCfailCount=0;
 80007b8:	64c1      	str	r1, [r0, #76]	@ 0x4c
    ucChannelR[1]=0;
 80007ba:	4923      	ldr	r1, [pc, #140]	@ (8000848 <hdmirx_Var_init+0x98>)
    it6802->EQPort[F_PORT_SEL_0].ucEQState=0xFF;
 80007bc:	22ff      	movs	r2, #255	@ 0xff
    ucChannelR[1]=0;
 80007be:	704b      	strb	r3, [r1, #1]
    ucChannelR[0]=0;
 80007c0:	700b      	strb	r3, [r1, #0]
    it6802->ToggleCount[F_PORT_SEL_1]=0;
 80007c2:	f44f 3181 	mov.w	r1, #66048	@ 0x10200
    it6802->CsigBusIntEvent=0;
 80007c6:	e9c0 1315 	strd	r1, r3, [r0, #84]	@ 0x54
    it6802->m_AudioCountingTimer=0;
 80007ca:	f44f 017f 	mov.w	r1, #16711680	@ 0xff0000
 80007ce:	6101      	str	r1, [r0, #16]
    it6802->m_VState=VSTATE_Unknown;
 80007d0:	f240 510d 	movw	r1, #1293	@ 0x50d
    ucPortAMPOverWrite[1]=0;    //2013-0801
 80007d4:	4f1d      	ldr	r7, [pc, #116]	@ (800084c <hdmirx_Var_init+0x9c>)
    ucPortAMPValid[1]=0;
 80007d6:	4e1e      	ldr	r6, [pc, #120]	@ (8000850 <hdmirx_Var_init+0xa0>)
    ucChannelB[1]=0;
 80007d8:	4d1e      	ldr	r5, [pc, #120]	@ (8000854 <hdmirx_Var_init+0xa4>)
    ucChannelG[1]=0;
 80007da:	4c1f      	ldr	r4, [pc, #124]	@ (8000858 <hdmirx_Var_init+0xa8>)
    ucPortAMPOverWrite[1]=0;    //2013-0801
 80007dc:	707b      	strb	r3, [r7, #1]
    ucPortAMPValid[1]=0;
 80007de:	7073      	strb	r3, [r6, #1]
    ucChannelB[1]=0;
 80007e0:	706b      	strb	r3, [r5, #1]
    ucChannelG[1]=0;
 80007e2:	7063      	strb	r3, [r4, #1]
    ucPortAMPOverWrite[0]=0;    //2013-0801
 80007e4:	703b      	strb	r3, [r7, #0]
    ucPortAMPValid[0]=0;
 80007e6:	7033      	strb	r3, [r6, #0]
    ucChannelB[0]=0;
 80007e8:	702b      	strb	r3, [r5, #0]
    ucChannelG[0]=0;
 80007ea:	7023      	strb	r3, [r4, #0]
    it6802->m_ucSCDTOffCount=0;
 80007ec:	7543      	strb	r3, [r0, #21]
    it6802->m_ucEccCount_P0=0;
 80007ee:	82c3      	strh	r3, [r0, #22]
    it6802->m_ucDeskew_P0=0;
 80007f0:	8303      	strh	r3, [r0, #24]
    it6802->EQPort[F_PORT_SEL_0].ucEQState=0xFF;
 80007f2:	f880 203f 	strb.w	r2, [r0, #63]	@ 0x3f
    it6802->EQPort[F_PORT_SEL_0].ucAuthR0=0;
 80007f6:	6403      	str	r3, [r0, #64]	@ 0x40
    it6802->EQPort[F_PORT_SEL_0].ucPortID=F_PORT_SEL_0;
 80007f8:	f8a0 3044 	strh.w	r3, [r0, #68]	@ 0x44
    it6802->EQPort[F_PORT_SEL_1].ucEQState=0xFF;
 80007fc:	f880 2049 	strb.w	r2, [r0, #73]	@ 0x49
    it6802->EQPort[F_PORT_SEL_1].ucAuthR0=0;
 8000800:	f8a0 304a 	strh.w	r3, [r0, #74]	@ 0x4a
    it6802->ToggleCount[F_PORT_SEL_0]=0;
 8000804:	f880 3053 	strb.w	r3, [r0, #83]	@ 0x53
    it6802->HDMIIntEvent=0;
 8000808:	f8a0 305c 	strh.w	r3, [r0, #92]	@ 0x5c
    it6802->HDMIWaitNo[1]=0;
 800080c:	f880 305e 	strb.w	r3, [r0, #94]	@ 0x5e
    it6802->m_SWResetTimeOut=0;
 8000810:	60c3      	str	r3, [r0, #12]
    it6802->m_DiscoveryDone = 0;
 8000812:	f880 3065 	strb.w	r3, [r0, #101]	@ 0x65
   it6802->m_RAP_ContentOff = 0;
 8000816:	f8a0 3066 	strh.w	r3, [r0, #102]	@ 0x66
    it6802->m_VState=VSTATE_Unknown;
 800081a:	8001      	strh	r1, [r0, #0]
    it6802->m_RxHDCPState=RxHDCP_PwrOff;
 800081c:	7083      	strb	r3, [r0, #2]
    it6802->m_bRxAVmute=FALSE;
 800081e:	f890 30ab 	ldrb.w	r3, [r0, #171]	@ 0xab
    it6802->prevAVIDB[0]=0xFF;
 8000822:	f880 206b 	strb.w	r2, [r0, #107]	@ 0x6b
    it6802->m_bRxAVmute=FALSE;
 8000826:	f003 0303 	and.w	r3, r3, #3
 800082a:	f880 30ab 	strb.w	r3, [r0, #171]	@ 0xab
    it6802->m_NewAUDInfoFrameF=FALSE;
 800082e:	f8b0 30ac 	ldrh.w	r3, [r0, #172]	@ 0xac
    it6802->prevAVIDB[1]=0xFF;
 8000832:	f880 206c 	strb.w	r2, [r0, #108]	@ 0x6c
    it6802->m_NewAUDInfoFrameF=FALSE;
 8000836:	f003 03f4 	and.w	r3, r3, #244	@ 0xf4
 800083a:	f8a0 30ac 	strh.w	r3, [r0, #172]	@ 0xac
    it6802->CsigBus_clockmode_timeout = CsigBus_CLK_MODE_TIMEOUT;
 800083e:	2323      	movs	r3, #35	@ 0x23
 8000840:	f880 30ae 	strb.w	r3, [r0, #174]	@ 0xae
}
 8000844:	bdf0      	pop	{r4, r5, r6, r7, pc}
 8000846:	bf00      	nop
 8000848:	20000392 	.word	0x20000392
 800084c:	2000039a 	.word	0x2000039a
 8000850:	20000398 	.word	0x20000398
 8000854:	20000396 	.word	0x20000396
 8000858:	20000394 	.word	0x20000394

0800085c <IT6802_Identify_Chip>:
{
 800085c:	e92d 43f7 	stmdb	sp!, {r0, r1, r2, r4, r5, r6, r7, r8, r9, lr}
 8000860:	4605      	mov	r5, r0
            HdmiI2cAddr    =I2cAddr[j];
 8000862:	f06f 096f 	mvn.w	r9, #111	@ 0x6f
    unsigned char acIT6802A0Version[4]={0x54,0x49,0x02,0x68};
 8000866:	4b14      	ldr	r3, [pc, #80]	@ (80008b8 <IT6802_Identify_Chip+0x5c>)
            HdmiI2cAddr    =I2cAddr[j];
 8000868:	4f14      	ldr	r7, [pc, #80]	@ (80008bc <IT6802_Identify_Chip+0x60>)
    unsigned char acIT6802A0Version[4]={0x54,0x49,0x02,0x68};
 800086a:	9301      	str	r3, [sp, #4]
            HdmiI2cAddr    =I2cAddr[j];
 800086c:	ae01      	add	r6, sp, #4
 800086e:	46b0      	mov	r8, r6
 8000870:	2400      	movs	r4, #0
 8000872:	f887 9000 	strb.w	r9, [r7]
                VenID = hdmirxrd(i);
 8000876:	b2e0      	uxtb	r0, r4
 8000878:	f7ff feae 	bl	80005d8 <hdmirxrd>
                if(VenID==acIT6802A0Version[i])
 800087c:	f818 3b01 	ldrb.w	r3, [r8], #1
 8000880:	4298      	cmp	r0, r3
 8000882:	d10a      	bne.n	800089a <IT6802_Identify_Chip+0x3e>
            for(i=0;i<4;i++)
 8000884:	3401      	adds	r4, #1
 8000886:	2c04      	cmp	r4, #4
 8000888:	d1f5      	bne.n	8000876 <IT6802_Identify_Chip+0x1a>
                it6802->device_version = hdmirxrd(0x04);/*20230525*//*check revision ID*/
 800088a:	2004      	movs	r0, #4
 800088c:	f7ff fea4 	bl	80005d8 <hdmirxrd>
 8000890:	f885 00af 	strb.w	r0, [r5, #175]	@ 0xaf
}
 8000894:	b003      	add	sp, #12
 8000896:	e8bd 83f0 	ldmia.w	sp!, {r4, r5, r6, r7, r8, r9, pc}
            HdmiI2cAddr    =I2cAddr[j];
 800089a:	2394      	movs	r3, #148	@ 0x94
 800089c:	2400      	movs	r4, #0
 800089e:	703b      	strb	r3, [r7, #0]
                VenID = hdmirxrd(i);
 80008a0:	b2e0      	uxtb	r0, r4
 80008a2:	f7ff fe99 	bl	80005d8 <hdmirxrd>
                if(VenID==acIT6802A0Version[i])
 80008a6:	f816 3b01 	ldrb.w	r3, [r6], #1
 80008aa:	4283      	cmp	r3, r0
 80008ac:	d1de      	bne.n	800086c <IT6802_Identify_Chip+0x10>
            for(i=0;i<4;i++)
 80008ae:	3401      	adds	r4, #1
 80008b0:	2c04      	cmp	r4, #4
 80008b2:	d1f5      	bne.n	80008a0 <IT6802_Identify_Chip+0x44>
 80008b4:	e7e9      	b.n	800088a <IT6802_Identify_Chip+0x2e>
 80008b6:	bf00      	nop
 80008b8:	68024954 	.word	0x68024954
 80008bc:	200001cc 	.word	0x200001cc

080008c0 <chgbank>:
    hdmirxset(0x0F, 0x03, bank&3);
 80008c0:	f000 0203 	and.w	r2, r0, #3
 80008c4:	2103      	movs	r1, #3
 80008c6:	200f      	movs	r0, #15
 80008c8:	f7ff beae 	b.w	8000628 <hdmirxset>

080008cc <IT6802_DCLKInvertConfigure.part.0>:
void IT6802_DCLKInvertConfigure(unsigned char IsHalfBusDDR)
 80008cc:	b510      	push	{r4, lr}
        rddata = hdmirxrd(0x9A);
 80008ce:	209a      	movs	r0, #154	@ 0x9a
 80008d0:	f7ff fe82 	bl	80005d8 <hdmirxrd>
        PCLK=(unsigned long)(RCLKVALUE*255/rddata);// 20240312
 80008d4:	f640 34f4 	movw	r4, #3060	@ 0xbf4
 80008d8:	fbb4 f4f0 	udiv	r4, r4, r0
        HDMIRX_VIDEO_PRINTF(("IT6802_DCLKInvertConfigure( ) PCLK = %ld\n",(unsigned long) PCLK));
 80008dc:	480e      	ldr	r0, [pc, #56]	@ (8000918 <IT6802_DCLKInvertConfigure.part.0+0x4c>)
 80008de:	4621      	mov	r1, r4
 80008e0:	f004 fdc6 	bl	8005470 <iprintf>
        if(PCLK>20){//20240708
 80008e4:	2c14      	cmp	r4, #20
            hdmirxset(REG_RX_050,0x10,0x10);
 80008e6:	bfd5      	itete	le
 80008e8:	2210      	movle	r2, #16
            hdmirxset(REG_RX_050,0x10,0x00);
 80008ea:	2200      	movgt	r2, #0
            hdmirxset(REG_RX_050,0x10,0x10);
 80008ec:	4611      	movle	r1, r2
            hdmirxset(REG_RX_050,0x10,0x00);
 80008ee:	2110      	movgt	r1, #16
            hdmirxset(REG_RX_050,0x10,0x10);
 80008f0:	2050      	movs	r0, #80	@ 0x50
 80008f2:	f7ff fe99 	bl	8000628 <hdmirxset>
        chgbank(1);
 80008f6:	2001      	movs	r0, #1
 80008f8:	f7ff ffe2 	bl	80008c0 <chgbank>
        if(PCLK>100){
 80008fc:	2c64      	cmp	r4, #100	@ 0x64
            hdmirxset(REG_RX_1B8,0x20,0x20);
 80008fe:	bfd3      	iteet	le
 8000900:	2220      	movle	r2, #32
            hdmirxset(REG_RX_1B8,0x20,0x00);
 8000902:	2200      	movgt	r2, #0
 8000904:	2120      	movgt	r1, #32
            hdmirxset(REG_RX_1B8,0x20,0x20);
 8000906:	4611      	movle	r1, r2
 8000908:	20b8      	movs	r0, #184	@ 0xb8
 800090a:	f7ff fe8d 	bl	8000628 <hdmirxset>
}
 800090e:	e8bd 4010 	ldmia.w	sp!, {r4, lr}
        chgbank(0);
 8000912:	2000      	movs	r0, #0
 8000914:	f7ff bfd4 	b.w	80008c0 <chgbank>
 8000918:	0800634d 	.word	0x0800634d

0800091c <CheckSCDT>:
{
 800091c:	b538      	push	{r3, r4, r5, lr}
 800091e:	4605      	mov	r5, r0
    ucPortSel = hdmirxrd(REG_RX_051) & B_PORT_SEL;
 8000920:	2051      	movs	r0, #81	@ 0x51
 8000922:	f7ff fe59 	bl	80005d8 <hdmirxrd>
 8000926:	4604      	mov	r4, r0
    sys_state_P0=hdmirxrd(REG_RX_P0_SYS_STATUS);
 8000928:	200a      	movs	r0, #10
 800092a:	f7ff fe55 	bl	80005d8 <hdmirxrd>
    if(ucPortSel == it6802->m_ucCurrentHDMIPort) {
 800092e:	7cab      	ldrb	r3, [r5, #18]
 8000930:	f004 0401 	and.w	r4, r4, #1
 8000934:	42a3      	cmp	r3, r4
            return FALSE;
 8000936:	bf14      	ite	ne
 8000938:	2000      	movne	r0, #0
        if(sys_state_P0 & B_P0_SCDT)
 800093a:	f3c0 10c0 	ubfxeq	r0, r0, #7, #1
}
 800093e:	bd38      	pop	{r3, r4, r5, pc}

08000940 <CLKCheck>:
    if(ucPortSel == F_PORT_SEL_1)
 8000940:	2801      	cmp	r0, #1
    sys_state = hdmirxrd(REG_RX_P1_SYS_STATUS) & (B_P1_RXCK_VALID);
 8000942:	bf0c      	ite	eq
 8000944:	200b      	moveq	r0, #11
    sys_state = hdmirxrd(REG_RX_P0_SYS_STATUS) & (B_P0_RXCK_VALID);
 8000946:	200a      	movne	r0, #10
{
 8000948:	b508      	push	{r3, lr}
    sys_state = hdmirxrd(REG_RX_P0_SYS_STATUS) & (B_P0_RXCK_VALID);
 800094a:	f7ff fe45 	bl	80005d8 <hdmirxrd>
 800094e:	f000 0008 	and.w	r0, r0, #8
}
 8000952:	3800      	subs	r0, #0
 8000954:	bf18      	it	ne
 8000956:	2001      	movne	r0, #1
 8000958:	bd08      	pop	{r3, pc}
	...

0800095c <DisableOverWriteRS>:
    if(ucPortSel == F_PORT_SEL_1)
 800095c:	2801      	cmp	r0, #1
{
 800095e:	b510      	push	{r4, lr}
    if(ucPortSel == F_PORT_SEL_1)
 8000960:	d103      	bne.n	800096a <DisableOverWriteRS+0xe>
}
 8000962:	e8bd 4010 	ldmia.w	sp!, {r4, lr}
 8000966:	f7ff be6f 	b.w	8000648 <DisableOverWriteRS.part.0>
        ucPortAMPOverWrite[F_PORT_SEL_0]=0;    //2013-0801
 800096a:	2400      	movs	r4, #0
 800096c:	4b10      	ldr	r3, [pc, #64]	@ (80009b0 <DisableOverWriteRS+0x54>)
        hdmirxset(REG_RX_022, 0xFF, 0x00);    // 07-16 Reg22=0x30    power down auto EQ
 800096e:	4622      	mov	r2, r4
        ucPortAMPOverWrite[F_PORT_SEL_0]=0;    //2013-0801
 8000970:	701c      	strb	r4, [r3, #0]
        ucPortAMPValid[F_PORT_SEL_0]=0;
 8000972:	4b10      	ldr	r3, [pc, #64]	@ (80009b4 <DisableOverWriteRS+0x58>)
        hdmirxset(REG_RX_022, 0xFF, 0x00);    // 07-16 Reg22=0x30    power down auto EQ
 8000974:	21ff      	movs	r1, #255	@ 0xff
        ucPortAMPValid[F_PORT_SEL_0]=0;
 8000976:	701c      	strb	r4, [r3, #0]
        ucEQMode[F_PORT_SEL_0] = 0; // 0 for Auto Mode
 8000978:	4b0f      	ldr	r3, [pc, #60]	@ (80009b8 <DisableOverWriteRS+0x5c>)
        hdmirxset(REG_RX_022, 0xFF, 0x00);    // 07-16 Reg22=0x30    power down auto EQ
 800097a:	2022      	movs	r0, #34	@ 0x22
        ucEQMode[F_PORT_SEL_0] = 0; // 0 for Auto Mode
 800097c:	701c      	strb	r4, [r3, #0]
        hdmirxset(REG_RX_022, 0xFF, 0x00);    // 07-16 Reg22=0x30    power down auto EQ
 800097e:	f7ff fe53 	bl	8000628 <hdmirxset>
        hdmirxset(REG_RX_026,0x20,0x00);        //Manually set RS Value
 8000982:	4622      	mov	r2, r4
 8000984:	2120      	movs	r1, #32
 8000986:	2026      	movs	r0, #38	@ 0x26
 8000988:	f7ff fe4e 	bl	8000628 <hdmirxset>
        it6802data->EQPort[F_PORT_SEL_0].ucEQState=0xFF;
 800098c:	22ff      	movs	r2, #255	@ 0xff
        it6802data->EQPort[F_PORT_SEL_0].f_manualEQadjust=FALSE;
 800098e:	4b0b      	ldr	r3, [pc, #44]	@ (80009bc <DisableOverWriteRS+0x60>)
        it6802data->EQPort[F_PORT_SEL_0].ucEQState=0xFF;
 8000990:	f883 203f 	strb.w	r2, [r3, #63]	@ 0x3f
            it6802data->HDMIIntEvent &=0xF0;;
 8000994:	f893 205c 	ldrb.w	r2, [r3, #92]	@ 0x5c
        it6802data->EQPort[F_PORT_SEL_0].f_manualEQadjust=FALSE;
 8000998:	f883 4045 	strb.w	r4, [r3, #69]	@ 0x45
            it6802data->HDMIIntEvent &=0xF0;;
 800099c:	f022 020f 	bic.w	r2, r2, #15
        it6802data->m_ucDeskew_P0=0;
 80009a0:	761c      	strb	r4, [r3, #24]
        it6802data->m_ucEccCount_P0=0;
 80009a2:	759c      	strb	r4, [r3, #22]
            it6802data->HDMIIntEvent &=0xF0;;
 80009a4:	f883 205c 	strb.w	r2, [r3, #92]	@ 0x5c
            it6802data->HDMIWaitNo[F_PORT_SEL_0]=0;
 80009a8:	f883 405d 	strb.w	r4, [r3, #93]	@ 0x5d
}
 80009ac:	bd10      	pop	{r4, pc}
 80009ae:	bf00      	nop
 80009b0:	2000039a 	.word	0x2000039a
 80009b4:	20000398 	.word	0x20000398
 80009b8:	20000390 	.word	0x20000390
 80009bc:	200003a8 	.word	0x200003a8

080009c0 <TogglePolarity>:
{
 80009c0:	b538      	push	{r3, r4, r5, lr}
    if(HdmiI2cAddr==IT6802A0_HDMI_ADDR)
 80009c2:	4d40      	ldr	r5, [pc, #256]	@ (8000ac4 <TogglePolarity+0x104>)
{
 80009c4:	4604      	mov	r4, r0
    ucPortSelCurrent = hdmirxrd(REG_RX_051)&B_PORT_SEL;
 80009c6:	2051      	movs	r0, #81	@ 0x51
 80009c8:	f7ff fe06 	bl	80005d8 <hdmirxrd>
    if(HdmiI2cAddr==IT6802A0_HDMI_ADDR)
 80009cc:	782b      	ldrb	r3, [r5, #0]
 80009ce:	2b94      	cmp	r3, #148	@ 0x94
 80009d0:	d103      	bne.n	80009da <TogglePolarity+0x1a>
        if(ucPortSelCurrent !=ucPortSel)
 80009d2:	f000 0001 	and.w	r0, r0, #1
 80009d6:	42a0      	cmp	r0, r4
 80009d8:	d172      	bne.n	8000ac0 <TogglePolarity+0x100>
    if(ucPortSel == F_PORT_SEL_1)
 80009da:	2c01      	cmp	r4, #1
 80009dc:	d140      	bne.n	8000a60 <TogglePolarity+0xa0>
        EQ_PORT1_PRINTF((" ############# TogglePolarity Port 1###############\n"));
 80009de:	483a      	ldr	r0, [pc, #232]	@ (8000ac8 <TogglePolarity+0x108>)
 80009e0:	f004 fdae 	bl	8005540 <puts>
        chgbank(1);
 80009e4:	4620      	mov	r0, r4
 80009e6:	f7ff ff6b 	bl	80008c0 <chgbank>
        hdmirxset(REG_RX_1C5, 0x10, 0x00);
 80009ea:	2200      	movs	r2, #0
 80009ec:	2110      	movs	r1, #16
 80009ee:	20c5      	movs	r0, #197	@ 0xc5
 80009f0:	f7ff fe1a 	bl	8000628 <hdmirxset>
        if(HdmiI2cAddr==IT6802A0_HDMI_ADDR)
 80009f4:	782b      	ldrb	r3, [r5, #0]
 80009f6:	2b94      	cmp	r3, #148	@ 0x94
 80009f8:	d127      	bne.n	8000a4a <TogglePolarity+0x8a>
            if( (hdmirxrd(REG_RX_1B9)&0x80)>>7 )
 80009fa:	20b9      	movs	r0, #185	@ 0xb9
 80009fc:	f7ff fdec 	bl	80005d8 <hdmirxrd>
 8000a00:	0601      	lsls	r1, r0, #24
 8000a02:	d520      	bpl.n	8000a46 <TogglePolarity+0x86>
            hdmirxset(REG_RX_1B9, 0x80, 0x00);    // Change Polarity
 8000a04:	2200      	movs	r2, #0
 8000a06:	2180      	movs	r1, #128	@ 0x80
 8000a08:	20b9      	movs	r0, #185	@ 0xb9
            hdmirxset(REG_RX_1C9, 0x80, 0x80);    // Change Polarity
 8000a0a:	f7ff fe0d 	bl	8000628 <hdmirxset>
        hdmirxset(REG_RX_1C5, 0x10, 0x10);
 8000a0e:	2210      	movs	r2, #16
 8000a10:	20c5      	movs	r0, #197	@ 0xc5
 8000a12:	4611      	mov	r1, r2
 8000a14:	f7ff fe08 	bl	8000628 <hdmirxset>
        chgbank(0);
 8000a18:	2000      	movs	r0, #0
 8000a1a:	f7ff ff51 	bl	80008c0 <chgbank>
        EQ_PORT1_PRINTF((" ############# TogglePolarity Trigger Port 1 EQ ###############\n"));
 8000a1e:	482b      	ldr	r0, [pc, #172]	@ (8000acc <TogglePolarity+0x10c>)
 8000a20:	f004 fd8e 	bl	8005540 <puts>
        hdmirxset(REG_RX_03A, 0xFF, 0x38);
 8000a24:	2238      	movs	r2, #56	@ 0x38
 8000a26:	21ff      	movs	r1, #255	@ 0xff
 8000a28:	203a      	movs	r0, #58	@ 0x3a
 8000a2a:	f7ff fdfd 	bl	8000628 <hdmirxset>
        hdmirxset(REG_RX_03A, 0x04, 0x04);
 8000a2e:	2204      	movs	r2, #4
 8000a30:	203a      	movs	r0, #58	@ 0x3a
 8000a32:	4611      	mov	r1, r2
 8000a34:	f7ff fdf8 	bl	8000628 <hdmirxset>
        hdmirxset(REG_RX_03A, 0x04, 0x00);
 8000a38:	2200      	movs	r2, #0
 8000a3a:	2104      	movs	r1, #4
 8000a3c:	203a      	movs	r0, #58	@ 0x3a
}
 8000a3e:	e8bd 4038 	ldmia.w	sp!, {r3, r4, r5, lr}
        hdmirxset(REG_RX_022, 0x04, 0x00);
 8000a42:	f7ff bdf1 	b.w	8000628 <hdmirxset>
            hdmirxset(REG_RX_1B9, 0x80, 0x80);    // Change Polarity
 8000a46:	2280      	movs	r2, #128	@ 0x80
 8000a48:	e7dd      	b.n	8000a06 <TogglePolarity+0x46>
            if( (hdmirxrd(REG_RX_1C9)&0x80)>>7 )
 8000a4a:	20c9      	movs	r0, #201	@ 0xc9
 8000a4c:	f7ff fdc4 	bl	80005d8 <hdmirxrd>
 8000a50:	0602      	lsls	r2, r0, #24
            hdmirxset(REG_RX_1C9, 0x80, 0x80);    // Change Polarity
 8000a52:	bf53      	iteet	pl
 8000a54:	2280      	movpl	r2, #128	@ 0x80
            hdmirxset(REG_RX_1C9, 0x80, 0x00);    // Change Polarity
 8000a56:	2200      	movmi	r2, #0
 8000a58:	2180      	movmi	r1, #128	@ 0x80
            hdmirxset(REG_RX_1C9, 0x80, 0x80);    // Change Polarity
 8000a5a:	4611      	movpl	r1, r2
 8000a5c:	20c9      	movs	r0, #201	@ 0xc9
 8000a5e:	e7d4      	b.n	8000a0a <TogglePolarity+0x4a>
        EQ_PORT0_PRINTF((" ############# TogglePolarity Port 0###############\n"));
 8000a60:	481b      	ldr	r0, [pc, #108]	@ (8000ad0 <TogglePolarity+0x110>)
 8000a62:	f004 fd6d 	bl	8005540 <puts>
        chgbank(1);
 8000a66:	2001      	movs	r0, #1
 8000a68:	f7ff ff2a 	bl	80008c0 <chgbank>
        hdmirxset(REG_RX_1B5, 0x10, 0x00);
 8000a6c:	2200      	movs	r2, #0
 8000a6e:	2110      	movs	r1, #16
 8000a70:	20b5      	movs	r0, #181	@ 0xb5
 8000a72:	f7ff fdd9 	bl	8000628 <hdmirxset>
        if( (hdmirxrd(REG_RX_1B9)&0x80)>>7 )
 8000a76:	20b9      	movs	r0, #185	@ 0xb9
 8000a78:	f7ff fdae 	bl	80005d8 <hdmirxrd>
 8000a7c:	0603      	lsls	r3, r0, #24
        hdmirxset(REG_RX_1B9, 0x80, 0x80);    // Change Polarity
 8000a7e:	bf55      	itete	pl
 8000a80:	2280      	movpl	r2, #128	@ 0x80
        hdmirxset(REG_RX_1B9, 0x80, 0x00);    // Change Polarity
 8000a82:	2200      	movmi	r2, #0
        hdmirxset(REG_RX_1B9, 0x80, 0x80);    // Change Polarity
 8000a84:	4611      	movpl	r1, r2
        hdmirxset(REG_RX_1B9, 0x80, 0x00);    // Change Polarity
 8000a86:	2180      	movmi	r1, #128	@ 0x80
        hdmirxset(REG_RX_1B9, 0x80, 0x80);    // Change Polarity
 8000a88:	20b9      	movs	r0, #185	@ 0xb9
 8000a8a:	f7ff fdcd 	bl	8000628 <hdmirxset>
        hdmirxset(REG_RX_1B5, 0x10, 0x10);
 8000a8e:	2210      	movs	r2, #16
 8000a90:	20b5      	movs	r0, #181	@ 0xb5
 8000a92:	4611      	mov	r1, r2
 8000a94:	f7ff fdc8 	bl	8000628 <hdmirxset>
        chgbank(0);
 8000a98:	2000      	movs	r0, #0
 8000a9a:	f7ff ff11 	bl	80008c0 <chgbank>
        EQ_PORT0_PRINTF((" ############# TogglePolarity Trigger Port 0 EQ ###############\n"));
 8000a9e:	480d      	ldr	r0, [pc, #52]	@ (8000ad4 <TogglePolarity+0x114>)
 8000aa0:	f004 fd4e 	bl	8005540 <puts>
        hdmirxset(REG_RX_022, 0xFF, 0x38);    //07-04
 8000aa4:	2238      	movs	r2, #56	@ 0x38
 8000aa6:	21ff      	movs	r1, #255	@ 0xff
 8000aa8:	2022      	movs	r0, #34	@ 0x22
 8000aaa:	f7ff fdbd 	bl	8000628 <hdmirxset>
        hdmirxset(REG_RX_022, 0x04, 0x04);
 8000aae:	2204      	movs	r2, #4
 8000ab0:	2022      	movs	r0, #34	@ 0x22
 8000ab2:	4611      	mov	r1, r2
 8000ab4:	f7ff fdb8 	bl	8000628 <hdmirxset>
        hdmirxset(REG_RX_022, 0x04, 0x00);
 8000ab8:	2200      	movs	r2, #0
 8000aba:	2104      	movs	r1, #4
 8000abc:	2022      	movs	r0, #34	@ 0x22
 8000abe:	e7be      	b.n	8000a3e <TogglePolarity+0x7e>
}
 8000ac0:	bd38      	pop	{r3, r4, r5, pc}
 8000ac2:	bf00      	nop
 8000ac4:	200001cc 	.word	0x200001cc
 8000ac8:	08006377 	.word	0x08006377
 8000acc:	080063ab 	.word	0x080063ab
 8000ad0:	080063eb 	.word	0x080063eb
 8000ad4:	0800641f 	.word	0x0800641f

08000ad8 <TMDSCheck>:
{
 8000ad8:	e92d 41f0 	stmdb	sp!, {r4, r5, r6, r7, r8, lr}
 8000adc:	4605      	mov	r5, r0
    EQ_PORT0_PRINTF(("TMDSCheck() !!!\n"));
 8000ade:	489c      	ldr	r0, [pc, #624]	@ (8000d50 <TMDSCheck+0x278>)
 8000ae0:	f004 fd2e 	bl	8005540 <puts>
    if(ucPortSel == F_PORT_SEL_1)
 8000ae4:	2d01      	cmp	r5, #1
 8000ae6:	4f9b      	ldr	r7, [pc, #620]	@ (8000d54 <TMDSCheck+0x27c>)
 8000ae8:	4e9b      	ldr	r6, [pc, #620]	@ (8000d58 <TMDSCheck+0x280>)
 8000aea:	d16e      	bne.n	8000bca <TMDSCheck+0xf2>
        ucClk = hdmirxrd(REG_RX_092);
 8000aec:	2092      	movs	r0, #146	@ 0x92
 8000aee:	f7ff fd73 	bl	80005d8 <hdmirxrd>
 8000af2:	4605      	mov	r5, r0
        rddata = hdmirxrd(0x90);
 8000af4:	2090      	movs	r0, #144	@ 0x90
 8000af6:	f7ff fd6f 	bl	80005d8 <hdmirxrd>
        if(ucClk != 0)
 8000afa:	b14d      	cbz	r5, 8000b10 <TMDSCheck+0x38>
        if( rddata&0x04 )
 8000afc:	0744      	lsls	r4, r0, #29
 8000afe:	d54f      	bpl.n	8000ba0 <TMDSCheck+0xc8>
            ucTMDSClk=2*RCLKVALUE*256/ucClk;
 8000b00:	f44f 54c0 	mov.w	r4, #6144	@ 0x1800
            ucTMDSClk=RCLKVALUE*256/ucClk;
 8000b04:	fbb4 f4f5 	udiv	r4, r4, r5
        EQ_PORT1_PRINTF((" Port 1 TMDS CLK  = %d\n",(int) ucTMDSClk));
 8000b08:	4894      	ldr	r0, [pc, #592]	@ (8000d5c <TMDSCheck+0x284>)
 8000b0a:	4621      	mov	r1, r4
 8000b0c:	f004 fcb0 	bl	8005470 <iprintf>
        if(HdmiI2cAddr==IT6802A0_HDMI_ADDR)
 8000b10:	783b      	ldrb	r3, [r7, #0]
 8000b12:	2b94      	cmp	r3, #148	@ 0x94
 8000b14:	d107      	bne.n	8000b26 <TMDSCheck+0x4e>
            if(ucTMDSClk<TMDSCLKVALUE_480P || ucTMDSClk > TMDSCLKVALUE_1080P )
 8000b16:	3c23      	subs	r4, #35	@ 0x23
 8000b18:	2c7d      	cmp	r4, #125	@ 0x7d
                hdmirxwr(REG_RX_038,0x00);    // Dr. Liu suggestion to 0x00
 8000b1a:	bf8c      	ite	hi
 8000b1c:	2100      	movhi	r1, #0
                hdmirxwr(REG_RX_038,0x3F);    // Dr. Liu suggestion to 0x3F
 8000b1e:	213f      	movls	r1, #63	@ 0x3f
 8000b20:	2038      	movs	r0, #56	@ 0x38
 8000b22:	f7ff fd6b 	bl	80005fc <hdmirxwr>
        EQ_PORT1_PRINTF((" HDMI Reg038  = %X\n",(int) hdmirxrd(REG_RX_038)));
 8000b26:	2038      	movs	r0, #56	@ 0x38
 8000b28:	f7ff fd56 	bl	80005d8 <hdmirxrd>
 8000b2c:	4601      	mov	r1, r0
 8000b2e:	488c      	ldr	r0, [pc, #560]	@ (8000d60 <TMDSCheck+0x288>)
 8000b30:	f004 fc9e 	bl	8005470 <iprintf>
        chgbank(1);
 8000b34:	2001      	movs	r0, #1
 8000b36:	f7ff fec3 	bl	80008c0 <chgbank>
        EQ_PORT1_PRINTF((" HDMI Reg1C1  = %X ,Reg1C2  = %X\n",hdmirxrd(REG_RX_1C1),hdmirxrd(REG_RX_1C2)));
 8000b3a:	20c1      	movs	r0, #193	@ 0xc1
 8000b3c:	f7ff fd4c 	bl	80005d8 <hdmirxrd>
 8000b40:	4604      	mov	r4, r0
 8000b42:	20c2      	movs	r0, #194	@ 0xc2
 8000b44:	f7ff fd48 	bl	80005d8 <hdmirxrd>
 8000b48:	4621      	mov	r1, r4
 8000b4a:	4602      	mov	r2, r0
 8000b4c:	4885      	ldr	r0, [pc, #532]	@ (8000d64 <TMDSCheck+0x28c>)
 8000b4e:	f004 fc8f 	bl	8005470 <iprintf>
        chgbank(0);
 8000b52:	2000      	movs	r0, #0
 8000b54:	f7ff feb4 	bl	80008c0 <chgbank>
        if(ucPortAMPOverWrite[1]==0)    // 2013-0801
 8000b58:	7875      	ldrb	r5, [r6, #1]
 8000b5a:	bb45      	cbnz	r5, 8000bae <TMDSCheck+0xd6>
            chgbank(1);
 8000b5c:	2001      	movs	r0, #1
 8000b5e:	f7ff feaf 	bl	80008c0 <chgbank>
            rddata=hdmirxrd(REG_RX_1DC);
 8000b62:	20dc      	movs	r0, #220	@ 0xdc
 8000b64:	f7ff fd38 	bl	80005d8 <hdmirxrd>
 8000b68:	4604      	mov	r4, r0
            chgbank(0);
 8000b6a:	4628      	mov	r0, r5
 8000b6c:	f7ff fea8 	bl	80008c0 <chgbank>
            if(rddata==0)
 8000b70:	b9a4      	cbnz	r4, 8000b9c <TMDSCheck+0xc4>
                EQ_PORT1_PRINTF((" ############# Trigger Port 1 EQ ###############\n"));
 8000b72:	487d      	ldr	r0, [pc, #500]	@ (8000d68 <TMDSCheck+0x290>)
 8000b74:	f004 fce4 	bl	8005540 <puts>
                hdmirxset(REG_RX_03A, 0xFF, 0x38);    //07-04
 8000b78:	2238      	movs	r2, #56	@ 0x38
 8000b7a:	21ff      	movs	r1, #255	@ 0xff
 8000b7c:	203a      	movs	r0, #58	@ 0x3a
 8000b7e:	f7ff fd53 	bl	8000628 <hdmirxset>
                hdmirxset(REG_RX_03A, 0x04, 0x04);
 8000b82:	2204      	movs	r2, #4
 8000b84:	203a      	movs	r0, #58	@ 0x3a
 8000b86:	4611      	mov	r1, r2
 8000b88:	f7ff fd4e 	bl	8000628 <hdmirxset>
                hdmirxset(REG_RX_03A, 0x04, 0x00);
 8000b8c:	4622      	mov	r2, r4
 8000b8e:	2104      	movs	r1, #4
 8000b90:	203a      	movs	r0, #58	@ 0x3a
 8000b92:	f7ff fd49 	bl	8000628 <hdmirxset>
                it6802data->ToggleCount[F_PORT_SEL_1] = 0;
 8000b96:	4b75      	ldr	r3, [pc, #468]	@ (8000d6c <TMDSCheck+0x294>)
 8000b98:	f883 4054 	strb.w	r4, [r3, #84]	@ 0x54
}
 8000b9c:	e8bd 81f0 	ldmia.w	sp!, {r4, r5, r6, r7, r8, pc}
        else if( rddata&0x08 )
 8000ba0:	0700      	lsls	r0, r0, #28
            ucTMDSClk=4*RCLKVALUE*256/ucClk;
 8000ba2:	bf4c      	ite	mi
 8000ba4:	f44f 5440 	movmi.w	r4, #12288	@ 0x3000
            ucTMDSClk=RCLKVALUE*256/ucClk;
 8000ba8:	f44f 6440 	movpl.w	r4, #3072	@ 0xc00
 8000bac:	e7aa      	b.n	8000b04 <TMDSCheck+0x2c>
                EQ_PORT1_PRINTF((" ############# B_PORT1_TimingChgEvent###############\n"));
 8000bae:	4870      	ldr	r0, [pc, #448]	@ (8000d70 <TMDSCheck+0x298>)
 8000bb0:	f004 fcc6 	bl	8005540 <puts>
                it6802data->HDMIIntEvent |= (B_PORT1_TimingChgEvent);
 8000bb4:	4b6d      	ldr	r3, [pc, #436]	@ (8000d6c <TMDSCheck+0x294>)
 8000bb6:	f893 205c 	ldrb.w	r2, [r3, #92]	@ 0x5c
 8000bba:	f042 0250 	orr.w	r2, r2, #80	@ 0x50
 8000bbe:	f883 205c 	strb.w	r2, [r3, #92]	@ 0x5c
                it6802data->HDMIWaitNo[1]=MAX_TMDS_WAITNO;
 8000bc2:	2203      	movs	r2, #3
 8000bc4:	f883 205e 	strb.w	r2, [r3, #94]	@ 0x5e
 8000bc8:	e7e8      	b.n	8000b9c <TMDSCheck+0xc4>
        EQ_PORT0_PRINTF((" HDMI Reg90  = %X ,Reg91  = %X\n",(int) hdmirxrd(0x90),(int) hdmirxrd(0x91)));
 8000bca:	2090      	movs	r0, #144	@ 0x90
 8000bcc:	f7ff fd04 	bl	80005d8 <hdmirxrd>
 8000bd0:	4605      	mov	r5, r0
 8000bd2:	2091      	movs	r0, #145	@ 0x91
 8000bd4:	f7ff fd00 	bl	80005d8 <hdmirxrd>
 8000bd8:	4629      	mov	r1, r5
 8000bda:	4602      	mov	r2, r0
 8000bdc:	4865      	ldr	r0, [pc, #404]	@ (8000d74 <TMDSCheck+0x29c>)
 8000bde:	f004 fc47 	bl	8005470 <iprintf>
        ucClk = hdmirxrd(REG_RX_091);
 8000be2:	2091      	movs	r0, #145	@ 0x91
 8000be4:	f7ff fcf8 	bl	80005d8 <hdmirxrd>
 8000be8:	4605      	mov	r5, r0
        rddata = hdmirxrd(0x90);
 8000bea:	2090      	movs	r0, #144	@ 0x90
 8000bec:	f7ff fcf4 	bl	80005d8 <hdmirxrd>
        if(ucClk != 0)
 8000bf0:	b14d      	cbz	r5, 8000c06 <TMDSCheck+0x12e>
        if( rddata&0x01 )
 8000bf2:	07c1      	lsls	r1, r0, #31
 8000bf4:	d57e      	bpl.n	8000cf4 <TMDSCheck+0x21c>
            ucTMDSClk=2*RCLKVALUE*256/ucClk;
 8000bf6:	f44f 54c0 	mov.w	r4, #6144	@ 0x1800
            ucTMDSClk=RCLKVALUE*256/ucClk;
 8000bfa:	fbb4 f4f5 	udiv	r4, r4, r5
        EQ_PORT0_PRINTF((" Port 0 TMDS CLK  = %X\n",(int) ucTMDSClk));
 8000bfe:	485e      	ldr	r0, [pc, #376]	@ (8000d78 <TMDSCheck+0x2a0>)
 8000c00:	4621      	mov	r1, r4
 8000c02:	f004 fc35 	bl	8005470 <iprintf>
    if(HdmiI2cAddr==IT6802A0_HDMI_ADDR)
 8000c06:	783b      	ldrb	r3, [r7, #0]
 8000c08:	2b94      	cmp	r3, #148	@ 0x94
 8000c0a:	d12d      	bne.n	8000c68 <TMDSCheck+0x190>
            if(hdmirxrd(REG_RX_P0_SYS_STATUS) & (B_P0_MxL_MODE))
 8000c0c:	200a      	movs	r0, #10
 8000c0e:	f7ff fce3 	bl	80005d8 <hdmirxrd>
 8000c12:	f010 0540 	ands.w	r5, r0, #64	@ 0x40
                chgbank(1);
 8000c16:	f04f 0001 	mov.w	r0, #1
            if(hdmirxrd(REG_RX_P0_SYS_STATUS) & (B_P0_MxL_MODE))
 8000c1a:	d072      	beq.n	8000d02 <TMDSCheck+0x22a>
                chgbank(1);
 8000c1c:	f7ff fe50 	bl	80008c0 <chgbank>
                hdmirxset(REG_RX_1B1,0x20,0x20);//Reg1b1[5] = 1 for enable over-write
 8000c20:	2220      	movs	r2, #32
 8000c22:	20b1      	movs	r0, #177	@ 0xb1
 8000c24:	4611      	mov	r1, r2
 8000c26:	f7ff fcff 	bl	8000628 <hdmirxset>
                hdmirxset(REG_RX_1B2,0x07,0x01);    // default 0x04 , change to 0x01
 8000c2a:	2201      	movs	r2, #1
 8000c2c:	2107      	movs	r1, #7
 8000c2e:	20b2      	movs	r0, #178	@ 0xb2
 8000c30:	f7ff fcfa 	bl	8000628 <hdmirxset>
                EQ_PORT0_PRINTF((" HDMI Reg1B1  = %X ,Reg1B2  = %X\n",(int) hdmirxrd(REG_RX_1B1),(int) hdmirxrd(REG_RX_1B2)));
 8000c34:	20b1      	movs	r0, #177	@ 0xb1
 8000c36:	f7ff fccf 	bl	80005d8 <hdmirxrd>
 8000c3a:	4605      	mov	r5, r0
 8000c3c:	20b2      	movs	r0, #178	@ 0xb2
 8000c3e:	f7ff fccb 	bl	80005d8 <hdmirxrd>
 8000c42:	4629      	mov	r1, r5
 8000c44:	4602      	mov	r2, r0
 8000c46:	484d      	ldr	r0, [pc, #308]	@ (8000d7c <TMDSCheck+0x2a4>)
 8000c48:	f004 fc12 	bl	8005470 <iprintf>
                chgbank(0);
 8000c4c:	2000      	movs	r0, #0
                chgbank(0);
 8000c4e:	f7ff fe37 	bl	80008c0 <chgbank>
    if(HdmiI2cAddr==IT6802A0_HDMI_ADDR)
 8000c52:	783b      	ldrb	r3, [r7, #0]
 8000c54:	2b94      	cmp	r3, #148	@ 0x94
 8000c56:	d107      	bne.n	8000c68 <TMDSCheck+0x190>
        if(ucTMDSClk<TMDSCLKVALUE_480P || ucTMDSClk > TMDSCLKVALUE_1080P )
 8000c58:	3c23      	subs	r4, #35	@ 0x23
 8000c5a:	2c7d      	cmp	r4, #125	@ 0x7d
            hdmirxwr(REG_RX_020,0x00);    // Dr. Liu suggestion to 0x00
 8000c5c:	bf8c      	ite	hi
 8000c5e:	2100      	movhi	r1, #0
            hdmirxwr(REG_RX_020,0x3F);    // Dr. Liu suggestion to 0x3F
 8000c60:	213f      	movls	r1, #63	@ 0x3f
 8000c62:	2020      	movs	r0, #32
 8000c64:	f7ff fcca 	bl	80005fc <hdmirxwr>
        EQ_PORT0_PRINTF((" HDMI Reg020  = %X\n",(int) hdmirxrd(REG_RX_020)));
 8000c68:	2020      	movs	r0, #32
 8000c6a:	f7ff fcb5 	bl	80005d8 <hdmirxrd>
 8000c6e:	4601      	mov	r1, r0
 8000c70:	4843      	ldr	r0, [pc, #268]	@ (8000d80 <TMDSCheck+0x2a8>)
 8000c72:	f004 fbfd 	bl	8005470 <iprintf>
        if(hdmirxrd(REG_RX_P0_SYS_STATUS) & (B_P0_MxL_MODE))
 8000c76:	200a      	movs	r0, #10
 8000c78:	f7ff fcae 	bl	80005d8 <hdmirxrd>
 8000c7c:	0643      	lsls	r3, r0, #25
 8000c7e:	d50f      	bpl.n	8000ca0 <TMDSCheck+0x1c8>
            chgbank(1);
 8000c80:	2001      	movs	r0, #1
 8000c82:	f7ff fe1d 	bl	80008c0 <chgbank>
            hdmirxset(REG_RX_1B8,0x80,0x00);    // [7] Reg_HWENHYS = 0
 8000c86:	2200      	movs	r2, #0
 8000c88:	2180      	movs	r1, #128	@ 0x80
 8000c8a:	20b8      	movs	r0, #184	@ 0xb8
 8000c8c:	f7ff fccc 	bl	8000628 <hdmirxset>
            hdmirxset(REG_RX_1B6,0x07,0x00);    // [2:0]Reg_P0_ENHYS = 00 for MxL mode only  [2:0]Reg_P0_ENHYS = 00 for disable ENHYS
 8000c90:	2200      	movs	r2, #0
 8000c92:	2107      	movs	r1, #7
 8000c94:	20b6      	movs	r0, #182	@ 0xb6
 8000c96:	f7ff fcc7 	bl	8000628 <hdmirxset>
            chgbank(0);
 8000c9a:	2000      	movs	r0, #0
 8000c9c:	f7ff fe10 	bl	80008c0 <chgbank>
        if(ucPortAMPOverWrite[0]==0)    // 2013-0801
 8000ca0:	7836      	ldrb	r6, [r6, #0]
 8000ca2:	4c32      	ldr	r4, [pc, #200]	@ (8000d6c <TMDSCheck+0x294>)
 8000ca4:	2e00      	cmp	r6, #0
 8000ca6:	d146      	bne.n	8000d36 <TMDSCheck+0x25e>
            chgbank(1);
 8000ca8:	2001      	movs	r0, #1
 8000caa:	f7ff fe09 	bl	80008c0 <chgbank>
            rddata=hdmirxrd(REG_RX_1D4);
 8000cae:	20d4      	movs	r0, #212	@ 0xd4
 8000cb0:	f7ff fc92 	bl	80005d8 <hdmirxrd>
 8000cb4:	4605      	mov	r5, r0
            chgbank(0);
 8000cb6:	4630      	mov	r0, r6
 8000cb8:	f7ff fe02 	bl	80008c0 <chgbank>
            if(rddata==0)
 8000cbc:	b99d      	cbnz	r5, 8000ce6 <TMDSCheck+0x20e>
                EQ_PORT0_PRINTF((" ############# Trigger Port 0 EQ ###############\n"));
 8000cbe:	4831      	ldr	r0, [pc, #196]	@ (8000d84 <TMDSCheck+0x2ac>)
 8000cc0:	f004 fc3e 	bl	8005540 <puts>
                hdmirxset(REG_RX_022, 0xFF, 0x38);    //07-04
 8000cc4:	2238      	movs	r2, #56	@ 0x38
 8000cc6:	21ff      	movs	r1, #255	@ 0xff
 8000cc8:	2022      	movs	r0, #34	@ 0x22
 8000cca:	f7ff fcad 	bl	8000628 <hdmirxset>
                hdmirxset(REG_RX_022, 0x04, 0x04);
 8000cce:	2204      	movs	r2, #4
 8000cd0:	2022      	movs	r0, #34	@ 0x22
 8000cd2:	4611      	mov	r1, r2
 8000cd4:	f7ff fca8 	bl	8000628 <hdmirxset>
                hdmirxset(REG_RX_022, 0x04, 0x00);
 8000cd8:	462a      	mov	r2, r5
 8000cda:	2104      	movs	r1, #4
 8000cdc:	2022      	movs	r0, #34	@ 0x22
 8000cde:	f7ff fca3 	bl	8000628 <hdmirxset>
                it6802data->ToggleCount[F_PORT_SEL_0] = 0;
 8000ce2:	f884 5053 	strb.w	r5, [r4, #83]	@ 0x53
            it6802data->HDMIIntEvent &= ~(B_PORT0_TMDSEvent|B_PORT0_Waiting|B_PORT0_TimingChgEvent);
 8000ce6:	f894 305c 	ldrb.w	r3, [r4, #92]	@ 0x5c
 8000cea:	f023 0307 	bic.w	r3, r3, #7
 8000cee:	f884 305c 	strb.w	r3, [r4, #92]	@ 0x5c
 8000cf2:	e753      	b.n	8000b9c <TMDSCheck+0xc4>
        else if( rddata&0x02 )
 8000cf4:	0782      	lsls	r2, r0, #30
            ucTMDSClk=4*RCLKVALUE*256/ucClk;
 8000cf6:	bf4c      	ite	mi
 8000cf8:	f44f 5440 	movmi.w	r4, #12288	@ 0x3000
            ucTMDSClk=RCLKVALUE*256/ucClk;
 8000cfc:	f44f 6440 	movpl.w	r4, #3072	@ 0xc00
 8000d00:	e77b      	b.n	8000bfa <TMDSCheck+0x122>
                chgbank(1);
 8000d02:	f7ff fddd 	bl	80008c0 <chgbank>
                hdmirxset(REG_RX_1B1,0x20,0x00);//Reg1b1[5] = 0 for disable over-write
 8000d06:	462a      	mov	r2, r5
 8000d08:	2120      	movs	r1, #32
 8000d0a:	20b1      	movs	r0, #177	@ 0xb1
 8000d0c:	f7ff fc8c 	bl	8000628 <hdmirxset>
                hdmirxset(REG_RX_1B2,0x07,0x04);    // default 0x04
 8000d10:	2204      	movs	r2, #4
 8000d12:	2107      	movs	r1, #7
 8000d14:	20b2      	movs	r0, #178	@ 0xb2
 8000d16:	f7ff fc87 	bl	8000628 <hdmirxset>
                EQ_PORT0_PRINTF((" HDMI Reg1B1  = %X ,Reg1B2  = %X\n",(int) hdmirxrd(REG_RX_1B1),(int) hdmirxrd(REG_RX_1B2)));
 8000d1a:	20b1      	movs	r0, #177	@ 0xb1
 8000d1c:	f7ff fc5c 	bl	80005d8 <hdmirxrd>
 8000d20:	4680      	mov	r8, r0
 8000d22:	20b2      	movs	r0, #178	@ 0xb2
 8000d24:	f7ff fc58 	bl	80005d8 <hdmirxrd>
 8000d28:	4641      	mov	r1, r8
 8000d2a:	4602      	mov	r2, r0
 8000d2c:	4813      	ldr	r0, [pc, #76]	@ (8000d7c <TMDSCheck+0x2a4>)
 8000d2e:	f004 fb9f 	bl	8005470 <iprintf>
                chgbank(0);
 8000d32:	4628      	mov	r0, r5
 8000d34:	e78b      	b.n	8000c4e <TMDSCheck+0x176>
                EQ_PORT0_PRINTF((" ############# B_PORT0_TimingChgEvent###############\n"));
 8000d36:	4814      	ldr	r0, [pc, #80]	@ (8000d88 <TMDSCheck+0x2b0>)
 8000d38:	f004 fc02 	bl	8005540 <puts>
                it6802data->HDMIIntEvent |= (B_PORT0_TimingChgEvent);
 8000d3c:	f894 305c 	ldrb.w	r3, [r4, #92]	@ 0x5c
 8000d40:	f043 0305 	orr.w	r3, r3, #5
 8000d44:	f884 305c 	strb.w	r3, [r4, #92]	@ 0x5c
                it6802data->HDMIWaitNo[0]=MAX_TMDS_WAITNO;
 8000d48:	2303      	movs	r3, #3
 8000d4a:	f884 305d 	strb.w	r3, [r4, #93]	@ 0x5d
}
 8000d4e:	e725      	b.n	8000b9c <TMDSCheck+0xc4>
 8000d50:	0800645f 	.word	0x0800645f
 8000d54:	200001cc 	.word	0x200001cc
 8000d58:	2000039a 	.word	0x2000039a
 8000d5c:	0800646f 	.word	0x0800646f
 8000d60:	08006487 	.word	0x08006487
 8000d64:	0800649b 	.word	0x0800649b
 8000d68:	080064bd 	.word	0x080064bd
 8000d6c:	200003a8 	.word	0x200003a8
 8000d70:	080064ee 	.word	0x080064ee
 8000d74:	08006523 	.word	0x08006523
 8000d78:	08006543 	.word	0x08006543
 8000d7c:	0800655b 	.word	0x0800655b
 8000d80:	0800657d 	.word	0x0800657d
 8000d84:	08006591 	.word	0x08006591
 8000d88:	080065c2 	.word	0x080065c2

08000d8c <OverWriteAmpValue2EQ>:
{
 8000d8c:	b538      	push	{r3, r4, r5, lr}
 8000d8e:	4605      	mov	r5, r0
    EQ_DEBUG_PRINTF((" 111111111111111111 OverWriteAmpValue2EQ 111111111111111111111111111111\n"));
 8000d90:	4890      	ldr	r0, [pc, #576]	@ (8000fd4 <OverWriteAmpValue2EQ+0x248>)
 8000d92:	f004 fbd5 	bl	8005540 <puts>
    EQ_DEBUG_PRINTF((" 111111111111111111 OverWriteAmpValue2EQ 111111111111111111111111111111\n"));
 8000d96:	488f      	ldr	r0, [pc, #572]	@ (8000fd4 <OverWriteAmpValue2EQ+0x248>)
 8000d98:	f004 fbd2 	bl	8005540 <puts>
    EQ_DEBUG_PRINTF((" 111111111111111111 OverWriteAmpValue2EQ 111111111111111111111111111111\n"));
 8000d9c:	488d      	ldr	r0, [pc, #564]	@ (8000fd4 <OverWriteAmpValue2EQ+0x248>)
 8000d9e:	f004 fbcf 	bl	8005540 <puts>
    EQ_DEBUG_PRINTF((" 111111111111111111 OverWriteAmpValue2EQ 111111111111111111111111111111\n"));
 8000da2:	488c      	ldr	r0, [pc, #560]	@ (8000fd4 <OverWriteAmpValue2EQ+0x248>)
 8000da4:	f004 fbcc 	bl	8005540 <puts>
    EQ_DEBUG_PRINTF((" 111111111111111111 OverWriteAmpValue2EQ 111111111111111111111111111111\n"));
 8000da8:	488a      	ldr	r0, [pc, #552]	@ (8000fd4 <OverWriteAmpValue2EQ+0x248>)
 8000daa:	f004 fbc9 	bl	8005540 <puts>
    EQ_DEBUG_PRINTF((" 111111111111111111 OverWriteAmpValue2EQ 111111111111111111111111111111\n"));
 8000dae:	4889      	ldr	r0, [pc, #548]	@ (8000fd4 <OverWriteAmpValue2EQ+0x248>)
 8000db0:	f004 fbc6 	bl	8005540 <puts>
    if(ucPortSel == F_PORT_SEL_1)
 8000db4:	2d01      	cmp	r5, #1
 8000db6:	4c88      	ldr	r4, [pc, #544]	@ (8000fd8 <OverWriteAmpValue2EQ+0x24c>)
 8000db8:	d164      	bne.n	8000e84 <OverWriteAmpValue2EQ+0xf8>
        if((ucPortAMPValid[1]&0x3F)==0x3F)
 8000dba:	7864      	ldrb	r4, [r4, #1]
 8000dbc:	f004 043f 	and.w	r4, r4, #63	@ 0x3f
 8000dc0:	2c3f      	cmp	r4, #63	@ 0x3f
 8000dc2:	f040 8105 	bne.w	8000fd0 <OverWriteAmpValue2EQ+0x244>
            ucEQMode[F_PORT_SEL_1] = 0; // 0 for Auto Mode
 8000dc6:	2200      	movs	r2, #0
            ucPortAMPOverWrite[F_PORT_SEL_1]=1;    //2013-0801
 8000dc8:	4b84      	ldr	r3, [pc, #528]	@ (8000fdc <OverWriteAmpValue2EQ+0x250>)
            EQ_PORT1_PRINTF(("#### REG_RX_03E = 0x%X ####\n",(int) hdmirxrd(REG_RX_03E)));
 8000dca:	203e      	movs	r0, #62	@ 0x3e
            ucPortAMPOverWrite[F_PORT_SEL_1]=1;    //2013-0801
 8000dcc:	705d      	strb	r5, [r3, #1]
            ucEQMode[F_PORT_SEL_1] = 0; // 0 for Auto Mode
 8000dce:	4b84      	ldr	r3, [pc, #528]	@ (8000fe0 <OverWriteAmpValue2EQ+0x254>)
 8000dd0:	705a      	strb	r2, [r3, #1]
            EQ_PORT1_PRINTF(("#### REG_RX_03E = 0x%X ####\n",(int) hdmirxrd(REG_RX_03E)));
 8000dd2:	f7ff fc01 	bl	80005d8 <hdmirxrd>
 8000dd6:	4601      	mov	r1, r0
 8000dd8:	4882      	ldr	r0, [pc, #520]	@ (8000fe4 <OverWriteAmpValue2EQ+0x258>)
 8000dda:	f004 fb49 	bl	8005470 <iprintf>
            hdmirxset(REG_RX_03E,0x20,0x20);    //Manually set RS Value
 8000dde:	2220      	movs	r2, #32
 8000de0:	203e      	movs	r0, #62	@ 0x3e
 8000de2:	4611      	mov	r1, r2
 8000de4:	f7ff fc20 	bl	8000628 <hdmirxset>
            EQ_PORT1_PRINTF(("#### REG_RX_03E = 0x%X ####\n",(int) hdmirxrd(REG_RX_03E)));
 8000de8:	203e      	movs	r0, #62	@ 0x3e
 8000dea:	f7ff fbf5 	bl	80005d8 <hdmirxrd>
 8000dee:	4601      	mov	r1, r0
 8000df0:	487c      	ldr	r0, [pc, #496]	@ (8000fe4 <OverWriteAmpValue2EQ+0x258>)
 8000df2:	f004 fb3d 	bl	8005470 <iprintf>
            if(ucChannelB[F_PORT_SEL_1]  < MinEQValue )
 8000df6:	4b7c      	ldr	r3, [pc, #496]	@ (8000fe8 <OverWriteAmpValue2EQ+0x25c>)
            hdmirxwr(REG_RX_03F,(ucChannelB[F_PORT_SEL_1] & 0x7F));
 8000df8:	4620      	mov	r0, r4
            if(ucChannelB[F_PORT_SEL_1]  < MinEQValue )
 8000dfa:	7859      	ldrb	r1, [r3, #1]
 8000dfc:	2902      	cmp	r1, #2
            hdmirxwr(REG_RX_03F,MinEQValue);
 8000dfe:	bf94      	ite	ls
 8000e00:	2103      	movls	r1, #3
            hdmirxwr(REG_RX_03F,(ucChannelB[F_PORT_SEL_1] & 0x7F));
 8000e02:	f001 017f 	andhi.w	r1, r1, #127	@ 0x7f
 8000e06:	f7ff fbf9 	bl	80005fc <hdmirxwr>
            if(ucChannelG[F_PORT_SEL_1]  < MinEQValue )
 8000e0a:	4b78      	ldr	r3, [pc, #480]	@ (8000fec <OverWriteAmpValue2EQ+0x260>)
            hdmirxwr(REG_RX_040,(ucChannelG[F_PORT_SEL_1] & 0x7F));
 8000e0c:	2040      	movs	r0, #64	@ 0x40
            if(ucChannelG[F_PORT_SEL_1]  < MinEQValue )
 8000e0e:	7859      	ldrb	r1, [r3, #1]
 8000e10:	2902      	cmp	r1, #2
            hdmirxwr(REG_RX_040,MinEQValue);
 8000e12:	bf94      	ite	ls
 8000e14:	2103      	movls	r1, #3
            hdmirxwr(REG_RX_040,(ucChannelG[F_PORT_SEL_1] & 0x7F));
 8000e16:	f001 017f 	andhi.w	r1, r1, #127	@ 0x7f
 8000e1a:	f7ff fbef 	bl	80005fc <hdmirxwr>
            if(ucChannelR[F_PORT_SEL_1]  < MinEQValue )
 8000e1e:	4b74      	ldr	r3, [pc, #464]	@ (8000ff0 <OverWriteAmpValue2EQ+0x264>)
            hdmirxwr(REG_RX_041,(ucChannelR[F_PORT_SEL_1] & 0x7F));
 8000e20:	2041      	movs	r0, #65	@ 0x41
            if(ucChannelR[F_PORT_SEL_1]  < MinEQValue )
 8000e22:	7859      	ldrb	r1, [r3, #1]
 8000e24:	2902      	cmp	r1, #2
            hdmirxwr(REG_RX_041,MinEQValue);
 8000e26:	bf94      	ite	ls
 8000e28:	2103      	movls	r1, #3
            hdmirxwr(REG_RX_041,(ucChannelR[F_PORT_SEL_1] & 0x7F));
 8000e2a:	f001 017f 	andhi.w	r1, r1, #127	@ 0x7f
 8000e2e:	f7ff fbe5 	bl	80005fc <hdmirxwr>
            it6802data->HDMIIntEvent &= ~(B_PORT1_TMDSEvent|B_PORT1_Waiting|B_PORT1_TimingChgEvent);
 8000e32:	4a70      	ldr	r2, [pc, #448]	@ (8000ff4 <OverWriteAmpValue2EQ+0x268>)
            EQ_PORT1_PRINTF((" ############# Over-Write port 1 EQ###############\n"));
 8000e34:	4870      	ldr	r0, [pc, #448]	@ (8000ff8 <OverWriteAmpValue2EQ+0x26c>)
            it6802data->HDMIIntEvent &= ~(B_PORT1_TMDSEvent|B_PORT1_Waiting|B_PORT1_TimingChgEvent);
 8000e36:	f892 305c 	ldrb.w	r3, [r2, #92]	@ 0x5c
 8000e3a:	f023 0370 	bic.w	r3, r3, #112	@ 0x70
 8000e3e:	f882 305c 	strb.w	r3, [r2, #92]	@ 0x5c
            EQ_PORT1_PRINTF((" ############# Over-Write port 1 EQ###############\n"));
 8000e42:	f004 fb7d 	bl	8005540 <puts>
            EQ_PORT1_PRINTF((" ############# B port 1 Reg03F = 0x%X  ###############\n",(int) hdmirxrd(REG_RX_03F)));
 8000e46:	203f      	movs	r0, #63	@ 0x3f
 8000e48:	f7ff fbc6 	bl	80005d8 <hdmirxrd>
 8000e4c:	4601      	mov	r1, r0
 8000e4e:	486b      	ldr	r0, [pc, #428]	@ (8000ffc <OverWriteAmpValue2EQ+0x270>)
 8000e50:	f004 fb0e 	bl	8005470 <iprintf>
            EQ_PORT1_PRINTF((" ############# G port 1 Reg040 = 0x%X  ###############\n",(int) hdmirxrd(REG_RX_040)));
 8000e54:	2040      	movs	r0, #64	@ 0x40
 8000e56:	f7ff fbbf 	bl	80005d8 <hdmirxrd>
 8000e5a:	4601      	mov	r1, r0
 8000e5c:	4868      	ldr	r0, [pc, #416]	@ (8001000 <OverWriteAmpValue2EQ+0x274>)
 8000e5e:	f004 fb07 	bl	8005470 <iprintf>
            EQ_PORT1_PRINTF((" ############# R port 1 Reg041 = 0x%X  ###############\n",(int) hdmirxrd(REG_RX_041)));
 8000e62:	2041      	movs	r0, #65	@ 0x41
 8000e64:	f7ff fbb8 	bl	80005d8 <hdmirxrd>
 8000e68:	4601      	mov	r1, r0
 8000e6a:	4866      	ldr	r0, [pc, #408]	@ (8001004 <OverWriteAmpValue2EQ+0x278>)
 8000e6c:	f004 fb00 	bl	8005470 <iprintf>
            hdmirxwr(REG_RX_03A, 0x00);    // power down auto EQ
 8000e70:	2100      	movs	r1, #0
 8000e72:	203a      	movs	r0, #58	@ 0x3a
 8000e74:	f7ff fbc2 	bl	80005fc <hdmirxwr>
            hdmirxwr(0xD0, 0xC0);
 8000e78:	21c0      	movs	r1, #192	@ 0xc0
}
 8000e7a:	e8bd 4038 	ldmia.w	sp!, {r3, r4, r5, lr}
        hdmirxwr(0xD0, 0x30);
 8000e7e:	20d0      	movs	r0, #208	@ 0xd0
 8000e80:	f7ff bbbc 	b.w	80005fc <hdmirxwr>
    if(hdmirxrd(REG_RX_P0_SYS_STATUS) & (B_P0_MxL_MODE))
 8000e84:	200a      	movs	r0, #10
 8000e86:	f7ff fba7 	bl	80005d8 <hdmirxrd>
 8000e8a:	f010 0040 	ands.w	r0, r0, #64	@ 0x40
 8000e8e:	d05b      	beq.n	8000f48 <OverWriteAmpValue2EQ+0x1bc>
        if((ucPortAMPValid[F_PORT_SEL_0]&0x03)==0x03)
 8000e90:	7824      	ldrb	r4, [r4, #0]
 8000e92:	f004 0403 	and.w	r4, r4, #3
 8000e96:	2c03      	cmp	r4, #3
 8000e98:	f040 809a 	bne.w	8000fd0 <OverWriteAmpValue2EQ+0x244>
            ucPortAMPOverWrite[F_PORT_SEL_0]=1;    //2013-0801
 8000e9c:	2201      	movs	r2, #1
 8000e9e:	4b4f      	ldr	r3, [pc, #316]	@ (8000fdc <OverWriteAmpValue2EQ+0x250>)
            EQ_PORT0_PRINTF(("#### REG_RX_026 = 0x%X ####\n",(int) hdmirxrd(REG_RX_026)));
 8000ea0:	2026      	movs	r0, #38	@ 0x26
            ucPortAMPOverWrite[F_PORT_SEL_0]=1;    //2013-0801
 8000ea2:	701a      	strb	r2, [r3, #0]
            ucEQMode[F_PORT_SEL_0] = 0; // 0 for Auto Mode
 8000ea4:	2200      	movs	r2, #0
 8000ea6:	4b4e      	ldr	r3, [pc, #312]	@ (8000fe0 <OverWriteAmpValue2EQ+0x254>)
            if((ucChannelB[F_PORT_SEL_0] ) < MinEQValue)
 8000ea8:	4d4f      	ldr	r5, [pc, #316]	@ (8000fe8 <OverWriteAmpValue2EQ+0x25c>)
            ucEQMode[F_PORT_SEL_0] = 0; // 0 for Auto Mode
 8000eaa:	701a      	strb	r2, [r3, #0]
            EQ_PORT0_PRINTF(("#### REG_RX_026 = 0x%X ####\n",(int) hdmirxrd(REG_RX_026)));
 8000eac:	f7ff fb94 	bl	80005d8 <hdmirxrd>
 8000eb0:	4601      	mov	r1, r0
 8000eb2:	4855      	ldr	r0, [pc, #340]	@ (8001008 <OverWriteAmpValue2EQ+0x27c>)
 8000eb4:	f004 fadc 	bl	8005470 <iprintf>
            hdmirxset(REG_RX_026,0x20,0x20);    //Manually set RS Value
 8000eb8:	2220      	movs	r2, #32
 8000eba:	2026      	movs	r0, #38	@ 0x26
 8000ebc:	4611      	mov	r1, r2
 8000ebe:	f7ff fbb3 	bl	8000628 <hdmirxset>
            EQ_PORT0_PRINTF(("#### REG_RX_026 = 0x%X ####\n",(int) hdmirxrd(REG_RX_026)));
 8000ec2:	2026      	movs	r0, #38	@ 0x26
 8000ec4:	f7ff fb88 	bl	80005d8 <hdmirxrd>
 8000ec8:	4601      	mov	r1, r0
 8000eca:	484f      	ldr	r0, [pc, #316]	@ (8001008 <OverWriteAmpValue2EQ+0x27c>)
 8000ecc:	f004 fad0 	bl	8005470 <iprintf>
            if((ucChannelB[F_PORT_SEL_0] ) < MinEQValue)
 8000ed0:	7829      	ldrb	r1, [r5, #0]
 8000ed2:	2902      	cmp	r1, #2
 8000ed4:	d829      	bhi.n	8000f2a <OverWriteAmpValue2EQ+0x19e>
            hdmirxwr(REG_RX_027,(MinEQValue));
 8000ed6:	4621      	mov	r1, r4
 8000ed8:	2027      	movs	r0, #39	@ 0x27
 8000eda:	f7ff fb8f 	bl	80005fc <hdmirxwr>
            hdmirxwr(REG_RX_028,(MinEQValue));    //07-08 using B channal to over-write G and R channel
 8000ede:	4621      	mov	r1, r4
 8000ee0:	2028      	movs	r0, #40	@ 0x28
 8000ee2:	f7ff fb8b 	bl	80005fc <hdmirxwr>
            hdmirxwr(REG_RX_029,(MinEQValue));
 8000ee6:	4621      	mov	r1, r4
            hdmirxwr(REG_RX_029,(ucChannelB[F_PORT_SEL_0] & 0x7F));
 8000ee8:	2029      	movs	r0, #41	@ 0x29
 8000eea:	f7ff fb87 	bl	80005fc <hdmirxwr>
            EQ_PORT0_PRINTF((" ############# Over-Write port 0 MxL EQ###############\n"));
 8000eee:	4847      	ldr	r0, [pc, #284]	@ (800100c <OverWriteAmpValue2EQ+0x280>)
            EQ_PORT0_PRINTF((" ############# Over-Write port 0 EQ###############\n"));
 8000ef0:	f004 fb26 	bl	8005540 <puts>
            EQ_PORT0_PRINTF((" ############# B port 0 REG_RX_027 = 0x%X  ###############\n",(int) hdmirxrd(REG_RX_027)));
 8000ef4:	2027      	movs	r0, #39	@ 0x27
 8000ef6:	f7ff fb6f 	bl	80005d8 <hdmirxrd>
 8000efa:	4601      	mov	r1, r0
 8000efc:	4844      	ldr	r0, [pc, #272]	@ (8001010 <OverWriteAmpValue2EQ+0x284>)
 8000efe:	f004 fab7 	bl	8005470 <iprintf>
            EQ_PORT0_PRINTF((" ############# G port 0 REG_RX_028 = 0x%X  ###############\n",(int) hdmirxrd(REG_RX_028)));
 8000f02:	2028      	movs	r0, #40	@ 0x28
 8000f04:	f7ff fb68 	bl	80005d8 <hdmirxrd>
 8000f08:	4601      	mov	r1, r0
 8000f0a:	4842      	ldr	r0, [pc, #264]	@ (8001014 <OverWriteAmpValue2EQ+0x288>)
 8000f0c:	f004 fab0 	bl	8005470 <iprintf>
            EQ_PORT0_PRINTF((" ############# R port 0 REG_RX_029 = 0x%X  ###############\n",(int) hdmirxrd(REG_RX_029)));
 8000f10:	2029      	movs	r0, #41	@ 0x29
 8000f12:	f7ff fb61 	bl	80005d8 <hdmirxrd>
 8000f16:	4601      	mov	r1, r0
 8000f18:	483f      	ldr	r0, [pc, #252]	@ (8001018 <OverWriteAmpValue2EQ+0x28c>)
 8000f1a:	f004 faa9 	bl	8005470 <iprintf>
            hdmirxwr(REG_RX_022, 0x00);    // power down auto EQ
 8000f1e:	2100      	movs	r1, #0
 8000f20:	2022      	movs	r0, #34	@ 0x22
 8000f22:	f7ff fb6b 	bl	80005fc <hdmirxwr>
        hdmirxwr(0xD0, 0x30);
 8000f26:	2130      	movs	r1, #48	@ 0x30
 8000f28:	e7a7      	b.n	8000e7a <OverWriteAmpValue2EQ+0xee>
            hdmirxwr(REG_RX_027,(ucChannelB[F_PORT_SEL_0] & 0x7F));
 8000f2a:	f001 017f 	and.w	r1, r1, #127	@ 0x7f
 8000f2e:	2027      	movs	r0, #39	@ 0x27
 8000f30:	f7ff fb64 	bl	80005fc <hdmirxwr>
            hdmirxwr(REG_RX_028,(ucChannelB[F_PORT_SEL_0] & 0x7F));    //07-08 using B channal to over-write G and R channel
 8000f34:	7829      	ldrb	r1, [r5, #0]
 8000f36:	2028      	movs	r0, #40	@ 0x28
 8000f38:	f001 017f 	and.w	r1, r1, #127	@ 0x7f
 8000f3c:	f7ff fb5e 	bl	80005fc <hdmirxwr>
            hdmirxwr(REG_RX_029,(ucChannelB[F_PORT_SEL_0] & 0x7F));
 8000f40:	7829      	ldrb	r1, [r5, #0]
 8000f42:	f001 017f 	and.w	r1, r1, #127	@ 0x7f
 8000f46:	e7cf      	b.n	8000ee8 <OverWriteAmpValue2EQ+0x15c>
        if((ucPortAMPValid[F_PORT_SEL_0]&0x3F)==0x3F)
 8000f48:	7823      	ldrb	r3, [r4, #0]
 8000f4a:	f003 033f 	and.w	r3, r3, #63	@ 0x3f
 8000f4e:	2b3f      	cmp	r3, #63	@ 0x3f
 8000f50:	d13e      	bne.n	8000fd0 <OverWriteAmpValue2EQ+0x244>
            ucPortAMPOverWrite[F_PORT_SEL_0]=1;    //2013-0801
 8000f52:	2201      	movs	r2, #1
 8000f54:	4b21      	ldr	r3, [pc, #132]	@ (8000fdc <OverWriteAmpValue2EQ+0x250>)
 8000f56:	701a      	strb	r2, [r3, #0]
            ucEQMode[F_PORT_SEL_0] = 0; // 0 for Auto Mode
 8000f58:	4b21      	ldr	r3, [pc, #132]	@ (8000fe0 <OverWriteAmpValue2EQ+0x254>)
 8000f5a:	7018      	strb	r0, [r3, #0]
            EQ_PORT0_PRINTF(("#### REG_RX_026 = 0x%X ####\n",(int) hdmirxrd(REG_RX_026)));
 8000f5c:	2026      	movs	r0, #38	@ 0x26
 8000f5e:	f7ff fb3b 	bl	80005d8 <hdmirxrd>
 8000f62:	4601      	mov	r1, r0
 8000f64:	4828      	ldr	r0, [pc, #160]	@ (8001008 <OverWriteAmpValue2EQ+0x27c>)
 8000f66:	f004 fa83 	bl	8005470 <iprintf>
            hdmirxset(REG_RX_026,0x20,0x20);    //Manually set RS Value
 8000f6a:	2220      	movs	r2, #32
 8000f6c:	2026      	movs	r0, #38	@ 0x26
 8000f6e:	4611      	mov	r1, r2
 8000f70:	f7ff fb5a 	bl	8000628 <hdmirxset>
            EQ_PORT0_PRINTF(("#### REG_RX_026 = 0x%X ####\n",(int) hdmirxrd(REG_RX_026)));
 8000f74:	2026      	movs	r0, #38	@ 0x26
 8000f76:	f7ff fb2f 	bl	80005d8 <hdmirxrd>
 8000f7a:	4601      	mov	r1, r0
 8000f7c:	4822      	ldr	r0, [pc, #136]	@ (8001008 <OverWriteAmpValue2EQ+0x27c>)
 8000f7e:	f004 fa77 	bl	8005470 <iprintf>
            if(ucChannelB[F_PORT_SEL_0]  < MinEQValue )
 8000f82:	4b19      	ldr	r3, [pc, #100]	@ (8000fe8 <OverWriteAmpValue2EQ+0x25c>)
            hdmirxwr(REG_RX_027,(ucChannelB[F_PORT_SEL_0] & 0x7F));
 8000f84:	2027      	movs	r0, #39	@ 0x27
            if(ucChannelB[F_PORT_SEL_0]  < MinEQValue )
 8000f86:	7819      	ldrb	r1, [r3, #0]
 8000f88:	2902      	cmp	r1, #2
            hdmirxwr(REG_RX_027,MinEQValue);
 8000f8a:	bf94      	ite	ls
 8000f8c:	2103      	movls	r1, #3
            hdmirxwr(REG_RX_027,(ucChannelB[F_PORT_SEL_0] & 0x7F));
 8000f8e:	f001 017f 	andhi.w	r1, r1, #127	@ 0x7f
 8000f92:	f7ff fb33 	bl	80005fc <hdmirxwr>
            if(ucChannelG[F_PORT_SEL_0]  < MinEQValue )
 8000f96:	4b15      	ldr	r3, [pc, #84]	@ (8000fec <OverWriteAmpValue2EQ+0x260>)
            hdmirxwr(REG_RX_028,(ucChannelG[F_PORT_SEL_0] & 0x7F));
 8000f98:	2028      	movs	r0, #40	@ 0x28
            if(ucChannelG[F_PORT_SEL_0]  < MinEQValue )
 8000f9a:	7819      	ldrb	r1, [r3, #0]
 8000f9c:	2902      	cmp	r1, #2
            hdmirxwr(REG_RX_028,MinEQValue);
 8000f9e:	bf94      	ite	ls
 8000fa0:	2103      	movls	r1, #3
            hdmirxwr(REG_RX_028,(ucChannelG[F_PORT_SEL_0] & 0x7F));
 8000fa2:	f001 017f 	andhi.w	r1, r1, #127	@ 0x7f
 8000fa6:	f7ff fb29 	bl	80005fc <hdmirxwr>
            if(ucChannelR[F_PORT_SEL_0]  < MinEQValue )
 8000faa:	4b11      	ldr	r3, [pc, #68]	@ (8000ff0 <OverWriteAmpValue2EQ+0x264>)
            hdmirxwr(REG_RX_029,(ucChannelR[F_PORT_SEL_0] & 0x7F));
 8000fac:	2029      	movs	r0, #41	@ 0x29
            if(ucChannelR[F_PORT_SEL_0]  < MinEQValue )
 8000fae:	7819      	ldrb	r1, [r3, #0]
 8000fb0:	2902      	cmp	r1, #2
            hdmirxwr(REG_RX_029,MinEQValue);
 8000fb2:	bf94      	ite	ls
 8000fb4:	2103      	movls	r1, #3
            hdmirxwr(REG_RX_029,(ucChannelR[F_PORT_SEL_0] & 0x7F));
 8000fb6:	f001 017f 	andhi.w	r1, r1, #127	@ 0x7f
 8000fba:	f7ff fb1f 	bl	80005fc <hdmirxwr>
            it6802data->HDMIIntEvent &= ~(B_PORT0_TMDSEvent|B_PORT0_Waiting|B_PORT0_TimingChgEvent);
 8000fbe:	4a0d      	ldr	r2, [pc, #52]	@ (8000ff4 <OverWriteAmpValue2EQ+0x268>)
            EQ_PORT0_PRINTF((" ############# Over-Write port 0 EQ###############\n"));
 8000fc0:	4816      	ldr	r0, [pc, #88]	@ (800101c <OverWriteAmpValue2EQ+0x290>)
            it6802data->HDMIIntEvent &= ~(B_PORT0_TMDSEvent|B_PORT0_Waiting|B_PORT0_TimingChgEvent);
 8000fc2:	f892 305c 	ldrb.w	r3, [r2, #92]	@ 0x5c
 8000fc6:	f023 0307 	bic.w	r3, r3, #7
 8000fca:	f882 305c 	strb.w	r3, [r2, #92]	@ 0x5c
            EQ_PORT0_PRINTF((" ############# Over-Write port 0 EQ###############\n"));
 8000fce:	e78f      	b.n	8000ef0 <OverWriteAmpValue2EQ+0x164>
}
 8000fd0:	bd38      	pop	{r3, r4, r5, pc}
 8000fd2:	bf00      	nop
 8000fd4:	080065f7 	.word	0x080065f7
 8000fd8:	20000398 	.word	0x20000398
 8000fdc:	2000039a 	.word	0x2000039a
 8000fe0:	20000390 	.word	0x20000390
 8000fe4:	0800663f 	.word	0x0800663f
 8000fe8:	20000396 	.word	0x20000396
 8000fec:	20000394 	.word	0x20000394
 8000ff0:	20000392 	.word	0x20000392
 8000ff4:	200003a8 	.word	0x200003a8
 8000ff8:	0800665c 	.word	0x0800665c
 8000ffc:	0800668f 	.word	0x0800668f
 8001000:	080066c7 	.word	0x080066c7
 8001004:	080066ff 	.word	0x080066ff
 8001008:	08006737 	.word	0x08006737
 800100c:	08006754 	.word	0x08006754
 8001010:	0800678b 	.word	0x0800678b
 8001014:	080067c7 	.word	0x080067c7
 8001018:	08006803 	.word	0x08006803
 800101c:	0800683f 	.word	0x0800683f

08001020 <JudgeBestEQ>:
{
 8001020:	b570      	push	{r4, r5, r6, lr}
            if(Result>=ucEQPort->ErrorCount[i])
 8001022:	7a03      	ldrb	r3, [r0, #8]
        Result=ucEQPort->ErrorCount[0];
 8001024:	79c2      	ldrb	r2, [r0, #7]
{
 8001026:	4604      	mov	r4, r0
            if(Result>=ucEQPort->ErrorCount[i])
 8001028:	429a      	cmp	r2, r3
        Result=ucEQPort->ErrorCount[0];
 800102a:	bf38      	it	cc
 800102c:	4613      	movcc	r3, r2
            if(Result>=ucEQPort->ErrorCount[i])
 800102e:	7a42      	ldrb	r2, [r0, #9]
                j=i;
 8001030:	bf2c      	ite	cs
 8001032:	2501      	movcs	r5, #1
        j=0;
 8001034:	2500      	movcc	r5, #0
            if(Result>=ucEQPort->ErrorCount[i])
 8001036:	4293      	cmp	r3, r2
                j=i;
 8001038:	bf28      	it	cs
 800103a:	2502      	movcs	r5, #2
        EQ_DEBUG_PRINTF((" Best IT6802EQTable ErrorCount[%X]=%X !!! IT6802EQTable Value=%X !!!\n",(int) j,(int) Result,(int) IT6802EQTable[j]));
 800103c:	4e1f      	ldr	r6, [pc, #124]	@ (80010bc <JudgeBestEQ+0x9c>)
            if(Result>=ucEQPort->ErrorCount[i])
 800103e:	bf38      	it	cc
 8001040:	461a      	movcc	r2, r3
        EQ_DEBUG_PRINTF((" Best IT6802EQTable ErrorCount[%X]=%X !!! IT6802EQTable Value=%X !!!\n",(int) j,(int) Result,(int) IT6802EQTable[j]));
 8001042:	4629      	mov	r1, r5
 8001044:	5d73      	ldrb	r3, [r6, r5]
 8001046:	481e      	ldr	r0, [pc, #120]	@ (80010c0 <JudgeBestEQ+0xa0>)
 8001048:	f004 fa12 	bl	8005470 <iprintf>
        if(ucEQPort->ucPortID==F_PORT_SEL_0)
 800104c:	7963      	ldrb	r3, [r4, #5]
 800104e:	b9f3      	cbnz	r3, 800108e <JudgeBestEQ+0x6e>
                if((hdmirxrd(REG_RX_027) & 0x80) == 0)/*20231214*/
 8001050:	2027      	movs	r0, #39	@ 0x27
 8001052:	f7ff fac1 	bl	80005d8 <hdmirxrd>
 8001056:	0602      	lsls	r2, r0, #24
 8001058:	d404      	bmi.n	8001064 <JudgeBestEQ+0x44>
                    OverWriteAmpValue2EQ(ucEQPort->ucPortID);
 800105a:	7960      	ldrb	r0, [r4, #5]
}
 800105c:	e8bd 4070 	ldmia.w	sp!, {r4, r5, r6, lr}
                    OverWriteAmpValue2EQ(ucEQPort->ucPortID);
 8001060:	f7ff be94 	b.w	8000d8c <OverWriteAmpValue2EQ>
                    hdmirxset(REG_RX_026, 0x20, 0x20);    //07-04 add for adjust EQ
 8001064:	2220      	movs	r2, #32
 8001066:	2026      	movs	r0, #38	@ 0x26
 8001068:	4611      	mov	r1, r2
 800106a:	f7ff fadd 	bl	8000628 <hdmirxset>
                    hdmirxwr(REG_RX_027,IT6802EQTable[j]);
 800106e:	5d71      	ldrb	r1, [r6, r5]
 8001070:	2027      	movs	r0, #39	@ 0x27
 8001072:	f7ff fac3 	bl	80005fc <hdmirxwr>
                    EQ_PORT0_PRINTF(("Port=%X ,ucIndex = %X ,JudgeBestEQ Reg027 = %X\n",(int) ucEQPort->ucPortID,(int) j,(int) hdmirxrd(REG_RX_027)));
 8001076:	2027      	movs	r0, #39	@ 0x27
 8001078:	7964      	ldrb	r4, [r4, #5]
 800107a:	f7ff faad 	bl	80005d8 <hdmirxrd>
 800107e:	462a      	mov	r2, r5
 8001080:	4621      	mov	r1, r4
 8001082:	4603      	mov	r3, r0
 8001084:	480f      	ldr	r0, [pc, #60]	@ (80010c4 <JudgeBestEQ+0xa4>)
}
 8001086:	e8bd 4070 	ldmia.w	sp!, {r4, r5, r6, lr}
                    EQ_PORT1_PRINTF(("Port=%X ,ucIndex = %X ,JudgeBestEQ Reg03F = %X\n",(int) ucEQPort->ucPortID,(int) j,(int) hdmirxrd(REG_RX_03F)));
 800108a:	f004 b9f1 	b.w	8005470 <iprintf>
                if((hdmirxrd(REG_RX_03F) & 0x80) == 0)/*20231214*/
 800108e:	203f      	movs	r0, #63	@ 0x3f
 8001090:	f7ff faa2 	bl	80005d8 <hdmirxrd>
 8001094:	0603      	lsls	r3, r0, #24
 8001096:	d5e0      	bpl.n	800105a <JudgeBestEQ+0x3a>
                    hdmirxset(REG_RX_03E, 0x20, 0x20);    //07-04 add for adjust EQ
 8001098:	2220      	movs	r2, #32
 800109a:	203e      	movs	r0, #62	@ 0x3e
 800109c:	4611      	mov	r1, r2
 800109e:	f7ff fac3 	bl	8000628 <hdmirxset>
                    hdmirxwr(REG_RX_03F,IT6802EQTable[j]);
 80010a2:	5d71      	ldrb	r1, [r6, r5]
 80010a4:	203f      	movs	r0, #63	@ 0x3f
 80010a6:	f7ff faa9 	bl	80005fc <hdmirxwr>
                    EQ_PORT1_PRINTF(("Port=%X ,ucIndex = %X ,JudgeBestEQ Reg03F = %X\n",(int) ucEQPort->ucPortID,(int) j,(int) hdmirxrd(REG_RX_03F)));
 80010aa:	203f      	movs	r0, #63	@ 0x3f
 80010ac:	7964      	ldrb	r4, [r4, #5]
 80010ae:	f7ff fa93 	bl	80005d8 <hdmirxrd>
 80010b2:	462a      	mov	r2, r5
 80010b4:	4603      	mov	r3, r0
 80010b6:	4621      	mov	r1, r4
 80010b8:	4803      	ldr	r0, [pc, #12]	@ (80010c8 <JudgeBestEQ+0xa8>)
 80010ba:	e7e4      	b.n	8001086 <JudgeBestEQ+0x66>
 80010bc:	200001cd 	.word	0x200001cd
 80010c0:	08006872 	.word	0x08006872
 80010c4:	080068b8 	.word	0x080068b8
 80010c8:	080068e8 	.word	0x080068e8

080010cc <StoreEccCount>:
{
 80010cc:	b510      	push	{r4, lr}
 80010ce:	4604      	mov	r4, r0
    EQ_DEBUG_PRINTF(("StoreEccCount() ucEQPort->ucECCvalue = %02X\n",(int) ucEQPort->ucECCvalue));
 80010d0:	7881      	ldrb	r1, [r0, #2]
 80010d2:	480b      	ldr	r0, [pc, #44]	@ (8001100 <StoreEccCount+0x34>)
 80010d4:	f004 f9cc 	bl	8005470 <iprintf>
    if(ucEQPort->ucEQState <= EQSTATE_LOW)
 80010d8:	7823      	ldrb	r3, [r4, #0]
 80010da:	2b3c      	cmp	r3, #60	@ 0x3c
 80010dc:	d802      	bhi.n	80010e4 <StoreEccCount+0x18>
        ucEQPort->ErrorCount[0] = ucEQPort->ucECCvalue;
 80010de:	78a3      	ldrb	r3, [r4, #2]
 80010e0:	71e3      	strb	r3, [r4, #7]
}
 80010e2:	bd10      	pop	{r4, pc}
    else if(ucEQPort->ucEQState <= EQSTATE_MIDDLE)
 80010e4:	2b46      	cmp	r3, #70	@ 0x46
 80010e6:	d802      	bhi.n	80010ee <StoreEccCount+0x22>
        ucEQPort->ErrorCount[1] = ucEQPort->ucECCvalue;
 80010e8:	78a3      	ldrb	r3, [r4, #2]
 80010ea:	7223      	strb	r3, [r4, #8]
 80010ec:	e7f9      	b.n	80010e2 <StoreEccCount+0x16>
    else if(ucEQPort->ucEQState <= EQSTATE_HIGH)
 80010ee:	2b50      	cmp	r3, #80	@ 0x50
 80010f0:	d8f7      	bhi.n	80010e2 <StoreEccCount+0x16>
        ucEQPort->ErrorCount[2] = ucEQPort->ucECCvalue;
 80010f2:	78a3      	ldrb	r3, [r4, #2]
        JudgeBestEQ(ucEQPort);
 80010f4:	4620      	mov	r0, r4
        ucEQPort->ErrorCount[2] = ucEQPort->ucECCvalue;
 80010f6:	7263      	strb	r3, [r4, #9]
}
 80010f8:	e8bd 4010 	ldmia.w	sp!, {r4, lr}
        JudgeBestEQ(ucEQPort);
 80010fc:	f7ff bf90 	b.w	8001020 <JudgeBestEQ>
 8001100:	08006918 	.word	0x08006918

08001104 <CheckAVMute>:
{
 8001104:	b510      	push	{r4, lr}
    ucAVMute=hdmirxrd(REG_RX_0A8) & (B_P0_AVMUTE|B_P1_AVMUTE);
 8001106:	20a8      	movs	r0, #168	@ 0xa8
 8001108:	f7ff fa66 	bl	80005d8 <hdmirxrd>
 800110c:	4604      	mov	r4, r0
    ucPortSel = hdmirxrd(REG_RX_051)&B_PORT_SEL;
 800110e:	2051      	movs	r0, #81	@ 0x51
 8001110:	f7ff fa62 	bl	80005d8 <hdmirxrd>
 8001114:	f000 0301 	and.w	r3, r0, #1
    if(((ucAVMute & B_P0_AVMUTE)&& (ucPortSel == F_PORT_SEL_0 ))||
 8001118:	f014 0001 	ands.w	r0, r4, #1
 800111c:	d000      	beq.n	8001120 <CheckAVMute+0x1c>
 800111e:	b11b      	cbz	r3, 8001128 <CheckAVMute+0x24>
        return TRUE;
 8001120:	f014 0010 	ands.w	r0, r4, #16
 8001124:	bf18      	it	ne
 8001126:	4618      	movne	r0, r3
}
 8001128:	bd10      	pop	{r4, pc}

0800112a <CheckPlg5VPwr>:
{
 800112a:	b508      	push	{r3, lr}
    if(ucPortSel==0)
 800112c:	b928      	cbnz	r0, 800113a <CheckPlg5VPwr+0x10>
        sys_state_P0 = hdmirxrd(REG_RX_P0_SYS_STATUS) & B_P0_PWR5V_DET;
 800112e:	200a      	movs	r0, #10
        sys_state_P1 = hdmirxrd(REG_RX_P1_SYS_STATUS) & B_P1_PWR5V_DET;
 8001130:	f7ff fa52 	bl	80005d8 <hdmirxrd>
 8001134:	f000 0001 	and.w	r0, r0, #1
}
 8001138:	bd08      	pop	{r3, pc}
        sys_state_P1 = hdmirxrd(REG_RX_P1_SYS_STATUS) & B_P1_PWR5V_DET;
 800113a:	200b      	movs	r0, #11
 800113c:	e7f8      	b.n	8001130 <CheckPlg5VPwr+0x6>

0800113e <IsHDMIMode>:
{
 800113e:	b538      	push	{r3, r4, r5, lr}
    sys_state_P0=hdmirxrd(REG_RX_P0_SYS_STATUS) & B_P0_HDMI_MODE;
 8001140:	200a      	movs	r0, #10
 8001142:	f7ff fa49 	bl	80005d8 <hdmirxrd>
 8001146:	4605      	mov	r5, r0
    sys_state_P1=hdmirxrd(REG_RX_P1_SYS_STATUS) & B_P1_HDMI_MODE;
 8001148:	200b      	movs	r0, #11
 800114a:	f7ff fa45 	bl	80005d8 <hdmirxrd>
 800114e:	f000 0402 	and.w	r4, r0, #2
    ucPortSel = hdmirxrd(REG_RX_051) & B_PORT_SEL;
 8001152:	2051      	movs	r0, #81	@ 0x51
 8001154:	f7ff fa40 	bl	80005d8 <hdmirxrd>
    if(((sys_state_P0 & B_P0_HDMI_MODE)&& (ucPortSel == F_PORT_SEL_0 ))||
 8001158:	07ab      	lsls	r3, r5, #30
    ucPortSel = hdmirxrd(REG_RX_051) & B_PORT_SEL;
 800115a:	f000 0001 	and.w	r0, r0, #1
    if(((sys_state_P0 & B_P0_HDMI_MODE)&& (ucPortSel == F_PORT_SEL_0 ))||
 800115e:	d500      	bpl.n	8001162 <IsHDMIMode+0x24>
 8001160:	b120      	cbz	r0, 800116c <IsHDMIMode+0x2e>
        return TRUE;
 8001162:	2c00      	cmp	r4, #0
 8001164:	bf18      	it	ne
 8001166:	4604      	movne	r4, r0
}
 8001168:	4620      	mov	r0, r4
 800116a:	bd38      	pop	{r3, r4, r5, pc}
        return TRUE;
 800116c:	2401      	movs	r4, #1
 800116e:	e7fb      	b.n	8001168 <IsHDMIMode+0x2a>

08001170 <GetAVIInfoFrame>:
{
 8001170:	b510      	push	{r4, lr}
 8001172:	4604      	mov	r4, r0
    chgbank(2);
 8001174:	2002      	movs	r0, #2
 8001176:	f7ff fba3 	bl	80008c0 <chgbank>
    it6802->ColorMode = ((hdmirxrd(REG_RX_AVI_DB1)&0x60)>>5);
 800117a:	2015      	movs	r0, #21
 800117c:	f7ff fa2c 	bl	80005d8 <hdmirxrd>
 8001180:	f3c0 1041 	ubfx	r0, r0, #5, #2
 8001184:	f884 005f 	strb.w	r0, [r4, #95]	@ 0x5f
    it6802->Colorimetry = ((hdmirxrd(REG_RX_AVI_DB2)&0xC0)>>6);
 8001188:	2016      	movs	r0, #22
 800118a:	f7ff fa25 	bl	80005d8 <hdmirxrd>
 800118e:	1180      	asrs	r0, r0, #6
 8001190:	f884 0060 	strb.w	r0, [r4, #96]	@ 0x60
    it6802->ExtendedColorimetry = ((hdmirxrd(REG_RX_AVI_DB3)&0x70)>>4);
 8001194:	2017      	movs	r0, #23
 8001196:	f7ff fa1f 	bl	80005d8 <hdmirxrd>
 800119a:	f3c0 1002 	ubfx	r0, r0, #4, #3
 800119e:	f884 0061 	strb.w	r0, [r4, #97]	@ 0x61
    it6802->RGBQuantizationRange = ((hdmirxrd(REG_RX_AVI_DB3)&0x0C)>>2);
 80011a2:	2017      	movs	r0, #23
 80011a4:	f7ff fa18 	bl	80005d8 <hdmirxrd>
 80011a8:	f3c0 0081 	ubfx	r0, r0, #2, #2
 80011ac:	f884 0062 	strb.w	r0, [r4, #98]	@ 0x62
    it6802->VIC = ((hdmirxrd(REG_RX_AVI_DB4)&0x7F));
 80011b0:	2018      	movs	r0, #24
 80011b2:	f7ff fa11 	bl	80005d8 <hdmirxrd>
 80011b6:	f000 007f 	and.w	r0, r0, #127	@ 0x7f
 80011ba:	f884 0064 	strb.w	r0, [r4, #100]	@ 0x64
    it6802->YCCQuantizationRange = ((hdmirxrd(REG_RX_AVI_DB5)&0xC0)>>6);
 80011be:	2019      	movs	r0, #25
 80011c0:	f7ff fa0a 	bl	80005d8 <hdmirxrd>
 80011c4:	1180      	asrs	r0, r0, #6
 80011c6:	f884 0063 	strb.w	r0, [r4, #99]	@ 0x63
    chgbank(0);
 80011ca:	2000      	movs	r0, #0
 80011cc:	f7ff fb78 	bl	80008c0 <chgbank>
    if(it6802->RGBQuantizationRange == 0 )
 80011d0:	f894 3062 	ldrb.w	r3, [r4, #98]	@ 0x62
 80011d4:	b93b      	cbnz	r3, 80011e6 <GetAVIInfoFrame+0x76>
    if( it6802->VIC >=2 )
 80011d6:	f894 3064 	ldrb.w	r3, [r4, #100]	@ 0x64
 80011da:	2b01      	cmp	r3, #1
    it6802->RGBQuantizationRange = 1; // limited range
 80011dc:	bf8c      	ite	hi
 80011de:	2301      	movhi	r3, #1
    it6802->RGBQuantizationRange = 2; // Full range
 80011e0:	2302      	movls	r3, #2
 80011e2:	f884 3062 	strb.w	r3, [r4, #98]	@ 0x62
}
 80011e6:	bd10      	pop	{r4, pc}

080011e8 <SetVideoInputFormatWithInfoFrame>:
{
 80011e8:	b538      	push	{r3, r4, r5, lr}
 80011ea:	4604      	mov	r4, r0
    chgbank(2);
 80011ec:	2002      	movs	r0, #2
 80011ee:	f7ff fb67 	bl	80008c0 <chgbank>
    uc=hdmirxrd(REG_RX_215);    //REG_RX_AVI_DB1
 80011f2:	2015      	movs	r0, #21
 80011f4:	f7ff f9f0 	bl	80005d8 <hdmirxrd>
 80011f8:	4605      	mov	r5, r0
    chgbank(0);
 80011fa:	2000      	movs	r0, #0
 80011fc:	f7ff fb60 	bl	80008c0 <chgbank>
    it6802->m_bInputVideoMode &=~F_MODE_CLRMOD_MASK;
 8001200:	7d23      	ldrb	r3, [r4, #20]
 8001202:	f3c5 1041 	ubfx	r0, r5, #5, #2
 8001206:	f023 0303 	bic.w	r3, r3, #3
    switch((uc>>O_AVI_COLOR_MODE)&M_AVI_COLOR_MASK)
 800120a:	2802      	cmp	r0, #2
    it6802->prevAVIDB[1] = uc;
 800120c:	f884 506c 	strb.w	r5, [r4, #108]	@ 0x6c
    it6802->m_bInputVideoMode &=~F_MODE_CLRMOD_MASK;
 8001210:	7523      	strb	r3, [r4, #20]
    switch((uc>>O_AVI_COLOR_MODE)&M_AVI_COLOR_MASK)
 8001212:	d023      	beq.n	800125c <SetVideoInputFormatWithInfoFrame+0x74>
 8001214:	2803      	cmp	r0, #3
 8001216:	d030      	beq.n	800127a <SetVideoInputFormatWithInfoFrame+0x92>
 8001218:	2801      	cmp	r0, #1
 800121a:	d027      	beq.n	800126c <SetVideoInputFormatWithInfoFrame+0x84>
            HDMIRX_VIDEO_PRINTF(("input RGB24 mode "));
 800121c:	481a      	ldr	r0, [pc, #104]	@ (8001288 <SetVideoInputFormatWithInfoFrame+0xa0>)
 800121e:	f004 f927 	bl	8005470 <iprintf>
    chgbank(2);
 8001222:	2002      	movs	r0, #2
 8001224:	f7ff fb4c 	bl	80008c0 <chgbank>
    uc=(hdmirxrd(REG_RX_217)&0x0F)>>2;
 8001228:	2017      	movs	r0, #23
 800122a:	f7ff f9d5 	bl	80005d8 <hdmirxrd>
    if(uc == 0x01) it6802->m_bInputVideoMode |= F_MODE_16_235;
 800122e:	7d23      	ldrb	r3, [r4, #20]
 8001230:	f3c0 0081 	ubfx	r0, r0, #2, #2
 8001234:	2801      	cmp	r0, #1
 8001236:	bf0c      	ite	eq
 8001238:	f043 0320 	orreq.w	r3, r3, #32
    else it6802->m_bInputVideoMode &= ~ F_MODE_16_235;
 800123c:	f003 03df 	andne.w	r3, r3, #223	@ 0xdf
 8001240:	7523      	strb	r3, [r4, #20]
    chgbank(0);
 8001242:	2000      	movs	r0, #0
 8001244:	f7ff fb3c 	bl	80008c0 <chgbank>
    uc=hdmirxrd(REG_RX_IN_CSC_CTRL);
 8001248:	2071      	movs	r0, #113	@ 0x71
 800124a:	f7ff f9c5 	bl	80005d8 <hdmirxrd>
}
 800124e:	e8bd 4038 	ldmia.w	sp!, {r3, r4, r5, lr}
    hdmirxwr(REG_RX_IN_CSC_CTRL,uc);
 8001252:	f000 01fb 	and.w	r1, r0, #251	@ 0xfb
 8001256:	2071      	movs	r0, #113	@ 0x71
 8001258:	f7ff b9d0 	b.w	80005fc <hdmirxwr>
            HDMIRX_VIDEO_PRINTF(("input YUV444 mode "));
 800125c:	480b      	ldr	r0, [pc, #44]	@ (800128c <SetVideoInputFormatWithInfoFrame+0xa4>)
 800125e:	f004 f907 	bl	8005470 <iprintf>
            it6802->m_bInputVideoMode |=F_MODE_YUV444;
 8001262:	7d23      	ldrb	r3, [r4, #20]
 8001264:	f043 0302 	orr.w	r3, r3, #2
            it6802->m_bInputVideoMode |=F_MODE_YUV420;
 8001268:	7523      	strb	r3, [r4, #20]
            break;
 800126a:	e7da      	b.n	8001222 <SetVideoInputFormatWithInfoFrame+0x3a>
            HDMIRX_VIDEO_PRINTF(("input YUV422 mode "));
 800126c:	4808      	ldr	r0, [pc, #32]	@ (8001290 <SetVideoInputFormatWithInfoFrame+0xa8>)
 800126e:	f004 f8ff 	bl	8005470 <iprintf>
            it6802->m_bInputVideoMode |=F_MODE_YUV422;
 8001272:	7d23      	ldrb	r3, [r4, #20]
 8001274:	f043 0301 	orr.w	r3, r3, #1
 8001278:	e7f6      	b.n	8001268 <SetVideoInputFormatWithInfoFrame+0x80>
            HDMIRX_VIDEO_PRINTF(("input YUV420 mode "));
 800127a:	4806      	ldr	r0, [pc, #24]	@ (8001294 <SetVideoInputFormatWithInfoFrame+0xac>)
 800127c:	f004 f8f8 	bl	8005470 <iprintf>
            it6802->m_bInputVideoMode |=F_MODE_YUV420;
 8001280:	7d23      	ldrb	r3, [r4, #20]
 8001282:	f043 0303 	orr.w	r3, r3, #3
 8001286:	e7ef      	b.n	8001268 <SetVideoInputFormatWithInfoFrame+0x80>
 8001288:	0800696b 	.word	0x0800696b
 800128c:	08006945 	.word	0x08006945
 8001290:	08006958 	.word	0x08006958
 8001294:	0800697d 	.word	0x0800697d

08001298 <SetColorimetryByInfoFrame>:
{
 8001298:	b538      	push	{r3, r4, r5, lr}
 800129a:	4604      	mov	r4, r0
    chgbank(2);
 800129c:	2002      	movs	r0, #2
 800129e:	f7ff fb0f 	bl	80008c0 <chgbank>
    i=hdmirxrd(REG_RX_216);    //REG_RX_AVI_DB2
 80012a2:	2016      	movs	r0, #22
 80012a4:	f7ff f998 	bl	80005d8 <hdmirxrd>
 80012a8:	4605      	mov	r5, r0
    chgbank(0);
 80012aa:	2000      	movs	r0, #0
 80012ac:	f7ff fb08 	bl	80008c0 <chgbank>
        i &=M_AVI_CLRMET_MASK<<O_AVI_CLRMET;
 80012b0:	f005 00c0 	and.w	r0, r5, #192	@ 0xc0
        if(i==(B_AVI_CLRMET_ITU601<<O_AVI_CLRMET))
 80012b4:	2840      	cmp	r0, #64	@ 0x40
 80012b6:	d104      	bne.n	80012c2 <SetColorimetryByInfoFrame+0x2a>
            it6802->m_bInputVideoMode &=~F_MODE_ITU709;
 80012b8:	7d23      	ldrb	r3, [r4, #20]
 80012ba:	f023 0310 	bic.w	r3, r3, #16
            it6802->m_bInputVideoMode |=F_MODE_ITU709;
 80012be:	7523      	strb	r3, [r4, #20]
}
 80012c0:	bd38      	pop	{r3, r4, r5, pc}
        else if(i==(B_AVI_CLRMET_ITU709<<O_AVI_CLRMET))
 80012c2:	2880      	cmp	r0, #128	@ 0x80
 80012c4:	d1fc      	bne.n	80012c0 <SetColorimetryByInfoFrame+0x28>
            it6802->m_bInputVideoMode |=F_MODE_ITU709;
 80012c6:	7d23      	ldrb	r3, [r4, #20]
 80012c8:	f043 0310 	orr.w	r3, r3, #16
 80012cc:	e7f7      	b.n	80012be <SetColorimetryByInfoFrame+0x26>
	...

080012d0 <SetColorSpaceConvert>:
{
 80012d0:	e92d 41f0 	stmdb	sp!, {r4, r5, r6, r7, r8, lr}
 80012d4:	4607      	mov	r7, r0
    HDMIRX_VIDEO_PRINTF(("\n!!! SetColorSpaceConvert( ) !!!\n"));
 80012d6:	48ba      	ldr	r0, [pc, #744]	@ (80015c0 <SetColorSpaceConvert+0x2f0>)
 80012d8:	f004 f932 	bl	8005540 <puts>
    chgbank(1);    /*20231214*//*Reset RGB & YCbCr Offset*/
 80012dc:	2001      	movs	r0, #1
 80012de:	f7ff faef 	bl	80008c0 <chgbank>
    hdmirxwr(REG_RX_170,0x10);
 80012e2:	2110      	movs	r1, #16
 80012e4:	2070      	movs	r0, #112	@ 0x70
 80012e6:	f7ff f989 	bl	80005fc <hdmirxwr>
    hdmirxwr(REG_RX_171,0x80);
 80012ea:	2180      	movs	r1, #128	@ 0x80
 80012ec:	2071      	movs	r0, #113	@ 0x71
 80012ee:	f7ff f985 	bl	80005fc <hdmirxwr>
    hdmirxwr(REG_RX_172,0x00);
 80012f2:	2100      	movs	r1, #0
 80012f4:	2072      	movs	r0, #114	@ 0x72
 80012f6:	f7ff f981 	bl	80005fc <hdmirxwr>
    chgbank(0);
 80012fa:	2000      	movs	r0, #0
 80012fc:	f7ff fae0 	bl	80008c0 <chgbank>
    switch(it6802->m_bOutputVideoMode&F_MODE_CLRMOD_MASK)
 8001300:	7cfc      	ldrb	r4, [r7, #19]
 8001302:	f004 0403 	and.w	r4, r4, #3
 8001306:	2c01      	cmp	r4, #1
 8001308:	d06e      	beq.n	80013e8 <SetColorSpaceConvert+0x118>
 800130a:	2c02      	cmp	r4, #2
 800130c:	d004      	beq.n	8001318 <SetColorSpaceConvert+0x48>
 800130e:	2c00      	cmp	r4, #0
 8001310:	f000 808b 	beq.w	800142a <SetColorSpaceConvert+0x15a>
    unsigned char filter = 0; // filter is for Video CTRL DN_FREE_GO, EN_DITHER, and ENUDFILT
 8001314:	2400      	movs	r4, #0
 8001316:	e07d      	b.n	8001414 <SetColorSpaceConvert+0x144>
         HDMIRX_VIDEO_PRINTF(("Output mode is YUV444\n"));
 8001318:	48aa      	ldr	r0, [pc, #680]	@ (80015c4 <SetColorSpaceConvert+0x2f4>)
 800131a:	f004 f911 	bl	8005540 <puts>
        switch(it6802->m_bInputVideoMode&F_MODE_CLRMOD_MASK)
 800131e:	7d3b      	ldrb	r3, [r7, #20]
 8001320:	f003 0303 	and.w	r3, r3, #3
 8001324:	2b02      	cmp	r3, #2
 8001326:	d053      	beq.n	80013d0 <SetColorSpaceConvert+0x100>
 8001328:	2b03      	cmp	r3, #3
 800132a:	d02a      	beq.n	8001382 <SetColorSpaceConvert+0xb2>
 800132c:	2b01      	cmp	r3, #1
 800132e:	d051      	beq.n	80013d4 <SetColorSpaceConvert+0x104>
             HDMIRX_VIDEO_PRINTF(("Input mode is RGB444\n"));
 8001330:	48a5      	ldr	r0, [pc, #660]	@ (80015c8 <SetColorSpaceConvert+0x2f8>)
 8001332:	f004 f905 	bl	8005540 <puts>
{
 8001336:	2400      	movs	r4, #0
        hdmirxset(REG_RX_067,0x78,0x00);
 8001338:	2200      	movs	r2, #0
 800133a:	2178      	movs	r1, #120	@ 0x78
 800133c:	2067      	movs	r0, #103	@ 0x67
 800133e:	f7ff f973 	bl	8000628 <hdmirxset>
        hdmirxwr(REG_RX_068,0x00);
 8001342:	2100      	movs	r1, #0
 8001344:	2068      	movs	r0, #104	@ 0x68
 8001346:	f7ff f959 	bl	80005fc <hdmirxwr>
        HDMIRX_VIDEO_PRINTF((" Clear Reg67 and Reg68 ...\n"));
 800134a:	48a0      	ldr	r0, [pc, #640]	@ (80015cc <SetColorSpaceConvert+0x2fc>)
 800134c:	f004 f8f8 	bl	8005540 <puts>
        if(it6802->m_bInputVideoMode & F_MODE_ITU709)
 8001350:	7d3b      	ldrb	r3, [r7, #20]
 8001352:	06db      	lsls	r3, r3, #27
 8001354:	f140 80db 	bpl.w	800150e <SetColorSpaceConvert+0x23e>
            HDMIRX_VIDEO_PRINTF(("ITU709 "));
 8001358:	489d      	ldr	r0, [pc, #628]	@ (80015d0 <SetColorSpaceConvert+0x300>)
 800135a:	f004 f889 	bl	8005470 <iprintf>
            if(it6802->m_bInputVideoMode & F_MODE_16_235)
 800135e:	7d3b      	ldrb	r3, [r7, #20]
 8001360:	069e      	lsls	r6, r3, #26
 8001362:	f140 80cc 	bpl.w	80014fe <SetColorSpaceConvert+0x22e>
                HDMIRX_VIDEO_PRINTF((" 16-235\n"));
 8001366:	489b      	ldr	r0, [pc, #620]	@ (80015d4 <SetColorSpaceConvert+0x304>)
 8001368:	f004 f8ea 	bl	8005540 <puts>
        chgbank(1);    //for CSC setting Reg170 ~ Reg184 !!!!
 800136c:	2001      	movs	r0, #1
 800136e:	f7ff faa7 	bl	80008c0 <chgbank>
    if( byteno>0 )
 8001372:	4a99      	ldr	r2, [pc, #612]	@ (80015d8 <SetColorSpaceConvert+0x308>)
 8001374:	2115      	movs	r1, #21
 8001376:	2070      	movs	r0, #112	@ 0x70
 8001378:	f7ff f91e 	bl	80005b8 <hdmirxbwr.part.0>
                    cscpwd = 0;
 800137c:	2600      	movs	r6, #0
                    csc = B_CSC_RGB2YUV;
 800137e:	2502      	movs	r5, #2
 8001380:	e08a      	b.n	8001498 <SetColorSpaceConvert+0x1c8>
            HDMIRX_VIDEO_PRINTF(("Input mode is YUV420\n"));
 8001382:	4896      	ldr	r0, [pc, #600]	@ (80015dc <SetColorSpaceConvert+0x30c>)
             HDMIRX_VIDEO_PRINTF(("Input mode is YUV444\n"));
 8001384:	f004 f8dc 	bl	8005540 <puts>
    unsigned char filter = 0; // filter is for Video CTRL DN_FREE_GO, EN_DITHER, and ENUDFILT
 8001388:	2400      	movs	r4, #0
            cscpwd = B_PWD_CSC;
 800138a:	2680      	movs	r6, #128	@ 0x80
        if((it6802->m_bInputVideoMode&F_MODE_CLRMOD_MASK)==F_MODE_RGB24)
 800138c:	7d3d      	ldrb	r5, [r7, #20]
 800138e:	f015 0503 	ands.w	r5, r5, #3
 8001392:	f040 810f 	bne.w	80015b4 <SetColorSpaceConvert+0x2e4>
            if(it6802->RGBQuantizationRange == 1)    // Limited range from HDMI source
 8001396:	f897 0062 	ldrb.w	r0, [r7, #98]	@ 0x62
 800139a:	2801      	cmp	r0, #1
 800139c:	f040 80f3 	bne.w	8001586 <SetColorSpaceConvert+0x2b6>
                 if((it6802->m_bOutputVideoMode & F_MODE_16_235)!=F_MODE_16_235)    // Full range to back-end device
 80013a0:	7cfb      	ldrb	r3, [r7, #19]
 80013a2:	f013 0820 	ands.w	r8, r3, #32
 80013a6:	d177      	bne.n	8001498 <SetColorSpaceConvert+0x1c8>
                    chgbank(1);    //for CSC setting Reg170 ~ Reg184 !!!!
 80013a8:	f7ff fa8a 	bl	80008c0 <chgbank>
    if( byteno>0 )
 80013ac:	2115      	movs	r1, #21
 80013ae:	4a8c      	ldr	r2, [pc, #560]	@ (80015e0 <SetColorSpaceConvert+0x310>)
 80013b0:	2070      	movs	r0, #112	@ 0x70
 80013b2:	f7ff f901 	bl	80005b8 <hdmirxbwr.part.0>
                    chgbank(0);
 80013b6:	4640      	mov	r0, r8
 80013b8:	f7ff fa82 	bl	80008c0 <chgbank>
                    hdmirxset(REG_RX_067,0x78,0x78);
 80013bc:	2278      	movs	r2, #120	@ 0x78
 80013be:	2067      	movs	r0, #103	@ 0x67
 80013c0:	4611      	mov	r1, r2
 80013c2:	f7ff f931 	bl	8000628 <hdmirxset>
                    hdmirxwr(REG_RX_068,0xED);
 80013c6:	21ed      	movs	r1, #237	@ 0xed
                    hdmirxwr(REG_RX_068,0x10);
 80013c8:	2068      	movs	r0, #104	@ 0x68
 80013ca:	f7ff f917 	bl	80005fc <hdmirxwr>
                    cscpwd = 0;
 80013ce:	e7d5      	b.n	800137c <SetColorSpaceConvert+0xac>
             HDMIRX_VIDEO_PRINTF(("Input mode is YUV444\n"));
 80013d0:	4884      	ldr	r0, [pc, #528]	@ (80015e4 <SetColorSpaceConvert+0x314>)
 80013d2:	e7d7      	b.n	8001384 <SetColorSpaceConvert+0xb4>
            HDMIRX_VIDEO_PRINTF(("Input mode is YUV422\n"));
 80013d4:	4884      	ldr	r0, [pc, #528]	@ (80015e8 <SetColorSpaceConvert+0x318>)
 80013d6:	f004 f8b3 	bl	8005540 <puts>
            if(it6802->m_bOutputVideoMode & F_MODE_EN_DITHER)// RGB24 to YUV422 need up/dn filter.
 80013da:	f997 3013 	ldrsb.w	r3, [r7, #19]
            if(it6802->m_bOutputVideoMode & F_MODE_EN_UDFILT)// RGB24 to YUV422 need up/dn filter.
 80013de:	7cfc      	ldrb	r4, [r7, #19]
            if(it6802->m_bOutputVideoMode & F_MODE_EN_DITHER)// RGB24 to YUV422 need up/dn filter.
 80013e0:	2b00      	cmp	r3, #0
 80013e2:	da15      	bge.n	8001410 <SetColorSpaceConvert+0x140>
                filter |= B_RX_EN_UDFILTER | B_RX_DNFREE_GO;
 80013e4:	2405      	movs	r4, #5
 80013e6:	e015      	b.n	8001414 <SetColorSpaceConvert+0x144>
        switch(it6802->m_bInputVideoMode&F_MODE_CLRMOD_MASK)
 80013e8:	7d3b      	ldrb	r3, [r7, #20]
 80013ea:	f003 0303 	and.w	r3, r3, #3
 80013ee:	2b01      	cmp	r3, #1
 80013f0:	d012      	beq.n	8001418 <SetColorSpaceConvert+0x148>
 80013f2:	2b02      	cmp	r3, #2
 80013f4:	d008      	beq.n	8001408 <SetColorSpaceConvert+0x138>
 80013f6:	2b00      	cmp	r3, #0
 80013f8:	d18c      	bne.n	8001314 <SetColorSpaceConvert+0x44>
             HDMIRX_VIDEO_PRINTF(("Input mode is RGB444\n"));
 80013fa:	4873      	ldr	r0, [pc, #460]	@ (80015c8 <SetColorSpaceConvert+0x2f8>)
 80013fc:	f004 f8a0 	bl	8005540 <puts>
            if(it6802->m_bOutputVideoMode & F_MODE_EN_UDFILT)// RGB24 to YUV422 need up/dn filter.
 8001400:	7cfc      	ldrb	r4, [r7, #19]
 8001402:	f3c4 1480 	ubfx	r4, r4, #6, #1
 8001406:	e797      	b.n	8001338 <SetColorSpaceConvert+0x68>
             HDMIRX_VIDEO_PRINTF(("Input mode is YUV444\n"));
 8001408:	4876      	ldr	r0, [pc, #472]	@ (80015e4 <SetColorSpaceConvert+0x314>)
 800140a:	f004 f899 	bl	8005540 <puts>
            if(it6802->m_bOutputVideoMode & F_MODE_EN_UDFILT)
 800140e:	7cfc      	ldrb	r4, [r7, #19]
            if(it6802->m_bOutputVideoMode & F_MODE_EN_UDFILT)// RGB24 to YUV422 need up/dn filter.
 8001410:	f3c4 1480 	ubfx	r4, r4, #6, #1
    cscpwd = 0;
 8001414:	2600      	movs	r6, #0
 8001416:	e7b9      	b.n	800138c <SetColorSpaceConvert+0xbc>
             HDMIRX_VIDEO_PRINTF(("Input mode is YUV422\n"));
 8001418:	4873      	ldr	r0, [pc, #460]	@ (80015e8 <SetColorSpaceConvert+0x318>)
 800141a:	f004 f891 	bl	8005540 <puts>
            if(it6802->m_bOutputVideoMode & F_MODE_EN_DITHER)// RGB24 to YUV422 need up/dn filter.
 800141e:	f997 3013 	ldrsb.w	r3, [r7, #19]
 8001422:	2b00      	cmp	r3, #0
 8001424:	f6bf af76 	bge.w	8001314 <SetColorSpaceConvert+0x44>
 8001428:	e7dc      	b.n	80013e4 <SetColorSpaceConvert+0x114>
         HDMIRX_VIDEO_PRINTF(("Output mode is RGB24\n"));
 800142a:	4870      	ldr	r0, [pc, #448]	@ (80015ec <SetColorSpaceConvert+0x31c>)
 800142c:	f004 f888 	bl	8005540 <puts>
        switch(it6802->m_bInputVideoMode&F_MODE_CLRMOD_MASK)
 8001430:	7d3b      	ldrb	r3, [r7, #20]
 8001432:	f003 0303 	and.w	r3, r3, #3
 8001436:	2b01      	cmp	r3, #1
 8001438:	d057      	beq.n	80014ea <SetColorSpaceConvert+0x21a>
 800143a:	2b02      	cmp	r3, #2
 800143c:	d004      	beq.n	8001448 <SetColorSpaceConvert+0x178>
 800143e:	2b00      	cmp	r3, #0
 8001440:	f47f af68 	bne.w	8001314 <SetColorSpaceConvert+0x44>
             HDMIRX_VIDEO_PRINTF(("Input mode is RGB444\n"));
 8001444:	4860      	ldr	r0, [pc, #384]	@ (80015c8 <SetColorSpaceConvert+0x2f8>)
 8001446:	e79d      	b.n	8001384 <SetColorSpaceConvert+0xb4>
             HDMIRX_VIDEO_PRINTF(("Input mode is YUV444\n"));
 8001448:	4866      	ldr	r0, [pc, #408]	@ (80015e4 <SetColorSpaceConvert+0x314>)
 800144a:	f004 f879 	bl	8005540 <puts>
        HDMIRX_VIDEO_PRINTF(("CSC = YUV2RGB "));
 800144e:	4868      	ldr	r0, [pc, #416]	@ (80015f0 <SetColorSpaceConvert+0x320>)
 8001450:	f004 f80e 	bl	8005470 <iprintf>
        hdmirxset(REG_RX_067,0x78,0x00);
 8001454:	2200      	movs	r2, #0
 8001456:	2178      	movs	r1, #120	@ 0x78
 8001458:	2067      	movs	r0, #103	@ 0x67
 800145a:	f7ff f8e5 	bl	8000628 <hdmirxset>
        hdmirxwr(REG_RX_068,0x00);
 800145e:	2100      	movs	r1, #0
 8001460:	2068      	movs	r0, #104	@ 0x68
 8001462:	f7ff f8cb 	bl	80005fc <hdmirxwr>
        HDMIRX_VIDEO_PRINTF((" Clear Reg67 and Reg68 ...\n"));
 8001466:	4859      	ldr	r0, [pc, #356]	@ (80015cc <SetColorSpaceConvert+0x2fc>)
 8001468:	f004 f86a 	bl	8005540 <puts>
        if(it6802->m_bInputVideoMode & F_MODE_ITU709)
 800146c:	7d3b      	ldrb	r3, [r7, #20]
 800146e:	06d8      	lsls	r0, r3, #27
 8001470:	d573      	bpl.n	800155a <SetColorSpaceConvert+0x28a>
            HDMIRX_VIDEO_PRINTF(("ITU709 "));
 8001472:	4857      	ldr	r0, [pc, #348]	@ (80015d0 <SetColorSpaceConvert+0x300>)
 8001474:	f003 fffc 	bl	8005470 <iprintf>
            if(it6802->m_bOutputVideoMode & F_MODE_16_235)
 8001478:	7cfb      	ldrb	r3, [r7, #19]
 800147a:	0699      	lsls	r1, r3, #26
 800147c:	d565      	bpl.n	800154a <SetColorSpaceConvert+0x27a>
                HDMIRX_VIDEO_PRINTF(("16-235\n"));
 800147e:	485d      	ldr	r0, [pc, #372]	@ (80015f4 <SetColorSpaceConvert+0x324>)
 8001480:	f004 f85e 	bl	8005540 <puts>
        chgbank(1);    //for CSC setting Reg170 ~ Reg184 !!!!
 8001484:	2001      	movs	r0, #1
 8001486:	f7ff fa1b 	bl	80008c0 <chgbank>
    if( byteno>0 )
 800148a:	4a5b      	ldr	r2, [pc, #364]	@ (80015f8 <SetColorSpaceConvert+0x328>)
 800148c:	2115      	movs	r1, #21
 800148e:	2070      	movs	r0, #112	@ 0x70
 8001490:	f7ff f892 	bl	80005b8 <hdmirxbwr.part.0>
                    csc = B_CSC_RGB2YUV;
 8001494:	2600      	movs	r6, #0
 8001496:	2503      	movs	r5, #3
    chgbank(0);
 8001498:	2000      	movs	r0, #0
 800149a:	f7ff fa11 	bl	80008c0 <chgbank>
        hdmirxset(REG_RX_OUT_CSC_CTRL,(M_CSC_SEL_MASK),csc);
 800149e:	462a      	mov	r2, r5
 80014a0:	2103      	movs	r1, #3
 80014a2:	2065      	movs	r0, #101	@ 0x65
 80014a4:	f7ff f8c0 	bl	8000628 <hdmirxset>
    hdmirxset(REG_RX_VIDEO_CTRL1,(B_RX_DNFREE_GO|B_RX_EN_DITHER|B_RX_EN_UDFILTER),filter);
 80014a8:	4622      	mov	r2, r4
 80014aa:	2107      	movs	r1, #7
 80014ac:	2067      	movs	r0, #103	@ 0x67
 80014ae:	f7ff f8bb 	bl	8000628 <hdmirxset>
    if(csc == B_CSC_BYPASS)
 80014b2:	b945      	cbnz	r5, 80014c6 <SetColorSpaceConvert+0x1f6>
        hdmirxset(REG_RX_067,0x78,0x00);
 80014b4:	2178      	movs	r1, #120	@ 0x78
 80014b6:	462a      	mov	r2, r5
 80014b8:	2067      	movs	r0, #103	@ 0x67
 80014ba:	f7ff f8b5 	bl	8000628 <hdmirxset>
        hdmirxwr(REG_RX_068,0x00);
 80014be:	4629      	mov	r1, r5
 80014c0:	2068      	movs	r0, #104	@ 0x68
 80014c2:	f7ff f89b 	bl	80005fc <hdmirxwr>
    hdmirxset(REG_RX_051, B_PWD_CSC, cscpwd);/*20230525*/
 80014c6:	4632      	mov	r2, r6
 80014c8:	2180      	movs	r1, #128	@ 0x80
 80014ca:	2051      	movs	r0, #81	@ 0x51
 80014cc:	f7ff f8ac 	bl	8000628 <hdmirxset>
    if(it6802->device_version != 0xC0){
 80014d0:	f897 30af 	ldrb.w	r3, [r7, #175]	@ 0xaf
 80014d4:	2bc0      	cmp	r3, #192	@ 0xc0
 80014d6:	d071      	beq.n	80015bc <SetColorSpaceConvert+0x2ec>
        if(cscpwd&B_PWD_CSC)
 80014d8:	2e00      	cmp	r6, #0
 80014da:	d06d      	beq.n	80015b8 <SetColorSpaceConvert+0x2e8>
            hdmirxset(REG_RX_050, 0x03, DCLK_DELAY_CSC_OFF);
 80014dc:	2200      	movs	r2, #0
}
 80014de:	e8bd 41f0 	ldmia.w	sp!, {r4, r5, r6, r7, r8, lr}
            hdmirxset(REG_RX_050, 0x03, DCLK_DELAY_CSC_ON);
 80014e2:	2103      	movs	r1, #3
 80014e4:	2050      	movs	r0, #80	@ 0x50
 80014e6:	f7ff b89f 	b.w	8000628 <hdmirxset>
             HDMIRX_VIDEO_PRINTF(("Input mode is YUV422\n"));
 80014ea:	483f      	ldr	r0, [pc, #252]	@ (80015e8 <SetColorSpaceConvert+0x318>)
 80014ec:	f004 f828 	bl	8005540 <puts>
            if(it6802->m_bOutputVideoMode & F_MODE_EN_DITHER)// RGB24 to YUV422 need up/dn filter.
 80014f0:	f997 3013 	ldrsb.w	r3, [r7, #19]
            if(it6802->m_bOutputVideoMode & F_MODE_EN_UDFILT)// RGB24 to YUV422 need up/dn filter.
 80014f4:	7cfc      	ldrb	r4, [r7, #19]
            if(it6802->m_bOutputVideoMode & F_MODE_EN_DITHER)// RGB24 to YUV422 need up/dn filter.
 80014f6:	2b00      	cmp	r3, #0
 80014f8:	da24      	bge.n	8001544 <SetColorSpaceConvert+0x274>
                filter |= B_RX_EN_UDFILTER | B_RX_DNFREE_GO;
 80014fa:	2405      	movs	r4, #5
 80014fc:	e7a7      	b.n	800144e <SetColorSpaceConvert+0x17e>
                HDMIRX_VIDEO_PRINTF((" 0-255\n"));
 80014fe:	483f      	ldr	r0, [pc, #252]	@ (80015fc <SetColorSpaceConvert+0x32c>)
 8001500:	f004 f81e 	bl	8005540 <puts>
        chgbank(1);    //for CSC setting Reg170 ~ Reg184 !!!!
 8001504:	2001      	movs	r0, #1
 8001506:	f7ff f9db 	bl	80008c0 <chgbank>
    if( byteno>0 )
 800150a:	4a3d      	ldr	r2, [pc, #244]	@ (8001600 <SetColorSpaceConvert+0x330>)
 800150c:	e732      	b.n	8001374 <SetColorSpaceConvert+0xa4>
            HDMIRX_VIDEO_PRINTF(("ITU601 "));
 800150e:	483d      	ldr	r0, [pc, #244]	@ (8001604 <SetColorSpaceConvert+0x334>)
 8001510:	f003 ffae 	bl	8005470 <iprintf>
            if(it6802->m_bInputVideoMode & F_MODE_16_235)
 8001514:	7d3b      	ldrb	r3, [r7, #20]
        chgbank(1);    //for CSC setting Reg170 ~ Reg184 !!!!
 8001516:	2001      	movs	r0, #1
            if(it6802->m_bInputVideoMode & F_MODE_16_235)
 8001518:	069d      	lsls	r5, r3, #26
 800151a:	d50a      	bpl.n	8001532 <SetColorSpaceConvert+0x262>
        chgbank(1);    //for CSC setting Reg170 ~ Reg184 !!!!
 800151c:	f7ff f9d0 	bl	80008c0 <chgbank>
    if( byteno>0 )
 8001520:	2070      	movs	r0, #112	@ 0x70
 8001522:	2115      	movs	r1, #21
 8001524:	4a38      	ldr	r2, [pc, #224]	@ (8001608 <SetColorSpaceConvert+0x338>)
 8001526:	f7ff f847 	bl	80005b8 <hdmirxbwr.part.0>
                HDMIRX_VIDEO_PRINTF((" 16-235\n"));
 800152a:	482a      	ldr	r0, [pc, #168]	@ (80015d4 <SetColorSpaceConvert+0x304>)
 800152c:	f004 f808 	bl	8005540 <puts>
    if(csc == B_CSC_BYPASS)
 8001530:	e724      	b.n	800137c <SetColorSpaceConvert+0xac>
        chgbank(1);    //for CSC setting Reg170 ~ Reg184 !!!!
 8001532:	f7ff f9c5 	bl	80008c0 <chgbank>
    if( byteno>0 )
 8001536:	2070      	movs	r0, #112	@ 0x70
 8001538:	2115      	movs	r1, #21
 800153a:	4a34      	ldr	r2, [pc, #208]	@ (800160c <SetColorSpaceConvert+0x33c>)
 800153c:	f7ff f83c 	bl	80005b8 <hdmirxbwr.part.0>
                HDMIRX_VIDEO_PRINTF((" 0-255\n"));
 8001540:	482e      	ldr	r0, [pc, #184]	@ (80015fc <SetColorSpaceConvert+0x32c>)
 8001542:	e7f3      	b.n	800152c <SetColorSpaceConvert+0x25c>
            if(it6802->m_bOutputVideoMode & F_MODE_EN_UDFILT)// RGB24 to YUV422 need up/dn filter.
 8001544:	f3c4 1480 	ubfx	r4, r4, #6, #1
    if(csc == B_CSC_YUV2RGB)
 8001548:	e781      	b.n	800144e <SetColorSpaceConvert+0x17e>
                HDMIRX_VIDEO_PRINTF(("0-255\n"));
 800154a:	4831      	ldr	r0, [pc, #196]	@ (8001610 <SetColorSpaceConvert+0x340>)
 800154c:	f003 fff8 	bl	8005540 <puts>
        chgbank(1);    //for CSC setting Reg170 ~ Reg184 !!!!
 8001550:	2001      	movs	r0, #1
 8001552:	f7ff f9b5 	bl	80008c0 <chgbank>
    if( byteno>0 )
 8001556:	4a2f      	ldr	r2, [pc, #188]	@ (8001614 <SetColorSpaceConvert+0x344>)
 8001558:	e798      	b.n	800148c <SetColorSpaceConvert+0x1bc>
            HDMIRX_VIDEO_PRINTF(("ITU601 "));
 800155a:	482a      	ldr	r0, [pc, #168]	@ (8001604 <SetColorSpaceConvert+0x334>)
 800155c:	f003 ff88 	bl	8005470 <iprintf>
            if(it6802->m_bOutputVideoMode & F_MODE_16_235)
 8001560:	7cfb      	ldrb	r3, [r7, #19]
 8001562:	069a      	lsls	r2, r3, #26
 8001564:	d507      	bpl.n	8001576 <SetColorSpaceConvert+0x2a6>
                HDMIRX_VIDEO_PRINTF(("16-235\n"));
 8001566:	4823      	ldr	r0, [pc, #140]	@ (80015f4 <SetColorSpaceConvert+0x324>)
 8001568:	f003 ffea 	bl	8005540 <puts>
        chgbank(1);    //for CSC setting Reg170 ~ Reg184 !!!!
 800156c:	2001      	movs	r0, #1
 800156e:	f7ff f9a7 	bl	80008c0 <chgbank>
    if( byteno>0 )
 8001572:	4a29      	ldr	r2, [pc, #164]	@ (8001618 <SetColorSpaceConvert+0x348>)
 8001574:	e78a      	b.n	800148c <SetColorSpaceConvert+0x1bc>
                HDMIRX_VIDEO_PRINTF(("0-255\n"));
 8001576:	4826      	ldr	r0, [pc, #152]	@ (8001610 <SetColorSpaceConvert+0x340>)
 8001578:	f003 ffe2 	bl	8005540 <puts>
        chgbank(1);    //for CSC setting Reg170 ~ Reg184 !!!!
 800157c:	2001      	movs	r0, #1
 800157e:	f7ff f99f 	bl	80008c0 <chgbank>
    if( byteno>0 )
 8001582:	4a26      	ldr	r2, [pc, #152]	@ (800161c <SetColorSpaceConvert+0x34c>)
 8001584:	e782      	b.n	800148c <SetColorSpaceConvert+0x1bc>
            else if(it6802->RGBQuantizationRange == 2) //Full range from HDMI source
 8001586:	2802      	cmp	r0, #2
 8001588:	d186      	bne.n	8001498 <SetColorSpaceConvert+0x1c8>
                 if((it6802->m_bOutputVideoMode & F_MODE_16_235)==F_MODE_16_235)    // Limited range to back-end device
 800158a:	7cfb      	ldrb	r3, [r7, #19]
 800158c:	069b      	lsls	r3, r3, #26
 800158e:	d583      	bpl.n	8001498 <SetColorSpaceConvert+0x1c8>
                    chgbank(1);    //for CSC setting Reg170 ~ Reg184 !!!!
 8001590:	2001      	movs	r0, #1
 8001592:	f7ff f995 	bl	80008c0 <chgbank>
    if( byteno>0 )
 8001596:	2115      	movs	r1, #21
 8001598:	4a21      	ldr	r2, [pc, #132]	@ (8001620 <SetColorSpaceConvert+0x350>)
 800159a:	2070      	movs	r0, #112	@ 0x70
 800159c:	f7ff f80c 	bl	80005b8 <hdmirxbwr.part.0>
                    chgbank(0);
 80015a0:	4628      	mov	r0, r5
 80015a2:	f7ff f98d 	bl	80008c0 <chgbank>
                    hdmirxset(REG_RX_067,0x78,0x40);
 80015a6:	2178      	movs	r1, #120	@ 0x78
 80015a8:	2240      	movs	r2, #64	@ 0x40
 80015aa:	2067      	movs	r0, #103	@ 0x67
 80015ac:	f7ff f83c 	bl	8000628 <hdmirxset>
                    hdmirxwr(REG_RX_068,0x10);
 80015b0:	2110      	movs	r1, #16
 80015b2:	e709      	b.n	80013c8 <SetColorSpaceConvert+0xf8>
 80015b4:	2500      	movs	r5, #0
 80015b6:	e76f      	b.n	8001498 <SetColorSpaceConvert+0x1c8>
            hdmirxset(REG_RX_050, 0x03, DCLK_DELAY_CSC_ON);
 80015b8:	2202      	movs	r2, #2
 80015ba:	e790      	b.n	80014de <SetColorSpaceConvert+0x20e>
}
 80015bc:	e8bd 81f0 	ldmia.w	sp!, {r4, r5, r6, r7, r8, pc}
 80015c0:	08006990 	.word	0x08006990
 80015c4:	080069b1 	.word	0x080069b1
 80015c8:	08006a06 	.word	0x08006a06
 80015cc:	08006a30 	.word	0x08006a30
 80015d0:	08006a4b 	.word	0x08006a4b
 80015d4:	08006a53 	.word	0x08006a53
 80015d8:	080081fb 	.word	0x080081fb
 80015dc:	080069c7 	.word	0x080069c7
 80015e0:	08008168 	.word	0x08008168
 80015e4:	080069dc 	.word	0x080069dc
 80015e8:	080069f1 	.word	0x080069f1
 80015ec:	08006a1b 	.word	0x08006a1b
 80015f0:	08006a6a 	.word	0x08006a6a
 80015f4:	08006a54 	.word	0x08006a54
 80015f8:	080081a7 	.word	0x080081a7
 80015fc:	08006a5b 	.word	0x08006a5b
 8001600:	080081e6 	.word	0x080081e6
 8001604:	08006a62 	.word	0x08006a62
 8001608:	08008225 	.word	0x08008225
 800160c:	08008210 	.word	0x08008210
 8001610:	08006a5c 	.word	0x08006a5c
 8001614:	08008192 	.word	0x08008192
 8001618:	080081d1 	.word	0x080081d1
 800161c:	080081bc 	.word	0x080081bc
 8001620:	0800817d 	.word	0x0800817d

08001624 <SetVideoInputFormatWithoutInfoFrame>:
{
 8001624:	b538      	push	{r3, r4, r5, lr}
 8001626:	4604      	mov	r4, r0
 8001628:	460d      	mov	r5, r1
    i=hdmirxrd(REG_RX_IN_CSC_CTRL);
 800162a:	2071      	movs	r0, #113	@ 0x71
 800162c:	f7fe ffd4 	bl	80005d8 <hdmirxrd>
    it6802->m_bInputVideoMode &= ~ F_MODE_16_235;
 8001630:	7d22      	ldrb	r2, [r4, #20]
    switch(bInMode)
 8001632:	2d01      	cmp	r5, #1
    it6802->m_bInputVideoMode &= ~ F_MODE_16_235;
 8001634:	f002 02dc 	and.w	r2, r2, #220	@ 0xdc
 8001638:	f000 03fc 	and.w	r3, r0, #252	@ 0xfc
 800163c:	7522      	strb	r2, [r4, #20]
    switch(bInMode)
 800163e:	d013      	beq.n	8001668 <SetVideoInputFormatWithoutInfoFrame+0x44>
 8001640:	2d02      	cmp	r5, #2
 8001642:	d00b      	beq.n	800165c <SetVideoInputFormatWithoutInfoFrame+0x38>
 8001644:	b94d      	cbnz	r5, 800165a <SetVideoInputFormatWithoutInfoFrame+0x36>
    i &=(~M_INPUT_COLOR_MASK);
 8001646:	f043 0104 	orr.w	r1, r3, #4
    hdmirxwr(REG_RX_IN_CSC_CTRL,i);
 800164a:	2071      	movs	r0, #113	@ 0x71
 800164c:	f7fe ffd6 	bl	80005fc <hdmirxwr>
    it6802->prevAVIDB[0] = 0xFF;
 8001650:	23ff      	movs	r3, #255	@ 0xff
 8001652:	f884 306b 	strb.w	r3, [r4, #107]	@ 0x6b
    it6802->prevAVIDB[1] = 0xFF;
 8001656:	f884 306c 	strb.w	r3, [r4, #108]	@ 0x6c
}
 800165a:	bd38      	pop	{r3, r4, r5, pc}
    i |=B_INPUT_YUV444;
 800165c:	f043 0106 	orr.w	r1, r3, #6
    it6802->m_bInputVideoMode |=F_MODE_YUV444;
 8001660:	f042 0202 	orr.w	r2, r2, #2
        it6802->m_bInputVideoMode |=F_MODE_YUV422;
 8001664:	7522      	strb	r2, [r4, #20]
        break;
 8001666:	e7f0      	b.n	800164a <SetVideoInputFormatWithoutInfoFrame+0x26>
    i |=B_INPUT_YUV422;
 8001668:	f043 0105 	orr.w	r1, r3, #5
        it6802->m_bInputVideoMode |=F_MODE_YUV422;
 800166c:	f042 0201 	orr.w	r2, r2, #1
 8001670:	e7f8      	b.n	8001664 <SetVideoInputFormatWithoutInfoFrame+0x40>
	...

08001674 <SetColorimetryByMode>:
{
 8001674:	b538      	push	{r3, r4, r5, lr}
 8001676:	4604      	mov	r4, r0
    RxClkXCNT=hdmirxrd(REG_RX_PIXCLK_SPEED);
 8001678:	209a      	movs	r0, #154	@ 0x9a
 800167a:	f7fe ffad 	bl	80005d8 <hdmirxrd>
 800167e:	4605      	mov	r5, r0
   HDMIRX_VIDEO_PRINTF((" SetColorimetryByMode() REG_RX_PIXCLK_SPEED=%X\n", (int) RxClkXCNT));
 8001680:	4601      	mov	r1, r0
 8001682:	4806      	ldr	r0, [pc, #24]	@ (800169c <SetColorimetryByMode+0x28>)
 8001684:	f003 fef4 	bl	8005470 <iprintf>
    it6802->m_bInputVideoMode &=~F_MODE_ITU709;
 8001688:	7d23      	ldrb	r3, [r4, #20]
     if(RxClkXCNT <0x34)
 800168a:	2d33      	cmp	r5, #51	@ 0x33
    it6802->m_bInputVideoMode &=~F_MODE_ITU709;
 800168c:	f003 03ef 	and.w	r3, r3, #239	@ 0xef
        it6802->m_bInputVideoMode |=F_MODE_ITU709;
 8001690:	bf98      	it	ls
 8001692:	f043 0310 	orrls.w	r3, r3, #16
 8001696:	7523      	strb	r3, [r4, #20]
}
 8001698:	bd38      	pop	{r3, r4, r5, pc}
 800169a:	bf00      	nop
 800169c:	08006a79 	.word	0x08006a79

080016a0 <IT6802_HalfPCLKFinetune>:
{
 80016a0:	b570      	push	{r4, r5, r6, lr}
 80016a2:	4606      	mov	r6, r0
    if (it6802->device_version == 0xC0) C0rev = 1 ;
 80016a4:	f890 50af 	ldrb.w	r5, [r0, #175]	@ 0xaf
    rddata = hdmirxrd(0x9A);
 80016a8:	209a      	movs	r0, #154	@ 0x9a
 80016aa:	f7fe ff95 	bl	80005d8 <hdmirxrd>
    PCLK=(int)(RCLKVALUE*255/rddata);
 80016ae:	f640 31f4 	movw	r1, #3060	@ 0xbf4
 80016b2:	fbb1 f1f0 	udiv	r1, r1, r0
    OutInMode = ((it6802->m_bOutputVideoMode&F_MODE_CLRMOD_MASK) << 4)|(it6802->m_bInputVideoMode&F_MODE_CLRMOD_MASK);
 80016b6:	7cf4      	ldrb	r4, [r6, #19]
 80016b8:	7d33      	ldrb	r3, [r6, #20]
 80016ba:	0124      	lsls	r4, r4, #4
 80016bc:	f004 0430 	and.w	r4, r4, #48	@ 0x30
 80016c0:	f003 0303 	and.w	r3, r3, #3
    if(PCLK<250)          // Clive
 80016c4:	29f9      	cmp	r1, #249	@ 0xf9
    OutInMode = ((it6802->m_bOutputVideoMode&F_MODE_CLRMOD_MASK) << 4)|(it6802->m_bInputVideoMode&F_MODE_CLRMOD_MASK);
 80016c6:	ea44 0403 	orr.w	r4, r4, r3
    if(PCLK<250)          // Clive
 80016ca:	dc49      	bgt.n	8001760 <IT6802_HalfPCLKFinetune+0xc0>
        HDMIRX_VIDEO_PRINTF(("IT6803JudgeOutputMode( ) PCLK Low =================== %d\n",(int) PCLK));
 80016cc:	4843      	ldr	r0, [pc, #268]	@ (80017dc <IT6802_HalfPCLKFinetune+0x13c>)
 80016ce:	f003 fecf 	bl	8005470 <iprintf>
        HDMIRX_VIDEO_PRINTF(("IT6803JudgeOutputMode( ) OutInMode = 0x%x\n",(int) OutInMode));
 80016d2:	4621      	mov	r1, r4
 80016d4:	4842      	ldr	r0, [pc, #264]	@ (80017e0 <IT6802_HalfPCLKFinetune+0x140>)
 80016d6:	f003 fecb 	bl	8005470 <iprintf>
        HDMIRX_VIDEO_PRINTF(("IT6803JudgeOutputMode( ) REG_RX_050 = 0x%x\n",(int) hdmirxrd(0x50)));
 80016da:	2050      	movs	r0, #80	@ 0x50
 80016dc:	f7fe ff7c 	bl	80005d8 <hdmirxrd>
 80016e0:	4601      	mov	r1, r0
 80016e2:	4840      	ldr	r0, [pc, #256]	@ (80017e4 <IT6802_HalfPCLKFinetune+0x144>)
 80016e4:	f003 fec4 	bl	8005470 <iprintf>
        switch(OutInMode)
 80016e8:	2c23      	cmp	r4, #35	@ 0x23
 80016ea:	d829      	bhi.n	8001740 <IT6802_HalfPCLKFinetune+0xa0>
 80016ec:	2c0f      	cmp	r4, #15
 80016ee:	d814      	bhi.n	800171a <IT6802_HalfPCLKFinetune+0x7a>
 80016f0:	2c01      	cmp	r4, #1
 80016f2:	d01d      	beq.n	8001730 <IT6802_HalfPCLKFinetune+0x90>
 80016f4:	d821      	bhi.n	800173a <IT6802_HalfPCLKFinetune+0x9a>
                      if(!C0rev) {
 80016f6:	2dc0      	cmp	r5, #192	@ 0xc0
 80016f8:	d004      	beq.n	8001704 <IT6802_HalfPCLKFinetune+0x64>
                          hdmirxset(REG_RX_050, 0x0C, 0x00);
 80016fa:	2200      	movs	r2, #0
 80016fc:	210c      	movs	r1, #12
 80016fe:	2050      	movs	r0, #80	@ 0x50
 8001700:	f7fe ff92 	bl	8000628 <hdmirxset>
                      hdmirxset(REG_RX_064, 0x80, 0x80);
 8001704:	2280      	movs	r2, #128	@ 0x80
 8001706:	2064      	movs	r0, #100	@ 0x64
 8001708:	4611      	mov	r1, r2
 800170a:	f7fe ff8d 	bl	8000628 <hdmirxset>
                      hdmirxset(REG_RX_064, 0x80, 0x00);
 800170e:	2200      	movs	r2, #0
 8001710:	2180      	movs	r1, #128	@ 0x80
 8001712:	2064      	movs	r0, #100	@ 0x64
 8001714:	f7fe ff88 	bl	8000628 <hdmirxset>
                      break;
 8001718:	e012      	b.n	8001740 <IT6802_HalfPCLKFinetune+0xa0>
 800171a:	2301      	movs	r3, #1
        switch(OutInMode)
 800171c:	3c10      	subs	r4, #16
 800171e:	4a32      	ldr	r2, [pc, #200]	@ (80017e8 <IT6802_HalfPCLKFinetune+0x148>)
 8001720:	b2e4      	uxtb	r4, r4
 8001722:	40a3      	lsls	r3, r4
 8001724:	401a      	ands	r2, r3
 8001726:	2a00      	cmp	r2, #0
 8001728:	d1e5      	bne.n	80016f6 <IT6802_HalfPCLKFinetune+0x56>
 800172a:	4a30      	ldr	r2, [pc, #192]	@ (80017ec <IT6802_HalfPCLKFinetune+0x14c>)
 800172c:	401a      	ands	r2, r3
 800172e:	b13a      	cbz	r2, 8001740 <IT6802_HalfPCLKFinetune+0xa0>
                      if(!C0rev) {
 8001730:	2dc0      	cmp	r5, #192	@ 0xc0
 8001732:	d0e7      	beq.n	8001704 <IT6802_HalfPCLKFinetune+0x64>
                          hdmirxset(REG_RX_050, 0x1C, 0x00);
 8001734:	2200      	movs	r2, #0
 8001736:	211c      	movs	r1, #28
 8001738:	e7e1      	b.n	80016fe <IT6802_HalfPCLKFinetune+0x5e>
        switch(OutInMode)
 800173a:	3c02      	subs	r4, #2
 800173c:	2c01      	cmp	r4, #1
 800173e:	d9da      	bls.n	80016f6 <IT6802_HalfPCLKFinetune+0x56>
        if(C0rev) {
 8001740:	2dc0      	cmp	r5, #192	@ 0xc0
 8001742:	d104      	bne.n	800174e <IT6802_HalfPCLKFinetune+0xae>
            hdmirxset(REG_RX_056, 0x07, 0x06);
 8001744:	2206      	movs	r2, #6
            hdmirxset(REG_RX_056, 0x07, 0x04);
 8001746:	2107      	movs	r1, #7
 8001748:	2056      	movs	r0, #86	@ 0x56
 800174a:	f7fe ff6d 	bl	8000628 <hdmirxset>
    HDMIRX_VIDEO_PRINTF(("IT6803JudgeOutputMode( ) REG_RX_050 = 0x%x\n",(int) hdmirxrd(0x50)));
 800174e:	2050      	movs	r0, #80	@ 0x50
 8001750:	f7fe ff42 	bl	80005d8 <hdmirxrd>
}
 8001754:	e8bd 4070 	ldmia.w	sp!, {r4, r5, r6, lr}
    HDMIRX_VIDEO_PRINTF(("IT6803JudgeOutputMode( ) REG_RX_050 = 0x%x\n",(int) hdmirxrd(0x50)));
 8001758:	4601      	mov	r1, r0
 800175a:	4822      	ldr	r0, [pc, #136]	@ (80017e4 <IT6802_HalfPCLKFinetune+0x144>)
 800175c:	f003 be88 	b.w	8005470 <iprintf>
        HDMIRX_VIDEO_PRINTF(("IT6803JudgeOutputMode( ) PCLK High =================== %d\n",(int) PCLK));
 8001760:	4823      	ldr	r0, [pc, #140]	@ (80017f0 <IT6802_HalfPCLKFinetune+0x150>)
 8001762:	f003 fe85 	bl	8005470 <iprintf>
        HDMIRX_VIDEO_PRINTF(("IT6803JudgeOutputMode( ) OutInMode = 0x%x\n",(int) OutInMode));
 8001766:	4621      	mov	r1, r4
 8001768:	481d      	ldr	r0, [pc, #116]	@ (80017e0 <IT6802_HalfPCLKFinetune+0x140>)
 800176a:	f003 fe81 	bl	8005470 <iprintf>
        HDMIRX_VIDEO_PRINTF(("IT6803JudgeOutputMode( ) REG_RX_050 = 0x%x\n",(int) hdmirxrd(0x50)));
 800176e:	2050      	movs	r0, #80	@ 0x50
 8001770:	f7fe ff32 	bl	80005d8 <hdmirxrd>
 8001774:	4601      	mov	r1, r0
 8001776:	481b      	ldr	r0, [pc, #108]	@ (80017e4 <IT6802_HalfPCLKFinetune+0x144>)
 8001778:	f003 fe7a 	bl	8005470 <iprintf>
        switch(OutInMode)
 800177c:	2c23      	cmp	r4, #35	@ 0x23
 800177e:	d829      	bhi.n	80017d4 <IT6802_HalfPCLKFinetune+0x134>
 8001780:	2c0f      	cmp	r4, #15
 8001782:	d814      	bhi.n	80017ae <IT6802_HalfPCLKFinetune+0x10e>
 8001784:	2c01      	cmp	r4, #1
 8001786:	d01d      	beq.n	80017c4 <IT6802_HalfPCLKFinetune+0x124>
 8001788:	d821      	bhi.n	80017ce <IT6802_HalfPCLKFinetune+0x12e>
                      if(!C0rev) {
 800178a:	2dc0      	cmp	r5, #192	@ 0xc0
 800178c:	d004      	beq.n	8001798 <IT6802_HalfPCLKFinetune+0xf8>
                          hdmirxset(REG_RX_050, 0x0C, 0x08);
 800178e:	2208      	movs	r2, #8
 8001790:	210c      	movs	r1, #12
 8001792:	2050      	movs	r0, #80	@ 0x50
 8001794:	f7fe ff48 	bl	8000628 <hdmirxset>
                      hdmirxset(REG_RX_064, 0x80, 0x80);
 8001798:	2280      	movs	r2, #128	@ 0x80
 800179a:	2064      	movs	r0, #100	@ 0x64
 800179c:	4611      	mov	r1, r2
 800179e:	f7fe ff43 	bl	8000628 <hdmirxset>
                      hdmirxset(REG_RX_064, 0x80, 0x00);
 80017a2:	2200      	movs	r2, #0
 80017a4:	2180      	movs	r1, #128	@ 0x80
 80017a6:	2064      	movs	r0, #100	@ 0x64
 80017a8:	f7fe ff3e 	bl	8000628 <hdmirxset>
                      break;
 80017ac:	e012      	b.n	80017d4 <IT6802_HalfPCLKFinetune+0x134>
 80017ae:	2301      	movs	r3, #1
        switch(OutInMode)
 80017b0:	3c10      	subs	r4, #16
 80017b2:	4a0d      	ldr	r2, [pc, #52]	@ (80017e8 <IT6802_HalfPCLKFinetune+0x148>)
 80017b4:	b2e4      	uxtb	r4, r4
 80017b6:	40a3      	lsls	r3, r4
 80017b8:	401a      	ands	r2, r3
 80017ba:	2a00      	cmp	r2, #0
 80017bc:	d1e5      	bne.n	800178a <IT6802_HalfPCLKFinetune+0xea>
 80017be:	4a0b      	ldr	r2, [pc, #44]	@ (80017ec <IT6802_HalfPCLKFinetune+0x14c>)
 80017c0:	401a      	ands	r2, r3
 80017c2:	b13a      	cbz	r2, 80017d4 <IT6802_HalfPCLKFinetune+0x134>
                      if(!C0rev) {
 80017c4:	2dc0      	cmp	r5, #192	@ 0xc0
 80017c6:	d0e7      	beq.n	8001798 <IT6802_HalfPCLKFinetune+0xf8>
                         hdmirxset(REG_RX_050, 0x1C, 0x08);
 80017c8:	2208      	movs	r2, #8
 80017ca:	211c      	movs	r1, #28
 80017cc:	e7e1      	b.n	8001792 <IT6802_HalfPCLKFinetune+0xf2>
        switch(OutInMode)
 80017ce:	3c02      	subs	r4, #2
 80017d0:	2c01      	cmp	r4, #1
 80017d2:	d9da      	bls.n	800178a <IT6802_HalfPCLKFinetune+0xea>
        if(C0rev) {
 80017d4:	2dc0      	cmp	r5, #192	@ 0xc0
 80017d6:	d1ba      	bne.n	800174e <IT6802_HalfPCLKFinetune+0xae>
            hdmirxset(REG_RX_056, 0x07, 0x04);
 80017d8:	2204      	movs	r2, #4
 80017da:	e7b4      	b.n	8001746 <IT6802_HalfPCLKFinetune+0xa6>
 80017dc:	08006aa9 	.word	0x08006aa9
 80017e0:	08006ae3 	.word	0x08006ae3
 80017e4:	08006b0e 	.word	0x08006b0e
 80017e8:	000d000a 	.word	0x000d000a
 80017ec:	00020005 	.word	0x00020005
 80017f0:	08006b3a 	.word	0x08006b3a

080017f4 <IT6802_DCLKInvertConfigure>:
    if(!IsHalfBusDDR){
 80017f4:	4602      	mov	r2, r0
 80017f6:	b918      	cbnz	r0, 8001800 <IT6802_DCLKInvertConfigure+0xc>
        hdmirxset(REG_RX_050,0x10,0x00);
 80017f8:	2110      	movs	r1, #16
 80017fa:	2050      	movs	r0, #80	@ 0x50
 80017fc:	f7fe bf14 	b.w	8000628 <hdmirxset>
 8001800:	f7ff b864 	b.w	80008cc <IT6802_DCLKInvertConfigure.part.0>

08001804 <IT6802_VideoOutputModeSet>:
{
 8001804:	b570      	push	{r4, r5, r6, lr}
 8001806:	4606      	mov	r6, r0
    HDMIRX_VIDEO_PRINTF(("IT6802_VideoOutputModeSet()\n"));
 8001808:	484a      	ldr	r0, [pc, #296]	@ (8001934 <IT6802_VideoOutputModeSet+0x130>)
 800180a:	f003 fe99 	bl	8005540 <puts>
    HDMIRX_VIDEO_PRINTF((VModeStateStr[(unsigned char)it6802->m_VidOutConfigMode]));
 800180e:	4b4a      	ldr	r3, [pc, #296]	@ (8001938 <IT6802_VideoOutputModeSet+0x134>)
 8001810:	f896 2055 	ldrb.w	r2, [r6, #85]	@ 0x55
 8001814:	f853 0022 	ldr.w	r0, [r3, r2, lsl #2]
 8001818:	f003 fe2a 	bl	8005470 <iprintf>
    HDMIRX_VIDEO_PRINTF(("+++ \n"));
 800181c:	4847      	ldr	r0, [pc, #284]	@ (800193c <IT6802_VideoOutputModeSet+0x138>)
 800181e:	f003 fe8f 	bl	8005540 <puts>
    ucReg51 = hdmirxrd(REG_RX_051)&0x9B;    // Reg51 [6] Half PCLK DDR , [5] Half Bus DDR , [2] CCIR656 mode
 8001822:	2051      	movs	r0, #81	@ 0x51
 8001824:	f7fe fed8 	bl	80005d8 <hdmirxrd>
 8001828:	f000 059b 	and.w	r5, r0, #155	@ 0x9b
    ucReg65 = hdmirxrd(REG_RX_065)&0x0F;    // Reg65 [7] BTA1004Fmt , [6] SyncEmb , [5:4] output color 0x00 RGB, 0x10 YUV422, 0x20 YUV444
 800182c:	2065      	movs	r0, #101	@ 0x65
 800182e:	f7fe fed3 	bl	80005d8 <hdmirxrd>
 8001832:	7cf3      	ldrb	r3, [r6, #19]
 8001834:	f000 040f 	and.w	r4, r0, #15
    switch((it6802->m_bOutputVideoMode&F_MODE_CLRMOD_MASK))
 8001838:	f003 0303 	and.w	r3, r3, #3
 800183c:	2b01      	cmp	r3, #1
 800183e:	d034      	beq.n	80018aa <IT6802_VideoOutputModeSet+0xa6>
 8001840:	2b02      	cmp	r3, #2
 8001842:	d035      	beq.n	80018b0 <IT6802_VideoOutputModeSet+0xac>
    if(( it6802->m_VidOutDataTrgger == eHalfPCLKDDR) &&
 8001844:	f896 3056 	ldrb.w	r3, [r6, #86]	@ 0x56
 8001848:	2b01      	cmp	r3, #1
 800184a:	d107      	bne.n	800185c <IT6802_VideoOutputModeSet+0x58>
 800184c:	f896 3057 	ldrb.w	r3, [r6, #87]	@ 0x57
 8001850:	3b02      	subs	r3, #2
 8001852:	2b01      	cmp	r3, #1
 8001854:	d902      	bls.n	800185c <IT6802_VideoOutputModeSet+0x58>
        IT6802_HalfPCLKFinetune(it6802);
 8001856:	4630      	mov	r0, r6
 8001858:	f7ff ff22 	bl	80016a0 <IT6802_HalfPCLKFinetune>
    if(it6802->device_version == 0xC0){
 800185c:	f896 30af 	ldrb.w	r3, [r6, #175]	@ 0xaf
 8001860:	2bc0      	cmp	r3, #192	@ 0xc0
 8001862:	d10a      	bne.n	800187a <IT6802_VideoOutputModeSet+0x76>
        if(( it6802->m_VidOutDataTrgger == eHalfPCLKDDR) &&
 8001864:	f896 3056 	ldrb.w	r3, [r6, #86]	@ 0x56
 8001868:	2b01      	cmp	r3, #1
 800186a:	d124      	bne.n	80018b6 <IT6802_VideoOutputModeSet+0xb2>
            ((it6802->m_VidOutSyncMode ==eCCIR656EmbSync) ||
 800186c:	f896 3057 	ldrb.w	r3, [r6, #87]	@ 0x57
        if(( it6802->m_VidOutDataTrgger == eHalfPCLKDDR) &&
 8001870:	3b02      	subs	r3, #2
 8001872:	2b01      	cmp	r3, #1
 8001874:	d81f      	bhi.n	80018b6 <IT6802_VideoOutputModeSet+0xb2>
    if(!IsHalfBusDDR){
 8001876:	f7ff f829 	bl	80008cc <IT6802_DCLKInvertConfigure.part.0>
    if((it6802->m_VidOutSyncMode == eCCIR656EmbSync) ||
 800187a:	f896 3057 	ldrb.w	r3, [r6, #87]	@ 0x57
 800187e:	3b02      	subs	r3, #2
 8001880:	2b01      	cmp	r3, #1
 8001882:	d809      	bhi.n	8001898 <IT6802_VideoOutputModeSet+0x94>
        hdmirxset(REG_RX_064, 0x80, 0x80);
 8001884:	2280      	movs	r2, #128	@ 0x80
 8001886:	2064      	movs	r0, #100	@ 0x64
 8001888:	4611      	mov	r1, r2
 800188a:	f7fe fecd 	bl	8000628 <hdmirxset>
        hdmirxset(REG_RX_064, 0x80, 0x00);
 800188e:	2200      	movs	r2, #0
 8001890:	2180      	movs	r1, #128	@ 0x80
 8001892:	2064      	movs	r0, #100	@ 0x64
 8001894:	f7fe fec8 	bl	8000628 <hdmirxset>
    switch(it6802->m_VidOutDataTrgger)
 8001898:	f896 3056 	ldrb.w	r3, [r6, #86]	@ 0x56
 800189c:	3b01      	subs	r3, #1
 800189e:	2b03      	cmp	r3, #3
 80018a0:	d80f      	bhi.n	80018c2 <IT6802_VideoOutputModeSet+0xbe>
 80018a2:	e8df f003 	tbb	[pc, r3]
 80018a6:	190c      	.short	0x190c
 80018a8:	1c1e      	.short	0x1c1e
            ucReg65|=(B_OUTPUT_YUV422);        // 0x10 B_OUTPUT_YUV422
 80018aa:	f044 0410 	orr.w	r4, r4, #16
            break;
 80018ae:	e7c9      	b.n	8001844 <IT6802_VideoOutputModeSet+0x40>
            ucReg65|=(B_OUTPUT_YUV444);        // 0x20 B_OUTPUT_YUV444
 80018b0:	f044 0420 	orr.w	r4, r4, #32
            break;
 80018b4:	e7c6      	b.n	8001844 <IT6802_VideoOutputModeSet+0x40>
            IT6802_DCLKInvertConfigure(0);
 80018b6:	2000      	movs	r0, #0
 80018b8:	f7ff ff9c 	bl	80017f4 <IT6802_DCLKInvertConfigure>
 80018bc:	e7dd      	b.n	800187a <IT6802_VideoOutputModeSet+0x76>
            ucReg51|=(B_HALF_PCLKC);            // 0x40 half PCLK
 80018be:	f045 0540 	orr.w	r5, r5, #64	@ 0x40
    switch(it6802->m_VidOutSyncMode)
 80018c2:	f896 3057 	ldrb.w	r3, [r6, #87]	@ 0x57
 80018c6:	2b02      	cmp	r3, #2
 80018c8:	d00e      	beq.n	80018e8 <IT6802_VideoOutputModeSet+0xe4>
 80018ca:	2b03      	cmp	r3, #3
 80018cc:	d02e      	beq.n	800192c <IT6802_VideoOutputModeSet+0x128>
 80018ce:	2b01      	cmp	r3, #1
 80018d0:	d10c      	bne.n	80018ec <IT6802_VideoOutputModeSet+0xe8>
            ucReg65|=(B_SyncEmb);    // 0x40 SyncEmb
 80018d2:	f044 0440 	orr.w	r4, r4, #64	@ 0x40
            break;
 80018d6:	e009      	b.n	80018ec <IT6802_VideoOutputModeSet+0xe8>
            ucReg51|=(B_OUT_DDR);                // 0x20 half bus
 80018d8:	f045 0520 	orr.w	r5, r5, #32
            break;
 80018dc:	e7f1      	b.n	80018c2 <IT6802_VideoOutputModeSet+0xbe>
            ucReg51|=(B_HALF_PCLKC);            // 0x40 half PCLK
 80018de:	f045 0540 	orr.w	r5, r5, #64	@ 0x40
            ucReg65|=(B_BTA1004Fmt|B_SyncEmb);    // 0x80 BTA1004 + 0x40 SyncEmb
 80018e2:	f044 04c0 	orr.w	r4, r4, #192	@ 0xc0
            break;
 80018e6:	e7ec      	b.n	80018c2 <IT6802_VideoOutputModeSet+0xbe>
            ucReg51|=(B_CCIR656);    // 0x04 CCIR656
 80018e8:	f045 0504 	orr.w	r5, r5, #4
    HDMIRX_VIDEO_PRINTF(("Reg51 = %X ",(int) ucReg51));
 80018ec:	4629      	mov	r1, r5
 80018ee:	4814      	ldr	r0, [pc, #80]	@ (8001940 <IT6802_VideoOutputModeSet+0x13c>)
 80018f0:	f003 fdbe 	bl	8005470 <iprintf>
    HDMIRX_VIDEO_PRINTF(("Reg65 = %X\n",(int) ucReg65));
 80018f4:	4621      	mov	r1, r4
 80018f6:	4813      	ldr	r0, [pc, #76]	@ (8001944 <IT6802_VideoOutputModeSet+0x140>)
 80018f8:	f003 fdba 	bl	8005470 <iprintf>
    hdmirxwr(REG_RX_051,ucReg51);
 80018fc:	4629      	mov	r1, r5
 80018fe:	2051      	movs	r0, #81	@ 0x51
 8001900:	f7fe fe7c 	bl	80005fc <hdmirxwr>
    hdmirxwr(REG_RX_065,ucReg65);
 8001904:	4621      	mov	r1, r4
 8001906:	2065      	movs	r0, #101	@ 0x65
 8001908:	f7fe fe78 	bl	80005fc <hdmirxwr>
    chgbank(1) ;
 800190c:	2001      	movs	r0, #1
 800190e:	f7fe ffd7 	bl	80008c0 <chgbank>
    hdmirxwr(REG_RX_18D, CBL);
 8001912:	2100      	movs	r1, #0
 8001914:	208d      	movs	r0, #141	@ 0x8d
 8001916:	f7fe fe71 	bl	80005fc <hdmirxwr>
    hdmirxwr(REG_RX_18E, YBL);
 800191a:	2100      	movs	r1, #0
 800191c:	208e      	movs	r0, #142	@ 0x8e
 800191e:	f7fe fe6d 	bl	80005fc <hdmirxwr>
}
 8001922:	e8bd 4070 	ldmia.w	sp!, {r4, r5, r6, lr}
    chgbank(0) ;
 8001926:	2000      	movs	r0, #0
 8001928:	f7fe bfca 	b.w	80008c0 <chgbank>
            ucReg51|=(B_CCIR656);    // 0x04 CCIR656
 800192c:	f045 0504 	orr.w	r5, r5, #4
 8001930:	e7cf      	b.n	80018d2 <IT6802_VideoOutputModeSet+0xce>
 8001932:	bf00      	nop
 8001934:	08006b75 	.word	0x08006b75
 8001938:	20000154 	.word	0x20000154
 800193c:	08006b91 	.word	0x08006b91
 8001940:	08006b96 	.word	0x08006b96
 8001944:	08006ba2 	.word	0x08006ba2

08001948 <SetVideoOutputColorFormat>:
    switch(it6802->m_bOutputVideoMode&F_MODE_CLRMOD_MASK) {
 8001948:	7cc2      	ldrb	r2, [r0, #19]
 800194a:	f002 0203 	and.w	r2, r2, #3
 800194e:	2a01      	cmp	r2, #1
 8001950:	d006      	beq.n	8001960 <SetVideoOutputColorFormat+0x18>
 8001952:	2a02      	cmp	r2, #2
 8001954:	d006      	beq.n	8001964 <SetVideoOutputColorFormat+0x1c>
 8001956:	b93a      	cbnz	r2, 8001968 <SetVideoOutputColorFormat+0x20>
            hdmirxset(REG_RX_OUT_CSC_CTRL,(M_OUTPUT_COLOR_MASK),B_OUTPUT_YUV444);
 8001958:	2130      	movs	r1, #48	@ 0x30
 800195a:	2065      	movs	r0, #101	@ 0x65
 800195c:	f7fe be64 	b.w	8000628 <hdmirxset>
            hdmirxset(REG_RX_OUT_CSC_CTRL,(M_OUTPUT_COLOR_MASK),B_OUTPUT_YUV422);
 8001960:	2210      	movs	r2, #16
 8001962:	e7f9      	b.n	8001958 <SetVideoOutputColorFormat+0x10>
            hdmirxset(REG_RX_OUT_CSC_CTRL,(M_OUTPUT_COLOR_MASK),B_OUTPUT_YUV444);
 8001964:	2220      	movs	r2, #32
 8001966:	e7f7      	b.n	8001958 <SetVideoOutputColorFormat+0x10>
}
 8001968:	4770      	bx	lr
	...

0800196c <SetNewInfoVideoOutput>:
{
 800196c:	b510      	push	{r4, lr}
 800196e:	4604      	mov	r4, r0
    HDMIRX_VIDEO_PRINTF(("SetNewInfoVideoOutput()\n"));
 8001970:	4808      	ldr	r0, [pc, #32]	@ (8001994 <SetNewInfoVideoOutput+0x28>)
 8001972:	f003 fde5 	bl	8005540 <puts>
    SetVideoInputFormatWithInfoFrame(it6802);
 8001976:	4620      	mov	r0, r4
 8001978:	f7ff fc36 	bl	80011e8 <SetVideoInputFormatWithInfoFrame>
    SetColorimetryByInfoFrame(it6802);
 800197c:	4620      	mov	r0, r4
 800197e:	f7ff fc8b 	bl	8001298 <SetColorimetryByInfoFrame>
    SetColorSpaceConvert(it6802);
 8001982:	4620      	mov	r0, r4
 8001984:	f7ff fca4 	bl	80012d0 <SetColorSpaceConvert>
    SetVideoOutputColorFormat(it6802);    //2013-0502
 8001988:	4620      	mov	r0, r4
}
 800198a:	e8bd 4010 	ldmia.w	sp!, {r4, lr}
    SetVideoOutputColorFormat(it6802);    //2013-0502
 800198e:	f7ff bfdb 	b.w	8001948 <SetVideoOutputColorFormat>
 8001992:	bf00      	nop
 8001994:	08006bae 	.word	0x08006bae

08001998 <SetDVIVideoOutput>:
{
 8001998:	b510      	push	{r4, lr}
 800199a:	4604      	mov	r4, r0
    HDMIRX_VIDEO_PRINTF(("SetDVIVideoOutput()\n"));
 800199c:	4808      	ldr	r0, [pc, #32]	@ (80019c0 <SetDVIVideoOutput+0x28>)
 800199e:	f003 fdcf 	bl	8005540 <puts>
    SetVideoInputFormatWithoutInfoFrame(it6802,F_MODE_RGB24);
 80019a2:	2100      	movs	r1, #0
 80019a4:	4620      	mov	r0, r4
 80019a6:	f7ff fe3d 	bl	8001624 <SetVideoInputFormatWithoutInfoFrame>
    SetColorimetryByMode(it6802);
 80019aa:	4620      	mov	r0, r4
 80019ac:	f7ff fe62 	bl	8001674 <SetColorimetryByMode>
    SetColorSpaceConvert(it6802);
 80019b0:	4620      	mov	r0, r4
 80019b2:	f7ff fc8d 	bl	80012d0 <SetColorSpaceConvert>
    SetVideoOutputColorFormat(it6802);    //2013-0502
 80019b6:	4620      	mov	r0, r4
}
 80019b8:	e8bd 4010 	ldmia.w	sp!, {r4, lr}
    SetVideoOutputColorFormat(it6802);    //2013-0502
 80019bc:	f7ff bfc4 	b.w	8001948 <SetVideoOutputColorFormat>
 80019c0:	08006bc6 	.word	0x08006bc6

080019c4 <IT6802VideoOutputConfigure>:
{
 80019c4:	b510      	push	{r4, lr}
 80019c6:	4604      	mov	r4, r0
    it6802->m_bUpHDMIMode =IsHDMIMode();
 80019c8:	f7ff fbb9 	bl	800113e <IsHDMIMode>
 80019cc:	f894 30ab 	ldrb.w	r3, [r4, #171]	@ 0xab
 80019d0:	f360 1345 	bfi	r3, r0, #5, #1
 80019d4:	f884 30ab 	strb.w	r3, [r4, #171]	@ 0xab
    if(it6802->m_bUpHDMIMode==FALSE)
 80019d8:	069b      	lsls	r3, r3, #26
    SetDVIVideoOutput(it6802);
 80019da:	4620      	mov	r0, r4
    if(it6802->m_bUpHDMIMode==FALSE)
 80019dc:	d413      	bmi.n	8001a06 <IT6802VideoOutputConfigure+0x42>
    SetDVIVideoOutput(it6802);
 80019de:	f7ff ffdb 	bl	8001998 <SetDVIVideoOutput>
    it6802->m_NewAVIInfoFrameF=FALSE;
 80019e2:	f894 30ab 	ldrb.w	r3, [r4, #171]	@ 0xab
    it6802->GCP_CD = ((hdmirxrd(0x99)&0xF0)>>4);
 80019e6:	2099      	movs	r0, #153	@ 0x99
    it6802->m_NewAVIInfoFrameF=FALSE;
 80019e8:	f023 0380 	bic.w	r3, r3, #128	@ 0x80
 80019ec:	f884 30ab 	strb.w	r3, [r4, #171]	@ 0xab
    it6802->GCP_CD = ((hdmirxrd(0x99)&0xF0)>>4);
 80019f0:	f7fe fdf2 	bl	80005d8 <hdmirxrd>
 80019f4:	1100      	asrs	r0, r0, #4
    switch( it6802->GCP_CD ) {
 80019f6:	2805      	cmp	r0, #5
    it6802->GCP_CD = ((hdmirxrd(0x99)&0xF0)>>4);
 80019f8:	f884 0069 	strb.w	r0, [r4, #105]	@ 0x69
    switch( it6802->GCP_CD ) {
 80019fc:	d009      	beq.n	8001a12 <IT6802VideoOutputConfigure+0x4e>
 80019fe:	2806      	cmp	r0, #6
 8001a00:	d011      	beq.n	8001a26 <IT6802VideoOutputConfigure+0x62>
    hdmirxset(0x65, 0x0C, 0x00);
 8001a02:	2200      	movs	r2, #0
 8001a04:	e006      	b.n	8001a14 <IT6802VideoOutputConfigure+0x50>
        GetAVIInfoFrame(it6802);
 8001a06:	f7ff fbb3 	bl	8001170 <GetAVIInfoFrame>
        SetNewInfoVideoOutput(it6802);
 8001a0a:	4620      	mov	r0, r4
 8001a0c:	f7ff ffae 	bl	800196c <SetNewInfoVideoOutput>
 8001a10:	e7e7      	b.n	80019e2 <IT6802VideoOutputConfigure+0x1e>
    hdmirxset(0x65, 0x0C, 0x04);
 8001a12:	2204      	movs	r2, #4
    hdmirxset(0x65, 0x0C, 0x00);
 8001a14:	210c      	movs	r1, #12
 8001a16:	2065      	movs	r0, #101	@ 0x65
 8001a18:	f7fe fe06 	bl	8000628 <hdmirxset>
    IT6802_VideoOutputModeSet(it6802);
 8001a1c:	4620      	mov	r0, r4
}
 8001a1e:	e8bd 4010 	ldmia.w	sp!, {r4, lr}
    IT6802_VideoOutputModeSet(it6802);
 8001a22:	f7ff beef 	b.w	8001804 <IT6802_VideoOutputModeSet>
    hdmirxset(0x65, 0x0C, 0x08);
 8001a26:	2208      	movs	r2, #8
 8001a28:	e7f4      	b.n	8001a14 <IT6802VideoOutputConfigure+0x50>
	...

08001a2c <it6802HPDCtrl>:
{
 8001a2c:	b538      	push	{r3, r4, r5, lr}
 8001a2e:	4605      	mov	r5, r0
 8001a30:	460c      	mov	r4, r1
    HDMIRX_VIDEO_PRINTF(("it6802HPDCtrl(%bd,%bd);\n",ucport,ucEnable)) ;
 8001a32:	460a      	mov	r2, r1
 8001a34:	4601      	mov	r1, r0
 8001a36:	4825      	ldr	r0, [pc, #148]	@ (8001acc <it6802HPDCtrl+0xa0>)
 8001a38:	f003 fd1a 	bl	8005470 <iprintf>
    if(ucport == 0)
 8001a3c:	bbc5      	cbnz	r5, 8001ab0 <it6802HPDCtrl+0x84>
                if((hdmirxrd(REG_RX_P0_SYS_STATUS) & B_P0_PWR5V_DET))
 8001a3e:	200a      	movs	r0, #10
        if(ucEnable == 0)
 8001a40:	bb0c      	cbnz	r4, 8001a86 <it6802HPDCtrl+0x5a>
                if((hdmirxrd(REG_RX_P0_SYS_STATUS) & B_P0_PWR5V_DET))
 8001a42:	f7fe fdc9 	bl	80005d8 <hdmirxrd>
 8001a46:	f010 0501 	ands.w	r5, r0, #1
 8001a4a:	d00c      	beq.n	8001a66 <it6802HPDCtrl+0x3a>
                    HDMIRX_VIDEO_PRINTF(("Port 0 HPD HDMI 00000\n"));
 8001a4c:	4820      	ldr	r0, [pc, #128]	@ (8001ad0 <it6802HPDCtrl+0xa4>)
 8001a4e:	f003 fd77 	bl	8005540 <puts>
                    chgbank(1);
 8001a52:	2001      	movs	r0, #1
 8001a54:	f7fe ff34 	bl	80008c0 <chgbank>
                    hdmirxset(REG_RX_1B0, 0x03, 0x01); //clear port 0 HPD=1 for EDID update
 8001a58:	2201      	movs	r2, #1
                hdmirxset(REG_RX_1B0, 0x03, 0x00); //set port 0 Tri-State
 8001a5a:	2103      	movs	r1, #3
 8001a5c:	20b0      	movs	r0, #176	@ 0xb0
 8001a5e:	f7fe fde3 	bl	8000628 <hdmirxset>
                chgbank(0);
 8001a62:	4620      	mov	r0, r4
 8001a64:	e00b      	b.n	8001a7e <it6802HPDCtrl+0x52>
                    HDMIRX_VIDEO_PRINTF(("Port 0 HPD Tri-State\n"));
 8001a66:	481b      	ldr	r0, [pc, #108]	@ (8001ad4 <it6802HPDCtrl+0xa8>)
 8001a68:	f003 fd6a 	bl	8005540 <puts>
                    chgbank(1);
 8001a6c:	2001      	movs	r0, #1
 8001a6e:	f7fe ff27 	bl	80008c0 <chgbank>
                    hdmirxset(REG_RX_1B0, 0x03, 0x00); //clear port 0 HPD=1 for EDID update
 8001a72:	462a      	mov	r2, r5
 8001a74:	2103      	movs	r1, #3
 8001a76:	20b0      	movs	r0, #176	@ 0xb0
 8001a78:	f7fe fdd6 	bl	8000628 <hdmirxset>
                    chgbank(0);
 8001a7c:	4628      	mov	r0, r5
}
 8001a7e:	e8bd 4038 	ldmia.w	sp!, {r3, r4, r5, lr}
                chgbank(0);
 8001a82:	f7fe bf1d 	b.w	80008c0 <chgbank>
            if((hdmirxrd(REG_RX_P0_SYS_STATUS) & B_P0_PWR5V_DET))
 8001a86:	f7fe fda7 	bl	80005d8 <hdmirxrd>
 8001a8a:	f010 0401 	ands.w	r4, r0, #1
 8001a8e:	d007      	beq.n	8001aa0 <it6802HPDCtrl+0x74>
                    HDMIRX_VIDEO_PRINTF(("Port 0 HPD HDMI 11111\n"));
 8001a90:	4811      	ldr	r0, [pc, #68]	@ (8001ad8 <it6802HPDCtrl+0xac>)
 8001a92:	f003 fd55 	bl	8005540 <puts>
                    chgbank(1);
 8001a96:	2001      	movs	r0, #1
 8001a98:	f7fe ff12 	bl	80008c0 <chgbank>
                    hdmirxset(REG_RX_1B0, 0x03, 0x03); //set port 0 HPD=1
 8001a9c:	2203      	movs	r2, #3
 8001a9e:	e7e9      	b.n	8001a74 <it6802HPDCtrl+0x48>
                HDMIRX_VIDEO_PRINTF(("Port 0 HPD but HPD Tristate by 5V.\n"));
 8001aa0:	480e      	ldr	r0, [pc, #56]	@ (8001adc <it6802HPDCtrl+0xb0>)
 8001aa2:	f003 fd4d 	bl	8005540 <puts>
                chgbank(1);
 8001aa6:	2001      	movs	r0, #1
 8001aa8:	f7fe ff0a 	bl	80008c0 <chgbank>
                hdmirxset(REG_RX_1B0, 0x03, 0x00); //set port 0 Tri-State
 8001aac:	4622      	mov	r2, r4
 8001aae:	e7d4      	b.n	8001a5a <it6802HPDCtrl+0x2e>
         if(ucEnable)
 8001ab0:	4d0b      	ldr	r5, [pc, #44]	@ (8001ae0 <it6802HPDCtrl+0xb4>)
 8001ab2:	b12c      	cbz	r4, 8001ac0 <it6802HPDCtrl+0x94>
            HDMIRX_VIDEO_PRINTF(("Port 1 HPD 11111\n"));
 8001ab4:	480b      	ldr	r0, [pc, #44]	@ (8001ae4 <it6802HPDCtrl+0xb8>)
 8001ab6:	f003 fd43 	bl	8005540 <puts>
             gpHPD0 = HPDON;
 8001aba:	2300      	movs	r3, #0
             gpHPD0 = HPDOFF;
 8001abc:	602b      	str	r3, [r5, #0]
}
 8001abe:	bd38      	pop	{r3, r4, r5, pc}
            HDMIRX_VIDEO_PRINTF(("Port 1 HPD 00000\n"));
 8001ac0:	4809      	ldr	r0, [pc, #36]	@ (8001ae8 <it6802HPDCtrl+0xbc>)
 8001ac2:	f003 fd3d 	bl	8005540 <puts>
             gpHPD0 = HPDOFF;
 8001ac6:	2301      	movs	r3, #1
 8001ac8:	e7f8      	b.n	8001abc <it6802HPDCtrl+0x90>
 8001aca:	bf00      	nop
 8001acc:	08006bda 	.word	0x08006bda
 8001ad0:	08006bf3 	.word	0x08006bf3
 8001ad4:	08006c09 	.word	0x08006c09
 8001ad8:	08006c1e 	.word	0x08006c1e
 8001adc:	08006c34 	.word	0x08006c34
 8001ae0:	2000039c 	.word	0x2000039c
 8001ae4:	08006c57 	.word	0x08006c57
 8001ae8:	08006c68 	.word	0x08006c68

08001aec <hdmirx_ECCTimingOut>:
{
 8001aec:	b510      	push	{r4, lr}
 8001aee:	4604      	mov	r4, r0
    IT6802_DEBUG_INT_PRINTF(("CDR reset for hdmirx_ECCTimingOut()\n"));
 8001af0:	4818      	ldr	r0, [pc, #96]	@ (8001b54 <hdmirx_ECCTimingOut+0x68>)
 8001af2:	f003 fd25 	bl	8005540 <puts>
    if(ucport == F_PORT_SEL_0)
 8001af6:	b9bc      	cbnz	r4, 8001b28 <hdmirx_ECCTimingOut+0x3c>
        it6802HPDCtrl(0,0);    // MxL port , set HPD = 0
 8001af8:	4621      	mov	r1, r4
 8001afa:	4620      	mov	r0, r4
 8001afc:	f7ff ff96 	bl	8001a2c <it6802HPDCtrl>
        hdmirxset(REG_RX_011,(B_P0_DCLKRST|B_P0_CDRRST|B_P0_HDCPRST|B_P0_SWRST),(B_P0_DCLKRST|B_P0_CDRRST|B_P0_HDCPRST|B_P0_SWRST));
 8001b00:	220f      	movs	r2, #15
 8001b02:	2011      	movs	r0, #17
 8001b04:	4611      	mov	r1, r2
 8001b06:	f7fe fd8f 	bl	8000628 <hdmirxset>
        delay1ms(300);
 8001b0a:	f44f 7096 	mov.w	r0, #300	@ 0x12c
 8001b0e:	f7fe fd51 	bl	80005b4 <delay1ms>
        hdmirxset(REG_RX_011,(B_P0_DCLKRST|B_P0_CDRRST|B_P0_HDCPRST|B_P0_SWRST),0x00);
 8001b12:	210f      	movs	r1, #15
 8001b14:	4622      	mov	r2, r4
 8001b16:	2011      	movs	r0, #17
 8001b18:	f7fe fd86 	bl	8000628 <hdmirxset>
        it6802HPDCtrl(0,1);    // MxL port , set HPD = 1
 8001b1c:	2101      	movs	r1, #1
 8001b1e:	4620      	mov	r0, r4
}
 8001b20:	e8bd 4010 	ldmia.w	sp!, {r4, lr}
        it6802HPDCtrl(1,1);    // HDMI port , set HPD = 1
 8001b24:	f7ff bf82 	b.w	8001a2c <it6802HPDCtrl>
        it6802HPDCtrl(1,0);    // HDMI port , set HPD = 0
 8001b28:	2100      	movs	r1, #0
 8001b2a:	2001      	movs	r0, #1
 8001b2c:	f7ff ff7e 	bl	8001a2c <it6802HPDCtrl>
        hdmirxset(REG_RX_018,(B_P1_DCLKRST|B_P1_CDRRST|B_P1_HDCPRST|B_P1_SWRST),(B_P1_DCLKRST|B_P1_CDRRST|B_P1_HDCPRST|B_P1_SWRST));
 8001b30:	220f      	movs	r2, #15
 8001b32:	2018      	movs	r0, #24
 8001b34:	4611      	mov	r1, r2
 8001b36:	f7fe fd77 	bl	8000628 <hdmirxset>
        delay1ms(300);
 8001b3a:	f44f 7096 	mov.w	r0, #300	@ 0x12c
 8001b3e:	f7fe fd39 	bl	80005b4 <delay1ms>
        hdmirxset(REG_RX_018,(B_P1_DCLKRST|B_P1_CDRRST|B_P1_HDCPRST|B_P1_SWRST),0x00);
 8001b42:	210f      	movs	r1, #15
 8001b44:	2200      	movs	r2, #0
 8001b46:	2018      	movs	r0, #24
 8001b48:	f7fe fd6e 	bl	8000628 <hdmirxset>
        it6802HPDCtrl(1,1);    // HDMI port , set HPD = 1
 8001b4c:	2101      	movs	r1, #1
 8001b4e:	4608      	mov	r0, r1
 8001b50:	e7e6      	b.n	8001b20 <hdmirx_ECCTimingOut+0x34>
 8001b52:	bf00      	nop
 8001b54:	08006c79 	.word	0x08006c79

08001b58 <aud_fiforst>:
    hdmirxset(REG_RX_010, 0x02, 0x02);
 8001b58:	2202      	movs	r2, #2
{
 8001b5a:	b510      	push	{r4, lr}
    hdmirxset(REG_RX_010, 0x02, 0x02);
 8001b5c:	4611      	mov	r1, r2
 8001b5e:	2010      	movs	r0, #16
 8001b60:	f7fe fd62 	bl	8000628 <hdmirxset>
    hdmirxset(REG_RX_010, 0x02, 0x00);
 8001b64:	2200      	movs	r2, #0
 8001b66:	2102      	movs	r1, #2
 8001b68:	2010      	movs	r0, #16
 8001b6a:	f7fe fd5d 	bl	8000628 <hdmirxset>
    uc = hdmirxrd(REG_RX_07B);
 8001b6e:	207b      	movs	r0, #123	@ 0x7b
 8001b70:	f7fe fd32 	bl	80005d8 <hdmirxrd>
 8001b74:	4604      	mov	r4, r0
    hdmirxwr(REG_RX_07B, uc);
 8001b76:	4601      	mov	r1, r0
 8001b78:	207b      	movs	r0, #123	@ 0x7b
 8001b7a:	f7fe fd3f 	bl	80005fc <hdmirxwr>
    hdmirxwr(REG_RX_07B, uc);
 8001b7e:	4621      	mov	r1, r4
 8001b80:	207b      	movs	r0, #123	@ 0x7b
 8001b82:	f7fe fd3b 	bl	80005fc <hdmirxwr>
    hdmirxwr(REG_RX_07B, uc);
 8001b86:	4621      	mov	r1, r4
 8001b88:	207b      	movs	r0, #123	@ 0x7b
 8001b8a:	f7fe fd37 	bl	80005fc <hdmirxwr>
    hdmirxwr(REG_RX_07B, uc);
 8001b8e:	4621      	mov	r1, r4
}
 8001b90:	e8bd 4010 	ldmia.w	sp!, {r4, lr}
    hdmirxwr(REG_RX_07B, uc);
 8001b94:	207b      	movs	r0, #123	@ 0x7b
 8001b96:	f7fe bd31 	b.w	80005fc <hdmirxwr>

08001b9a <IT6802AudioOutputEnable>:
    if(bEnable==TRUE)
 8001b9a:	2801      	cmp	r0, #1
{
 8001b9c:	b508      	push	{r3, lr}
    if(bEnable==TRUE)
 8001b9e:	d108      	bne.n	8001bb2 <IT6802AudioOutputEnable+0x18>
        aud_fiforst();
 8001ba0:	f7ff ffda 	bl	8001b58 <aud_fiforst>
        hdmirxset(REG_RX_052,(B_TriI2SIO|B_TriSPDIF),0x00);
 8001ba4:	2200      	movs	r2, #0
}
 8001ba6:	e8bd 4008 	ldmia.w	sp!, {r3, lr}
        hdmirxset(REG_RX_052,(B_TriI2SIO|B_TriSPDIF),0x00);
 8001baa:	211f      	movs	r1, #31
 8001bac:	2052      	movs	r0, #82	@ 0x52
 8001bae:	f7fe bd3b 	b.w	8000628 <hdmirxset>
        hdmirxset(REG_RX_052,(B_TriI2SIO|B_TriSPDIF),(B_TriI2SIO|B_TriSPDIF));
 8001bb2:	221f      	movs	r2, #31
 8001bb4:	e7f7      	b.n	8001ba6 <IT6802AudioOutputEnable+0xc>

08001bb6 <hdmirx_SetHWMuteClrMode>:
    hdmirxset(REG_RX_HWMuteCtrl,(B_HWAudMuteClrMode),(B_HWAudMuteClrMode));
 8001bb6:	2220      	movs	r2, #32
 8001bb8:	207d      	movs	r0, #125	@ 0x7d
 8001bba:	4611      	mov	r1, r2
 8001bbc:	f7fe bd34 	b.w	8000628 <hdmirxset>

08001bc0 <hdmirx_SetHWMuteClr>:
    hdmirxset(REG_RX_HWMuteCtrl,(B_HWMuteClr),(B_HWMuteClr));
 8001bc0:	2210      	movs	r2, #16
 8001bc2:	207d      	movs	r0, #125	@ 0x7d
 8001bc4:	4611      	mov	r1, r2
 8001bc6:	f7fe bd2f 	b.w	8000628 <hdmirxset>

08001bca <hdmirx_ClearHWMuteClr>:
    hdmirxset(REG_RX_HWMuteCtrl,(B_HWMuteClr),0);
 8001bca:	2200      	movs	r2, #0
 8001bcc:	2110      	movs	r1, #16
 8001bce:	207d      	movs	r0, #125	@ 0x7d
 8001bd0:	f7fe bd2a 	b.w	8000628 <hdmirxset>

08001bd4 <getHDMIRXInputAudio>:
{
 8001bd4:	b538      	push	{r3, r4, r5, lr}
 8001bd6:	4604      	mov	r4, r0
    uc = hdmirxrd(REG_RX_0AE);    // REG_RX_AUD_CHSTAT3
 8001bd8:	20ae      	movs	r0, #174	@ 0xae
 8001bda:	f7fe fcfd 	bl	80005d8 <hdmirxrd>
    pAudioCaps->SampleFreq = uc & M_FS;
 8001bde:	f000 000f 	and.w	r0, r0, #15
 8001be2:	70a0      	strb	r0, [r4, #2]
    uc = hdmirxrd(REG_RX_0AA);    //REG_RX_AUDIO_CH_STAT
 8001be4:	20aa      	movs	r0, #170	@ 0xaa
 8001be6:	f7fe fcf7 	bl	80005d8 <hdmirxrd>
    pAudioCaps->AudioFlag = uc & 0xF0;
 8001bea:	f020 030f 	bic.w	r3, r0, #15
 8001bee:	7023      	strb	r3, [r4, #0]
    pAudioCaps->AudSrcEnable=uc&M_AUDIO_CH;
 8001bf0:	f000 030f 	and.w	r3, r0, #15
    uc = hdmirxrd(REG_RX_0AA);    //REG_RX_AUDIO_CH_STAT
 8001bf4:	4605      	mov	r5, r0
    pAudioCaps->AudSrcEnable=uc&M_AUDIO_CH;
 8001bf6:	7063      	strb	r3, [r4, #1]
    pAudioCaps->AudSrcEnable|=hdmirxrd(REG_RX_0AA)&M_AUDIO_CH;
 8001bf8:	20aa      	movs	r0, #170	@ 0xaa
 8001bfa:	f7fe fced 	bl	80005d8 <hdmirxrd>
 8001bfe:	7863      	ldrb	r3, [r4, #1]
 8001c00:	f000 000f 	and.w	r0, r0, #15
 8001c04:	4303      	orrs	r3, r0
    if( (uc & (B_HBRAUDIO|B_DSDAUDIO)) == 0)
 8001c06:	f015 0f60 	tst.w	r5, #96	@ 0x60
    pAudioCaps->AudSrcEnable|=hdmirxrd(REG_RX_0AA)&M_AUDIO_CH;
 8001c0a:	7063      	strb	r3, [r4, #1]
    if( (uc & (B_HBRAUDIO|B_DSDAUDIO)) == 0)
 8001c0c:	d108      	bne.n	8001c20 <getHDMIRXInputAudio+0x4c>
        uc = hdmirxrd(REG_RX_0AB);    //REG_RX_AUD_CHSTAT0
 8001c0e:	20ab      	movs	r0, #171	@ 0xab
 8001c10:	f7fe fce2 	bl	80005d8 <hdmirxrd>
        if( (uc & B_NLPCM ) == 0 )
 8001c14:	07c3      	lsls	r3, r0, #31
            pAudioCaps->AudioFlag |= B_CAP_LPCM;
 8001c16:	bf5e      	ittt	pl
 8001c18:	7823      	ldrbpl	r3, [r4, #0]
 8001c1a:	f043 0301 	orrpl.w	r3, r3, #1
 8001c1e:	7023      	strbpl	r3, [r4, #0]
}
 8001c20:	bd38      	pop	{r3, r4, r5, pc}

08001c22 <IT6802SwitchAudioState>:
{
 8001c22:	b510      	push	{r4, lr}
    if( it6802->m_AState == state )
 8001c24:	7843      	ldrb	r3, [r0, #1]
{
 8001c26:	4604      	mov	r4, r0
    if( it6802->m_AState == state )
 8001c28:	428b      	cmp	r3, r1
 8001c2a:	d017      	beq.n	8001c5c <IT6802SwitchAudioState+0x3a>
    it6802->m_AState=state;
 8001c2c:	7041      	strb	r1, [r0, #1]
    switch(it6802->m_AState)
 8001c2e:	2904      	cmp	r1, #4
 8001c30:	d814      	bhi.n	8001c5c <IT6802SwitchAudioState+0x3a>
 8001c32:	e8df f001 	tbb	[pc, r1]
 8001c36:	0803      	.short	0x0803
 8001c38:	0d13      	.short	0x0d13
 8001c3a:	14          	.byte	0x14
 8001c3b:	00          	.byte	0x00
        hdmirxset(REG_RX_RST_CTRL, B_AUDRST, B_AUDRST);
 8001c3c:	2202      	movs	r2, #2
 8001c3e:	2010      	movs	r0, #16
 8001c40:	4611      	mov	r1, r2
 8001c42:	f7fe fcf1 	bl	8000628 <hdmirxset>
}
 8001c46:	e8bd 4010 	ldmia.w	sp!, {r4, lr}
        IT6802AudioOutputEnable(OFF);
 8001c4a:	2000      	movs	r0, #0
 8001c4c:	f7ff bfa5 	b.w	8001b9a <IT6802AudioOutputEnable>
        hdmirx_SetHWMuteClr();
 8001c50:	f7ff ffb6 	bl	8001bc0 <hdmirx_SetHWMuteClr>
        hdmirx_ClearHWMuteClr();
 8001c54:	f7ff ffb9 	bl	8001bca <hdmirx_ClearHWMuteClr>
        it6802->m_AudioCountingTimer = AUDIO_READY_TIMEOUT;
 8001c58:	23c9      	movs	r3, #201	@ 0xc9
 8001c5a:	8223      	strh	r3, [r4, #16]
}
 8001c5c:	bd10      	pop	{r4, pc}
        aud_fiforst();
 8001c5e:	f7ff ff7b 	bl	8001b58 <aud_fiforst>
}
 8001c62:	e8bd 4010 	ldmia.w	sp!, {r4, lr}
        hdmirxset(REG_RX_052,(B_TriI2SIO|B_TriSPDIF),0x00);
 8001c66:	2200      	movs	r2, #0
 8001c68:	211f      	movs	r1, #31
 8001c6a:	2052      	movs	r0, #82	@ 0x52
 8001c6c:	f7fe bcdc 	b.w	8000628 <hdmirxset>

08001c70 <IT6802AudioHandler>:
   if(it6802->m_AudioCountingTimer > MS_LOOP)
 8001c70:	8a03      	ldrh	r3, [r0, #16]
{
 8001c72:	b537      	push	{r0, r1, r2, r4, r5, lr}
   if(it6802->m_AudioCountingTimer > MS_LOOP)
 8001c74:	2b64      	cmp	r3, #100	@ 0x64
 8001c76:	bf38      	it	cc
 8001c78:	2364      	movcc	r3, #100	@ 0x64
   if(it6802->m_RxHDCPState==RxHDCP_ModeCheck)
 8001c7a:	7882      	ldrb	r2, [r0, #2]
   if(it6802->m_AudioCountingTimer > MS_LOOP)
 8001c7c:	3b64      	subs	r3, #100	@ 0x64
 8001c7e:	b29b      	uxth	r3, r3
   if(it6802->m_RxHDCPState==RxHDCP_ModeCheck)
 8001c80:	2a01      	cmp	r2, #1
{
 8001c82:	4604      	mov	r4, r0
 8001c84:	8203      	strh	r3, [r0, #16]
   if(it6802->m_RxHDCPState==RxHDCP_ModeCheck)
 8001c86:	d073      	beq.n	8001d70 <IT6802AudioHandler+0x100>
    switch(it6802->m_AState)
 8001c88:	7842      	ldrb	r2, [r0, #1]
 8001c8a:	2a03      	cmp	r2, #3
 8001c8c:	d052      	beq.n	8001d34 <IT6802AudioHandler+0xc4>
 8001c8e:	2a04      	cmp	r2, #4
 8001c90:	d057      	beq.n	8001d42 <IT6802AudioHandler+0xd2>
 8001c92:	2a01      	cmp	r2, #1
 8001c94:	d16c      	bne.n	8001d70 <IT6802AudioHandler+0x100>
        getHDMIRXInputAudio(&(it6802->m_RxAudioCaps));
 8001c96:	3003      	adds	r0, #3
 8001c98:	f7ff ff9c 	bl	8001bd4 <getHDMIRXInputAudio>
        if(it6802->m_RxAudioCaps.AudioFlag & B_CAP_AUDIO_ON)
 8001c9c:	f994 3003 	ldrsb.w	r3, [r4, #3]
 8001ca0:	2b00      	cmp	r3, #0
 8001ca2:	da65      	bge.n	8001d70 <IT6802AudioHandler+0x100>
        hdmirxset(REG_RX_MCLK_CTRL,M_MCLKSel,B_256FS);
 8001ca4:	2210      	movs	r2, #16
 8001ca6:	2170      	movs	r1, #112	@ 0x70
 8001ca8:	2054      	movs	r0, #84	@ 0x54
 8001caa:	f7fe fcbd 	bl	8000628 <hdmirxset>
            if(it6802->m_RxAudioCaps.AudioFlag& B_CAP_HBR_AUDIO)
 8001cae:	78e2      	ldrb	r2, [r4, #3]
 8001cb0:	0653      	lsls	r3, r2, #25
 8001cb2:	d514      	bpl.n	8001cde <IT6802AudioHandler+0x6e>
                hdmirxset(REG_RX_077, 0x0C, 0x00);/*20230221*/
 8001cb4:	2200      	movs	r2, #0
 8001cb6:	210c      	movs	r1, #12
 8001cb8:	2077      	movs	r0, #119	@ 0x77
 8001cba:	f7fe fcb5 	bl	8000628 <hdmirxset>
                hdmirxset(REG_RX_07A, 0x30, 0x30);/*20230221*/
 8001cbe:	2230      	movs	r2, #48	@ 0x30
 8001cc0:	207a      	movs	r0, #122	@ 0x7a
 8001cc2:	4611      	mov	r1, r2
 8001cc4:	f7fe fcb0 	bl	8000628 <hdmirxset>
                hdmirxset(REG_RX_07E, 0x30, 0x00);/*20241129*/// to keep reg7E[6] value in initial table.
 8001cc8:	2200      	movs	r2, #0
 8001cca:	2130      	movs	r1, #48	@ 0x30
 8001ccc:	207e      	movs	r0, #126	@ 0x7e
 8001cce:	f7fe fcab 	bl	8000628 <hdmirxset>
                hdmirxset(REG_RX_MCLK_CTRL,M_MCLKSel,B_128FS);    // MCLK = 128fs only for HBR audio
 8001cd2:	2200      	movs	r2, #0
 8001cd4:	2170      	movs	r1, #112	@ 0x70
 8001cd6:	2054      	movs	r0, #84	@ 0x54
                hdmirxset(REG_RX_HWMuteCtrl,B_HWMuteClr,0x00);
 8001cd8:	f7fe fca6 	bl	8000628 <hdmirxset>
 8001cdc:	e013      	b.n	8001d06 <IT6802AudioHandler+0x96>
            else if(it6802->m_RxAudioCaps.AudioFlag& B_CAP_DSD_AUDIO )
 8001cde:	f012 0520 	ands.w	r5, r2, #32
                hdmirxset(REG_RX_077, 0x0C, 0x08);
 8001ce2:	f04f 010c 	mov.w	r1, #12
 8001ce6:	f04f 0208 	mov.w	r2, #8
 8001cea:	f04f 0077 	mov.w	r0, #119	@ 0x77
            else if(it6802->m_RxAudioCaps.AudioFlag& B_CAP_DSD_AUDIO )
 8001cee:	d011      	beq.n	8001d14 <IT6802AudioHandler+0xa4>
                hdmirxset(REG_RX_077, 0x0C, 0x08);
 8001cf0:	f7fe fc9a 	bl	8000628 <hdmirxset>
                hdmirxset(REG_RX_07A, 0x80+0x30, 0x00+B_CTS_RES);/*20230221*/
 8001cf4:	21b0      	movs	r1, #176	@ 0xb0
 8001cf6:	2210      	movs	r2, #16
 8001cf8:	207a      	movs	r0, #122	@ 0x7a
 8001cfa:	f7fe fc95 	bl	8000628 <hdmirxset>
                hdmirxwr(REG_RX_07E, 0x70);/*20230221*/
 8001cfe:	2170      	movs	r1, #112	@ 0x70
 8001d00:	207e      	movs	r0, #126	@ 0x7e
 8001d02:	f7fe fc7b 	bl	80005fc <hdmirxwr>
                hdmirx_SetHWMuteClrMode();
 8001d06:	f7ff ff56 	bl	8001bb6 <hdmirx_SetHWMuteClrMode>
                hdmirx_ResetAudio();
 8001d0a:	f7ff ff25 	bl	8001b58 <aud_fiforst>
            IT6802SwitchAudioState(it6802,ASTATE_WaitForReady);
 8001d0e:	2103      	movs	r1, #3
            IT6802SwitchAudioState(it6802,ASTATE_RequestAudio);
 8001d10:	4620      	mov	r0, r4
 8001d12:	e011      	b.n	8001d38 <IT6802AudioHandler+0xc8>
                hdmirxset(REG_RX_077, 0x0C, 0x08);
 8001d14:	f7fe fc88 	bl	8000628 <hdmirxset>
                hdmirxset(REG_RX_07A, 0x30, B_CTS_RES);
 8001d18:	2210      	movs	r2, #16
 8001d1a:	2130      	movs	r1, #48	@ 0x30
 8001d1c:	207a      	movs	r0, #122	@ 0x7a
 8001d1e:	f7fe fc83 	bl	8000628 <hdmirxset>
                hdmirxset(REG_RX_07E, 0x30, 0x00);/*20241129*/ // to keep reg7E[6] value in initial table.
 8001d22:	462a      	mov	r2, r5
 8001d24:	2130      	movs	r1, #48	@ 0x30
 8001d26:	207e      	movs	r0, #126	@ 0x7e
 8001d28:	f7fe fc7e 	bl	8000628 <hdmirxset>
                hdmirxset(REG_RX_HWMuteCtrl,B_HWMuteClr,0x00);
 8001d2c:	462a      	mov	r2, r5
 8001d2e:	2110      	movs	r1, #16
 8001d30:	207d      	movs	r0, #125	@ 0x7d
 8001d32:	e7d1      	b.n	8001cd8 <IT6802AudioHandler+0x68>
    if(it6802->m_AudioCountingTimer==0)
 8001d34:	b9e3      	cbnz	r3, 8001d70 <IT6802AudioHandler+0x100>
            IT6802SwitchAudioState(it6802,ASTATE_AudioOn);
 8001d36:	2104      	movs	r1, #4
}
 8001d38:	b003      	add	sp, #12
 8001d3a:	e8bd 4030 	ldmia.w	sp!, {r4, r5, lr}
            IT6802SwitchAudioState(it6802,ASTATE_RequestAudio);
 8001d3e:	f7ff bf70 	b.w	8001c22 <IT6802SwitchAudioState>
    if(it6802->m_AudioCountingTimer==0)
 8001d42:	b9ab      	cbnz	r3, 8001d70 <IT6802AudioHandler+0x100>
        it6802->m_AudioCountingTimer = AUDIO_MONITOR_TIMEOUT;
 8001d44:	2397      	movs	r3, #151	@ 0x97
 8001d46:	8203      	strh	r3, [r0, #16]
        getHDMIRXInputAudio(&CurAudioCaps);
 8001d48:	4668      	mov	r0, sp
 8001d4a:	f7ff ff43 	bl	8001bd4 <getHDMIRXInputAudio>
            if(it6802->m_RxAudioCaps.AudioFlag != CurAudioCaps.AudioFlag
 8001d4e:	78e2      	ldrb	r2, [r4, #3]
 8001d50:	f89d 3000 	ldrb.w	r3, [sp]
 8001d54:	429a      	cmp	r2, r3
 8001d56:	d109      	bne.n	8001d6c <IT6802AudioHandler+0xfc>
               || it6802->m_RxAudioCaps.AudSrcEnable != CurAudioCaps.AudSrcEnable
 8001d58:	7922      	ldrb	r2, [r4, #4]
 8001d5a:	f89d 3001 	ldrb.w	r3, [sp, #1]
 8001d5e:	429a      	cmp	r2, r3
 8001d60:	d104      	bne.n	8001d6c <IT6802AudioHandler+0xfc>
               || it6802->m_RxAudioCaps.SampleFreq != CurAudioCaps.SampleFreq)
 8001d62:	7962      	ldrb	r2, [r4, #5]
 8001d64:	f89d 3002 	ldrb.w	r3, [sp, #2]
 8001d68:	429a      	cmp	r2, r3
 8001d6a:	d001      	beq.n	8001d70 <IT6802AudioHandler+0x100>
            IT6802SwitchAudioState(it6802,ASTATE_RequestAudio);
 8001d6c:	2101      	movs	r1, #1
 8001d6e:	e7cf      	b.n	8001d10 <IT6802AudioHandler+0xa0>
}
 8001d70:	b003      	add	sp, #12
 8001d72:	bd30      	pop	{r4, r5, pc}

08001d74 <IT6802_AFE_Rst>:
{
 8001d74:	b510      	push	{r4, lr}
    chgbank(0);
 8001d76:	2000      	movs	r0, #0
 8001d78:	f7fe fda2 	bl	80008c0 <chgbank>
    Reg51h = hdmirxrd(0x51);
 8001d7c:	2051      	movs	r0, #81	@ 0x51
 8001d7e:	f7fe fc2b 	bl	80005d8 <hdmirxrd>
        hdmirxset(REG_RX_018, 0x01, 0x01);
 8001d82:	2201      	movs	r2, #1
    if( Reg51h&0x01 )
 8001d84:	f010 0401 	ands.w	r4, r0, #1
        hdmirxset(REG_RX_018, 0x01, 0x01);
 8001d88:	4611      	mov	r1, r2
    if( Reg51h&0x01 )
 8001d8a:	d010      	beq.n	8001dae <IT6802_AFE_Rst+0x3a>
        hdmirxset(REG_RX_018, 0x01, 0x01);
 8001d8c:	2018      	movs	r0, #24
 8001d8e:	f7fe fc4b 	bl	8000628 <hdmirxset>
        delay1ms(1);
 8001d92:	2001      	movs	r0, #1
 8001d94:	f7fe fc0e 	bl	80005b4 <delay1ms>
        hdmirxset(REG_RX_018, 0x01, 0x00);
 8001d98:	2200      	movs	r2, #0
 8001d9a:	2101      	movs	r1, #1
 8001d9c:	2018      	movs	r0, #24
 8001d9e:	f7fe fc43 	bl	8000628 <hdmirxset>
    if(ucPortSel == F_PORT_SEL_1)
 8001da2:	f7fe fc51 	bl	8000648 <DisableOverWriteRS.part.0>
    it6802data->m_ucSCDTOffCount=0;    //2013-0814
 8001da6:	2200      	movs	r2, #0
 8001da8:	4b08      	ldr	r3, [pc, #32]	@ (8001dcc <IT6802_AFE_Rst+0x58>)
 8001daa:	755a      	strb	r2, [r3, #21]
}
 8001dac:	bd10      	pop	{r4, pc}
        hdmirxset(REG_RX_011, 0x01, 0x01);
 8001dae:	2011      	movs	r0, #17
 8001db0:	f7fe fc3a 	bl	8000628 <hdmirxset>
        delay1ms(1);
 8001db4:	2001      	movs	r0, #1
 8001db6:	f7fe fbfd 	bl	80005b4 <delay1ms>
        hdmirxset(REG_RX_011, 0x01, 0x00);
 8001dba:	4622      	mov	r2, r4
 8001dbc:	2101      	movs	r1, #1
 8001dbe:	2011      	movs	r0, #17
 8001dc0:	f7fe fc32 	bl	8000628 <hdmirxset>
        DisableOverWriteRS(0);    //2013-1129 for MxL unplug detected
 8001dc4:	4620      	mov	r0, r4
 8001dc6:	f7fe fdc9 	bl	800095c <DisableOverWriteRS>
 8001dca:	e7ec      	b.n	8001da6 <IT6802_AFE_Rst+0x32>
 8001dcc:	200003a8 	.word	0x200003a8

08001dd0 <IT6802_ManualVideoTristate>:
{
 8001dd0:	b508      	push	{r3, lr}
    if(bOff)
 8001dd2:	b198      	cbz	r0, 8001dfc <IT6802_ManualVideoTristate+0x2c>
    hdmirxset(REG_RX_053,(B_VDGatting|B_VIOSel),(B_VDGatting|B_VIOSel));    //Reg53[7][5] = 11    // for enable B_VDIO_GATTING and VIO_SEL
 8001dd4:	22c0      	movs	r2, #192	@ 0xc0
 8001dd6:	2053      	movs	r0, #83	@ 0x53
 8001dd8:	4611      	mov	r1, r2
 8001dda:	f7fe fc25 	bl	8000628 <hdmirxset>
    hdmirxset(REG_RX_052,(B_DisVAutoMute),(B_DisVAutoMute));                //Reg52[5] = 1 for disable Auto video MUTE
 8001dde:	2220      	movs	r2, #32
 8001de0:	2052      	movs	r0, #82	@ 0x52
 8001de2:	4611      	mov	r1, r2
 8001de4:	f7fe fc20 	bl	8000628 <hdmirxset>
    hdmirxset(REG_RX_053,(B_TriVDIO),(0x00));                                //Reg53[2:0] = 000;         // 0 for enable video io data output
 8001de8:	2200      	movs	r2, #0
 8001dea:	210e      	movs	r1, #14
 8001dec:	2053      	movs	r0, #83	@ 0x53
 8001dee:	f7fe fc1b 	bl	8000628 <hdmirxset>
}
 8001df2:	e8bd 4008 	ldmia.w	sp!, {r3, lr}
    HDMIRX_VIDEO_PRINTF(("+++++++++++ Manual Video / Audio off  +++++++++++++++++\n"));
 8001df6:	4803      	ldr	r0, [pc, #12]	@ (8001e04 <IT6802_ManualVideoTristate+0x34>)
 8001df8:	f003 bba2 	b.w	8005540 <puts>
}
 8001dfc:	e8bd 4008 	ldmia.w	sp!, {r3, lr}
 8001e00:	f7fe bc88 	b.w	8000714 <IT6802_ManualVideoTristate.part.0>
 8001e04:	08006c9d 	.word	0x08006c9d

08001e08 <IT6802_SetVideoMute>:
{
 8001e08:	b538      	push	{r3, r4, r5, lr}
    if(bMute)
 8001e0a:	460c      	mov	r4, r1
 8001e0c:	b199      	cbz	r1, 8001e36 <IT6802_SetVideoMute+0x2e>
        hdmirxset(REG_RX_053,(B_VDGatting|B_VIOSel),(B_VDGatting|B_VIOSel));    //Reg53[7][5] = 11    // for enable B_VDIO_GATTING and VIO_SEL
 8001e0e:	22c0      	movs	r2, #192	@ 0xc0
 8001e10:	2053      	movs	r0, #83	@ 0x53
 8001e12:	4611      	mov	r1, r2
 8001e14:	f7fe fc08 	bl	8000628 <hdmirxset>
        hdmirxset(REG_RX_052,(B_DisVAutoMute),(B_DisVAutoMute));                //Reg52[5] = 1 for disable Auto video MUTE
 8001e18:	2220      	movs	r2, #32
 8001e1a:	2052      	movs	r0, #82	@ 0x52
 8001e1c:	4611      	mov	r1, r2
 8001e1e:	f7fe fc03 	bl	8000628 <hdmirxset>
        hdmirxset(REG_RX_053,(B_TriVDIO),(0x00));                                //Reg53[2:0] = 000;         // 0 for enable video io data output
 8001e22:	2200      	movs	r2, #0
 8001e24:	210e      	movs	r1, #14
 8001e26:	2053      	movs	r0, #83	@ 0x53
 8001e28:	f7fe fbfe 	bl	8000628 <hdmirxset>
        HDMIRX_VIDEO_PRINTF(("+++++++++++ IT6802_SetVideoMute -> On +++++++++++++++++\n"));
 8001e2c:	4820      	ldr	r0, [pc, #128]	@ (8001eb0 <IT6802_SetVideoMute+0xa8>)
}
 8001e2e:	e8bd 4038 	ldmia.w	sp!, {r3, r4, r5, lr}
                HDMIRX_VIDEO_PRINTF(("+++++++++++  IT6802_SetVideoMute -> Off +++++++++++++++++\n"));
 8001e32:	f003 bb85 	b.w	8005540 <puts>
        if(it6802->m_VState == VSTATE_VideoOn)
 8001e36:	7805      	ldrb	r5, [r0, #0]
 8001e38:	2d0a      	cmp	r5, #10
 8001e3a:	d137      	bne.n	8001eac <IT6802_SetVideoMute+0xa4>
            hdmirxset(REG_RX_053,(B_TriSYNC),(0x00));                                //Reg53[0] = 0;                 // for enable video sync
 8001e3c:	460a      	mov	r2, r1
 8001e3e:	2053      	movs	r0, #83	@ 0x53
 8001e40:	2101      	movs	r1, #1
 8001e42:	f7fe fbf1 	bl	8000628 <hdmirxset>
            hdmirxset(REG_RX_053,(B_TriVDIO),(0x00));                                //Reg53[3:1] = 000;         // 0 for enable video io data output
 8001e46:	4622      	mov	r2, r4
 8001e48:	210e      	movs	r1, #14
 8001e4a:	2053      	movs	r0, #83	@ 0x53
 8001e4c:	f7fe fbec 	bl	8000628 <hdmirxset>
            if(CheckAVMute()==TRUE)
 8001e50:	f7ff f958 	bl	8001104 <CheckAVMute>
 8001e54:	2801      	cmp	r0, #1
 8001e56:	d106      	bne.n	8001e66 <IT6802_SetVideoMute+0x5e>
}
 8001e58:	e8bd 4038 	ldmia.w	sp!, {r3, r4, r5, lr}
                hdmirxset(REG_RX_052,(B_DisVAutoMute),(B_DisVAutoMute));                //Reg52[5] = 1 for disable Auto video MUTE
 8001e5c:	2220      	movs	r2, #32
 8001e5e:	2052      	movs	r0, #82	@ 0x52
 8001e60:	4611      	mov	r1, r2
 8001e62:	f7fe bbe1 	b.w	8000628 <hdmirxset>
                hdmirxset(REG_RX_064, 0x80, 0x80); // video fifo reset
 8001e66:	2280      	movs	r2, #128	@ 0x80
 8001e68:	2064      	movs	r0, #100	@ 0x64
 8001e6a:	4611      	mov	r1, r2
 8001e6c:	f7fe fbdc 	bl	8000628 <hdmirxset>
                hdmirxset(REG_RX_064, 0x80, 0x00); // video fifo reset
 8001e70:	4622      	mov	r2, r4
 8001e72:	2180      	movs	r1, #128	@ 0x80
 8001e74:	2064      	movs	r0, #100	@ 0x64
 8001e76:	f7fe fbd7 	bl	8000628 <hdmirxset>
                delay1ms(10);
 8001e7a:	4628      	mov	r0, r5
 8001e7c:	f7fe fb9a 	bl	80005b4 <delay1ms>
                hdmirxset(REG_RX_053,(B_TriVDIO),(B_TriVDIO));                            //Reg53[2:0] = 111;         // 1 for enable tri-state of video io data
 8001e80:	220e      	movs	r2, #14
 8001e82:	2053      	movs	r0, #83	@ 0x53
 8001e84:	4611      	mov	r1, r2
 8001e86:	f7fe fbcf 	bl	8000628 <hdmirxset>
                hdmirxset(REG_RX_053,(B_TriVDIO),(0x00));                                //Reg53[2:0] = 000;         // 0 for enable video io data output
 8001e8a:	4622      	mov	r2, r4
 8001e8c:	210e      	movs	r1, #14
 8001e8e:	2053      	movs	r0, #83	@ 0x53
 8001e90:	f7fe fbca 	bl	8000628 <hdmirxset>
                hdmirxset(REG_RX_053,(B_VDGatting|B_VIOSel),(B_VDGatting|B_VIOSel));    //Reg53[7][5] = 11    // for enable B_VDIO_GATTING and VIO_SEL
 8001e94:	22c0      	movs	r2, #192	@ 0xc0
 8001e96:	2053      	movs	r0, #83	@ 0x53
 8001e98:	4611      	mov	r1, r2
 8001e9a:	f7fe fbc5 	bl	8000628 <hdmirxset>
                hdmirxset(REG_RX_053,(B_VDGatting|B_VIOSel),(B_VIOSel));                //Reg53[7][5] = 01    // for disable B_VDIO_GATTING
 8001e9e:	2240      	movs	r2, #64	@ 0x40
 8001ea0:	21c0      	movs	r1, #192	@ 0xc0
 8001ea2:	2053      	movs	r0, #83	@ 0x53
 8001ea4:	f7fe fbc0 	bl	8000628 <hdmirxset>
                HDMIRX_VIDEO_PRINTF(("+++++++++++  IT6802_SetVideoMute -> Off +++++++++++++++++\n"));
 8001ea8:	4802      	ldr	r0, [pc, #8]	@ (8001eb4 <IT6802_SetVideoMute+0xac>)
 8001eaa:	e7c0      	b.n	8001e2e <IT6802_SetVideoMute+0x26>
}
 8001eac:	bd38      	pop	{r3, r4, r5, pc}
 8001eae:	bf00      	nop
 8001eb0:	08006cd5 	.word	0x08006cd5
 8001eb4:	08006d0d 	.word	0x08006d0d

08001eb8 <IT6802VideoOutputEnable>:
{
 8001eb8:	b508      	push	{r3, lr}
    if(bEnableOutput)
 8001eba:	b118      	cbz	r0, 8001ec4 <IT6802VideoOutputEnable+0xc>
}
 8001ebc:	e8bd 4008 	ldmia.w	sp!, {r3, lr}
 8001ec0:	f7fe bc4e 	b.w	8000760 <IT6802VideoOutputEnable.part.0>
        hdmirxset(REG_RX_053,(B_TriSYNC|B_TriVDIO),(B_TriSYNC|B_TriVDIO));
 8001ec4:	220f      	movs	r2, #15
 8001ec6:	2053      	movs	r0, #83	@ 0x53
 8001ec8:	4611      	mov	r1, r2
 8001eca:	f7fe fbad 	bl	8000628 <hdmirxset>
}
 8001ece:	e8bd 4008 	ldmia.w	sp!, {r3, lr}
        HDMIRX_VIDEO_PRINTF(("---------------- IT6802VideoOutputEnable -> Off ----------------\n"));
 8001ed2:	4801      	ldr	r0, [pc, #4]	@ (8001ed8 <IT6802VideoOutputEnable+0x20>)
 8001ed4:	f003 bb34 	b.w	8005540 <puts>
 8001ed8:	08006d47 	.word	0x08006d47

08001edc <hdmirx_INT_P0_ECC>:
    }
//FIX_ID_037 xxxxx
}
// ---------------------------------------------------------------------------
void hdmirx_INT_P0_ECC(struct it6802_dev_data *it6802)
{
 8001edc:	b510      	push	{r4, lr}
    struct it6802_dev_data *it6802data = get_it6802_dev_data();


    if((it6802->m_ucEccCount_P0++) > ECC_TIMEOUT)
 8001ede:	7d83      	ldrb	r3, [r0, #22]
 8001ee0:	1c5a      	adds	r2, r3, #1
 8001ee2:	2b15      	cmp	r3, #21
 8001ee4:	7582      	strb	r2, [r0, #22]
 8001ee6:	d90d      	bls.n	8001f04 <hdmirx_INT_P0_ECC+0x28>
    {

        #ifdef _SUPPORT_EQ_ADJUST_
        if(it6802->EQPort[F_PORT_SEL_0].f_manualEQadjust==TRUE)    // ignore ECC interrupt when manual EQ adjust !!!
 8001ee8:	f890 3045 	ldrb.w	r3, [r0, #69]	@ 0x45
 8001eec:	2b01      	cmp	r3, #1
 8001eee:	d009      	beq.n	8001f04 <hdmirx_INT_P0_ECC+0x28>
        return;
        #endif

        it6802->m_ucEccCount_P0=0;
 8001ef0:	2400      	movs	r4, #0
 8001ef2:	7584      	strb	r4, [r0, #22]

        IT6802_DEBUG_INT_PRINTF(("CDR reset for Port0 ECC_TIMEOUT !!!\n"));
 8001ef4:	4804      	ldr	r0, [pc, #16]	@ (8001f08 <hdmirx_INT_P0_ECC+0x2c>)
 8001ef6:	f003 fb23 	bl	8005540 <puts>

        hdmirx_ECCTimingOut(F_PORT_SEL_0);
 8001efa:	4620      	mov	r0, r4
        // disable ->//set port 0 HPD=1
        // disable ->it6802HPDCtrl(0,1);    // MxL port , set HPD = 1
        //IT6802SwitchVideoState(it6802,VSTATE_SyncWait);

    }
}
 8001efc:	e8bd 4010 	ldmia.w	sp!, {r4, lr}
        hdmirx_ECCTimingOut(F_PORT_SEL_0);
 8001f00:	f7ff bdf4 	b.w	8001aec <hdmirx_ECCTimingOut>
}
 8001f04:	bd10      	pop	{r4, pc}
 8001f06:	bf00      	nop
 8001f08:	08006d88 	.word	0x08006d88

08001f0c <hdmirx_INT_P1_ECC>:

// ---------------------------------------------------------------------------
void hdmirx_INT_P1_ECC(struct it6802_dev_data *it6802)
{
 8001f0c:	b508      	push	{r3, lr}


    if((it6802->m_ucEccCount_P1++) > ECC_TIMEOUT)
 8001f0e:	7dc3      	ldrb	r3, [r0, #23]
 8001f10:	1c5a      	adds	r2, r3, #1
 8001f12:	2b15      	cmp	r3, #21
 8001f14:	75c2      	strb	r2, [r0, #23]
 8001f16:	d90d      	bls.n	8001f34 <hdmirx_INT_P1_ECC+0x28>
    {
        #ifdef _SUPPORT_EQ_ADJUST_
        if(it6802->EQPort[F_PORT_SEL_1].f_manualEQadjust==TRUE)    // ignore ECC interrupt when manual EQ adjust !!!
 8001f18:	f890 304f 	ldrb.w	r3, [r0, #79]	@ 0x4f
 8001f1c:	2b01      	cmp	r3, #1
 8001f1e:	d009      	beq.n	8001f34 <hdmirx_INT_P1_ECC+0x28>
        return;
        #endif

        it6802->m_ucEccCount_P1=0;
 8001f20:	2300      	movs	r3, #0
 8001f22:	75c3      	strb	r3, [r0, #23]

        IT6802_DEBUG_INT_PRINTF(("CDR reset for Port1 ECC_TIMEOUT !!!\n"));
 8001f24:	4804      	ldr	r0, [pc, #16]	@ (8001f38 <hdmirx_INT_P1_ECC+0x2c>)
 8001f26:	f003 fb0b 	bl	8005540 <puts>
        // disable ->it6802HPDCtrl(1,1);    // HDMI port , set HPD = 1
        // disable ->//xxxxx


    }
}
 8001f2a:	e8bd 4008 	ldmia.w	sp!, {r3, lr}
        hdmirx_ECCTimingOut(F_PORT_SEL_1);
 8001f2e:	2001      	movs	r0, #1
 8001f30:	f7ff bddc 	b.w	8001aec <hdmirx_ECCTimingOut>
}
 8001f34:	bd08      	pop	{r3, pc}
 8001f36:	bf00      	nop
 8001f38:	08006dac 	.word	0x08006dac

08001f3c <hdmirx_INT_P0_Deskew>:

// ---------------------------------------------------------------------------
void hdmirx_INT_P0_Deskew(struct it6802_dev_data *it6802)
{
 8001f3c:	b510      	push	{r4, lr}
    if((it6802->m_ucDeskew_P0++) > DESKEW_TIMEOUT)
 8001f3e:	7e03      	ldrb	r3, [r0, #24]
 8001f40:	1c5a      	adds	r2, r3, #1
 8001f42:	2b15      	cmp	r3, #21
 8001f44:	7602      	strb	r2, [r0, #24]
 8001f46:	d914      	bls.n	8001f72 <hdmirx_INT_P0_Deskew+0x36>
    {
        #ifdef _SUPPORT_EQ_ADJUST_
        if(it6802->EQPort[F_PORT_SEL_0].f_manualEQadjust==TRUE)    // ignore ECC interrupt when manual EQ adjust !!!
 8001f48:	f890 3045 	ldrb.w	r3, [r0, #69]	@ 0x45
 8001f4c:	2b01      	cmp	r3, #1
 8001f4e:	d010      	beq.n	8001f72 <hdmirx_INT_P0_Deskew+0x36>
        return;
        #endif
        it6802->m_ucDeskew_P0=0;
 8001f50:	2400      	movs	r4, #0
 8001f52:	7604      	strb	r4, [r0, #24]

        IT6802_DEBUG_INT_PRINTF(("CDR reset for Port0 DESKEW_TIMEOUT !!!\n"));
 8001f54:	4807      	ldr	r0, [pc, #28]	@ (8001f74 <hdmirx_INT_P0_Deskew+0x38>)
 8001f56:	f003 faf3 	bl	8005540 <puts>
// 07-16 disable ->    #endif
//FIX_ID_001 xxxxx
//        hdmirxset(REG_RX_011,(B_P0_DCLKRST|B_P0_CDRRST),(B_P0_DCLKRST|B_P0_CDRRST));
//        hdmirxset(REG_RX_011,(B_P0_DCLKRST|B_P0_CDRRST),0x00);

        if(hdmirxrd(REG_RX_020) == 0x00)
 8001f5a:	2020      	movs	r0, #32
 8001f5c:	f7fe fb3c 	bl	80005d8 <hdmirxrd>
 8001f60:	b928      	cbnz	r0, 8001f6e <hdmirx_INT_P0_Deskew+0x32>
            hdmirxwr(REG_RX_020,0x3F);    // Dr. Liu suggestion to 0x00
 8001f62:	213f      	movs	r1, #63	@ 0x3f
        else
            hdmirxwr(REG_RX_020,0x00);    // Dr. Liu suggestion to 0x3F

    }
}
 8001f64:	e8bd 4010 	ldmia.w	sp!, {r4, lr}
            hdmirxwr(REG_RX_020,0x00);    // Dr. Liu suggestion to 0x3F
 8001f68:	2020      	movs	r0, #32
 8001f6a:	f7fe bb47 	b.w	80005fc <hdmirxwr>
 8001f6e:	4621      	mov	r1, r4
 8001f70:	e7f8      	b.n	8001f64 <hdmirx_INT_P0_Deskew+0x28>
}
 8001f72:	bd10      	pop	{r4, pc}
 8001f74:	08006dd0 	.word	0x08006dd0

08001f78 <hdmirx_INT_P1_Deskew>:

// ---------------------------------------------------------------------------
void hdmirx_INT_P1_Deskew(struct it6802_dev_data *it6802)
{
 8001f78:	b510      	push	{r4, lr}
    if((it6802->m_ucDeskew_P1++) > DESKEW_TIMEOUT)
 8001f7a:	7e43      	ldrb	r3, [r0, #25]
 8001f7c:	1c5a      	adds	r2, r3, #1
 8001f7e:	2b15      	cmp	r3, #21
 8001f80:	7642      	strb	r2, [r0, #25]
 8001f82:	d914      	bls.n	8001fae <hdmirx_INT_P1_Deskew+0x36>
    {
        #ifdef _SUPPORT_EQ_ADJUST_
        if(it6802->EQPort[F_PORT_SEL_1].f_manualEQadjust==TRUE)    // ignore ECC interrupt when manual EQ adjust !!!
 8001f84:	f890 304f 	ldrb.w	r3, [r0, #79]	@ 0x4f
 8001f88:	2b01      	cmp	r3, #1
 8001f8a:	d010      	beq.n	8001fae <hdmirx_INT_P1_Deskew+0x36>
        return;
        #endif

        it6802->m_ucDeskew_P1=0;
 8001f8c:	2400      	movs	r4, #0
 8001f8e:	7644      	strb	r4, [r0, #25]

        IT6802_DEBUG_INT_PRINTF(("CDR reset for Port1 DESKEW_TIMEOUT !!!\n"));
 8001f90:	4807      	ldr	r0, [pc, #28]	@ (8001fb0 <hdmirx_INT_P1_Deskew+0x38>)
 8001f92:	f003 fad5 	bl	8005540 <puts>

        //it6802->EQPort[F_PORT_SEL_1].f_manualEQadjust=TRUE;
        //HDMISwitchEQstate(&it6802->EQPort[F_PORT_SEL_1],EQSTATE_END);    //for SCDT on state
        //HDMICheckECC(&it6802->EQPort[F_PORT_SEL_1]);

        if(hdmirxrd(REG_RX_038) == 0x00)
 8001f96:	2038      	movs	r0, #56	@ 0x38
 8001f98:	f7fe fb1e 	bl	80005d8 <hdmirxrd>
 8001f9c:	b928      	cbnz	r0, 8001faa <hdmirx_INT_P1_Deskew+0x32>
            hdmirxwr(REG_RX_038,0x3F);    // Dr. Liu suggestion to 0x00
 8001f9e:	213f      	movs	r1, #63	@ 0x3f
        else
            hdmirxwr(REG_RX_038,0x00);    // Dr. Liu suggestion to 0x3F
    }
}
 8001fa0:	e8bd 4010 	ldmia.w	sp!, {r4, lr}
            hdmirxwr(REG_RX_038,0x00);    // Dr. Liu suggestion to 0x3F
 8001fa4:	2038      	movs	r0, #56	@ 0x38
 8001fa6:	f7fe bb29 	b.w	80005fc <hdmirxwr>
 8001faa:	4621      	mov	r1, r4
 8001fac:	e7f8      	b.n	8001fa0 <hdmirx_INT_P1_Deskew+0x28>
}
 8001fae:	bd10      	pop	{r4, pc}
 8001fb0:	08006df7 	.word	0x08006df7

08001fb4 <hdmirx_INT_HDMIMode_Chg>:


// ---------------------------------------------------------------------------
//FIX_ID_009 xxxxx    //verify interrupt event with reg51[0] select port
void hdmirx_INT_HDMIMode_Chg(struct it6802_dev_data *it6802,unsigned char ucport)
{
 8001fb4:	b538      	push	{r3, r4, r5, lr}
 8001fb6:	4604      	mov	r4, r0
    unsigned char ucPortSel;
    ucPortSel = hdmirxrd(REG_RX_051)&B_PORT_SEL;
 8001fb8:	2051      	movs	r0, #81	@ 0x51
{
 8001fba:	460d      	mov	r5, r1
    ucPortSel = hdmirxrd(REG_RX_051)&B_PORT_SEL;
 8001fbc:	f7fe fb0c 	bl	80005d8 <hdmirxrd>

    if(ucPortSel != ucport)
 8001fc0:	f000 0001 	and.w	r0, r0, #1
 8001fc4:	42a8      	cmp	r0, r5
 8001fc6:	d12d      	bne.n	8002024 <hdmirx_INT_HDMIMode_Chg+0x70>
        return;
//FIX_ID_009 xxxxx

    if(IsHDMIMode()){
 8001fc8:	f7ff f8b9 	bl	800113e <IsHDMIMode>
 8001fcc:	4605      	mov	r5, r0
 8001fce:	b188      	cbz	r0, 8001ff4 <hdmirx_INT_HDMIMode_Chg+0x40>
            if(it6802->m_VState==VSTATE_VideoOn)
 8001fd0:	7823      	ldrb	r3, [r4, #0]
 8001fd2:	2b0a      	cmp	r3, #10
 8001fd4:	d103      	bne.n	8001fde <hdmirx_INT_HDMIMode_Chg+0x2a>
            {
                IT6802SwitchAudioState(it6802,ASTATE_RequestAudio);
 8001fd6:	2101      	movs	r1, #1
 8001fd8:	4620      	mov	r0, r4
 8001fda:	f7ff fe22 	bl	8001c22 <IT6802SwitchAudioState>
        }
        it6802->m_bUpHDMIMode = TRUE;
 8001fde:	f894 30ab 	ldrb.w	r3, [r4, #171]	@ 0xab
        IT6802_DEBUG_INT_PRINTF(("#### HDMI/DVI Mode : HDMI ####\n"));
 8001fe2:	4811      	ldr	r0, [pc, #68]	@ (8002028 <hdmirx_INT_HDMIMode_Chg+0x74>)
        it6802->m_bUpHDMIMode = TRUE;
 8001fe4:	f043 0320 	orr.w	r3, r3, #32
 8001fe8:	f884 30ab 	strb.w	r3, [r4, #171]	@ 0xab
                SetDVIVideoOutput(it6802);
            }
        it6802->m_bUpHDMIMode = FALSE;
        IT6802_DEBUG_INT_PRINTF(("#### HDMI/DVI Mode : DVI ####\n"));
    }
}
 8001fec:	e8bd 4038 	ldmia.w	sp!, {r3, r4, r5, lr}
        IT6802_DEBUG_INT_PRINTF(("#### HDMI/DVI Mode : DVI ####\n"));
 8001ff0:	f003 baa6 	b.w	8005540 <puts>
        IT6802SwitchAudioState(it6802,ASTATE_AudioOff);
 8001ff4:	4601      	mov	r1, r0
 8001ff6:	4620      	mov	r0, r4
 8001ff8:	f7ff fe13 	bl	8001c22 <IT6802SwitchAudioState>
        it6802->m_NewAVIInfoFrameF=FALSE;
 8001ffc:	f894 30ab 	ldrb.w	r3, [r4, #171]	@ 0xab
 8002000:	f365 13c7 	bfi	r3, r5, #7, #1
 8002004:	f884 30ab 	strb.w	r3, [r4, #171]	@ 0xab
            if(it6802->m_VState==VSTATE_VideoOn)
 8002008:	7823      	ldrb	r3, [r4, #0]
 800200a:	2b0a      	cmp	r3, #10
 800200c:	d102      	bne.n	8002014 <hdmirx_INT_HDMIMode_Chg+0x60>
                SetDVIVideoOutput(it6802);
 800200e:	4620      	mov	r0, r4
 8002010:	f7ff fcc2 	bl	8001998 <SetDVIVideoOutput>
        it6802->m_bUpHDMIMode = FALSE;
 8002014:	f894 30ab 	ldrb.w	r3, [r4, #171]	@ 0xab
        IT6802_DEBUG_INT_PRINTF(("#### HDMI/DVI Mode : DVI ####\n"));
 8002018:	4804      	ldr	r0, [pc, #16]	@ (800202c <hdmirx_INT_HDMIMode_Chg+0x78>)
        it6802->m_bUpHDMIMode = FALSE;
 800201a:	f023 0320 	bic.w	r3, r3, #32
 800201e:	f884 30ab 	strb.w	r3, [r4, #171]	@ 0xab
        IT6802_DEBUG_INT_PRINTF(("#### HDMI/DVI Mode : DVI ####\n"));
 8002022:	e7e3      	b.n	8001fec <hdmirx_INT_HDMIMode_Chg+0x38>
}
 8002024:	bd38      	pop	{r3, r4, r5, pc}
 8002026:	bf00      	nop
 8002028:	08006e1e 	.word	0x08006e1e
 800202c:	08006e3d 	.word	0x08006e3d

08002030 <OSCvalueCompare>:
unsigned char OSCvalueCompare(unsigned long *calibrationValue)
{
    unsigned long diff_cp;
    unsigned long cp_cal_mean = CP_MEAN_VALUE;

    if(*calibrationValue != 0)
 8002030:	6803      	ldr	r3, [r0, #0]
 8002032:	b11b      	cbz	r3, 800203c <OSCvalueCompare+0xc>
    {
    *calibrationValue /= 100;
 8002034:	2264      	movs	r2, #100	@ 0x64
 8002036:	fbb3 f3f2 	udiv	r3, r3, r2
 800203a:	6003      	str	r3, [r0, #0]
    }

    if( *calibrationValue >= cp_cal_mean )
 800203c:	f64b 6337 	movw	r3, #48695	@ 0xbe37
 8002040:	6800      	ldr	r0, [r0, #0]
 8002042:	4298      	cmp	r0, r3
    }

    CsigBus_CAL_PRINTF(("calibrationValue = %ld MHz\n", *calibrationValue));

    return TRUE;
}
 8002044:	f645 731c 	movw	r3, #24348	@ 0x5f1c
    diff_cp = (*calibrationValue-cp_cal_mean);
 8002048:	bf8b      	itete	hi
 800204a:	f5a0 403e 	subhi.w	r0, r0, #48640	@ 0xbe00
    diff_cp = (cp_cal_mean-*calibrationValue);
 800204e:	f5c0 403e 	rsbls	r0, r0, #48640	@ 0xbe00
    diff_cp = (*calibrationValue-cp_cal_mean);
 8002052:	3838      	subhi	r0, #56	@ 0x38
    diff_cp = (cp_cal_mean-*calibrationValue);
 8002054:	3038      	addls	r0, #56	@ 0x38
}
 8002056:	4298      	cmp	r0, r3
 8002058:	bf8c      	ite	hi
 800205a:	2000      	movhi	r0, #0
 800205c:	2001      	movls	r0, #1
 800205e:	4770      	bx	lr

08002060 <CP_OCLK>:
//
//
//
////////////////////////////////////////////////////////////////////
unsigned long CP_OCLK( void )
{
 8002060:	b538      	push	{r3, r4, r5, lr}
    unsigned char CP_100ms_00B;
    unsigned char CP_100ms_01B;
    unsigned char CP_100ms_02B;
    unsigned long rddata;

    hdmirxwr(0x0F, 0x00);
 8002062:	2100      	movs	r1, #0
 8002064:	200f      	movs	r0, #15
 8002066:	f7fe fac9 	bl	80005fc <hdmirxwr>
    hdmirxwr(0x73, 0x05);
 800206a:	2105      	movs	r1, #5
 800206c:	2073      	movs	r0, #115	@ 0x73
 800206e:	f7fe fac5 	bl	80005fc <hdmirxwr>
    hdmirxwr(0x0F, 0x01);
 8002072:	2101      	movs	r1, #1
 8002074:	200f      	movs	r0, #15
 8002076:	f7fe fac1 	bl	80005fc <hdmirxwr>
    hdmirxwr(REG_RX_157, 0x12);
 800207a:	2112      	movs	r1, #18
 800207c:	2057      	movs	r0, #87	@ 0x57
 800207e:	f7fe fabd 	bl	80005fc <hdmirxwr>
    hdmirxwr(REG_RX_157, 0x02);
 8002082:	2102      	movs	r1, #2
 8002084:	2057      	movs	r0, #87	@ 0x57
 8002086:	f7fe fab9 	bl	80005fc <hdmirxwr>
    hdmirxwr(REG_RX_156, 0x01);
 800208a:	2101      	movs	r1, #1
 800208c:	2056      	movs	r0, #86	@ 0x56
 800208e:	f7fe fab5 	bl	80005fc <hdmirxwr>

    // set Read Address and enable
    hdmirxwr(REG_RX_150, 0x00);
 8002092:	2100      	movs	r1, #0
 8002094:	2050      	movs	r0, #80	@ 0x50
 8002096:	f7fe fab1 	bl	80005fc <hdmirxwr>
    hdmirxwr(REG_RX_151, 0x00);
 800209a:	2100      	movs	r1, #0
 800209c:	2051      	movs	r0, #81	@ 0x51
 800209e:	f7fe faad 	bl	80005fc <hdmirxwr>
    hdmirxwr(REG_RX_153, 0x04); // reg153
 80020a2:	2104      	movs	r1, #4
 80020a4:	2053      	movs	r0, #83	@ 0x53
 80020a6:	f7fe faa9 	bl	80005fc <hdmirxwr>
    SIP_00B=hdmirxrd(REG_RX_161);
 80020aa:	2061      	movs	r0, #97	@ 0x61
 80020ac:	f7fe fa94 	bl	80005d8 <hdmirxrd>
 80020b0:	4605      	mov	r5, r0
    SIP_01B=hdmirxrd(REG_RX_161);
 80020b2:	2061      	movs	r0, #97	@ 0x61
 80020b4:	f7fe fa90 	bl	80005d8 <hdmirxrd>
 80020b8:	4604      	mov	r4, r0
    SIP_02B=hdmirxrd(REG_RX_161);
 80020ba:	2061      	movs	r0, #97	@ 0x61
 80020bc:	f7fe fa8c 	bl	80005d8 <hdmirxrd>

    CsigBus_CAL_PRINTF(("SIP_00B=%X\n",(int)SIP_00B));
    CsigBus_CAL_PRINTF(("SIP_01B=%X\n",(int)SIP_01B));
    CsigBus_CAL_PRINTF(("SIP_02B=%X\n",(int)SIP_02B));

    if( SIP_00B==0x02 && SIP_01B==0x02 && SIP_02B==0x02 )
 80020c0:	2d02      	cmp	r5, #2
 80020c2:	d128      	bne.n	8002116 <CP_OCLK+0xb6>
 80020c4:	2c02      	cmp	r4, #2
 80020c6:	d12d      	bne.n	8002124 <CP_OCLK+0xc4>
 80020c8:	2802      	cmp	r0, #2
 80020ca:	d12b      	bne.n	8002124 <CP_OCLK+0xc4>
    {
        hdmirxwr(REG_RX_150, 0x01);
 80020cc:	2101      	movs	r1, #1
            CsigBus_CAL_PRINTF(("SIPROM CP 100MS %x\n",rddata));
        }
    }
    else if( SIP_00B==0xFF && SIP_01B==0x00 && SIP_02B==0xFF )
    {
        hdmirxwr(REG_RX_150, 0x03);
 80020ce:	2050      	movs	r0, #80	@ 0x50
 80020d0:	f7fe fa94 	bl	80005fc <hdmirxwr>
        hdmirxwr(REG_RX_151, 0x60);
 80020d4:	2160      	movs	r1, #96	@ 0x60
 80020d6:	2051      	movs	r0, #81	@ 0x51
 80020d8:	f7fe fa90 	bl	80005fc <hdmirxwr>
        hdmirxwr(REG_RX_153, 0x04);
 80020dc:	2104      	movs	r1, #4
 80020de:	2053      	movs	r0, #83	@ 0x53
 80020e0:	f7fe fa8c 	bl	80005fc <hdmirxwr>
        CP_100ms_00B=hdmirxrd(REG_RX_161);
 80020e4:	2061      	movs	r0, #97	@ 0x61
 80020e6:	f7fe fa77 	bl	80005d8 <hdmirxrd>
 80020ea:	4604      	mov	r4, r0
        CP_100ms_01B=hdmirxrd(REG_RX_161);
 80020ec:	2061      	movs	r0, #97	@ 0x61
 80020ee:	f7fe fa73 	bl	80005d8 <hdmirxrd>
 80020f2:	4605      	mov	r5, r0
        CP_100ms_02B=hdmirxrd(REG_RX_161);
 80020f4:	2061      	movs	r0, #97	@ 0x61
 80020f6:	f7fe fa6f 	bl	80005d8 <hdmirxrd>
        // disable -> }
        // disable -> else
        {
            rddata =(unsigned long)(CP_100ms_02B);
            rddata <<= 8 ;
            rddata |=(unsigned long)(CP_100ms_01B) ;
 80020fa:	ea45 2500 	orr.w	r5, r5, r0, lsl #8
            rddata <<= 8 ;
            rddata |=(unsigned long) (CP_100ms_00B);
 80020fe:	ea44 2405 	orr.w	r4, r4, r5, lsl #8
    {
        CsigBus_CAL_PRINTF(("SIPROM CP 100MS Error\n"));
        rddata = 0;
    }

    hdmirxwr(0x0F, 0x00);
 8002102:	2100      	movs	r1, #0
 8002104:	200f      	movs	r0, #15
 8002106:	f7fe fa79 	bl	80005fc <hdmirxwr>
    hdmirxwr(0x73, 0x00);
 800210a:	2100      	movs	r1, #0
 800210c:	2073      	movs	r0, #115	@ 0x73
 800210e:	f7fe fa75 	bl	80005fc <hdmirxwr>
    CsigBus_CAL_PRINTF(("CP_100ms_00B=%X\n",(int)CP_100ms_00B));
    CsigBus_CAL_PRINTF(("CP_100ms_01B=%X\n",(int)CP_100ms_01B));
    CsigBus_CAL_PRINTF(("CP_100ms_02B=%X\n",(int)CP_100ms_02B));

    return rddata;
}
 8002112:	4620      	mov	r0, r4
 8002114:	bd38      	pop	{r3, r4, r5, pc}
    else if( SIP_00B==0xFF && SIP_01B==0x00 && SIP_02B==0xFF )
 8002116:	b92c      	cbnz	r4, 8002124 <CP_OCLK+0xc4>
 8002118:	4005      	ands	r5, r0
 800211a:	b2ed      	uxtb	r5, r5
 800211c:	2dff      	cmp	r5, #255	@ 0xff
 800211e:	d1f0      	bne.n	8002102 <CP_OCLK+0xa2>
        hdmirxwr(REG_RX_150, 0x03);
 8002120:	2103      	movs	r1, #3
 8002122:	e7d4      	b.n	80020ce <CP_OCLK+0x6e>
        rddata = 0;
 8002124:	2400      	movs	r4, #0
 8002126:	e7ec      	b.n	8002102 <CP_OCLK+0xa2>

08002128 <Cal_oclk>:
void Cal_oclk( void )
{
 8002128:	b537      	push	{r0, r1, r2, r4, r5, lr}
    unsigned char oscdiv;
    unsigned long OSCCLK;

    {
        OSCCLK = CP_OCLK();
 800212a:	f7ff ff99 	bl	8002060 <CP_OCLK>
 800212e:	4601      	mov	r1, r0
 8002130:	9001      	str	r0, [sp, #4]
        IT6802_DEBUG_INT_PRINTF(("CP_OSCCLK = %ld MHz\n", OSCCLK));
 8002132:	481e      	ldr	r0, [pc, #120]	@ (80021ac <Cal_oclk+0x84>)
 8002134:	f003 f99c 	bl	8005470 <iprintf>
        if(OSCvalueCompare(&OSCCLK)==FALSE)
 8002138:	a801      	add	r0, sp, #4
 800213a:	f7ff ff79 	bl	8002030 <OSCvalueCompare>
 800213e:	bb80      	cbnz	r0, 80021a2 <Cal_oclk+0x7a>
        {
            OSCCLK = CP_MEAN_VALUE;
 8002140:	f64b 6138 	movw	r1, #48696	@ 0xbe38
            //OSCCLK = (unsigned long) sum;
            //OSCCLK /= 100;
            IT6802_DEBUG_INT_PRINTF(("Use CP_MEAN_VALUE = %ld MHz\n", OSCCLK));
 8002144:	481a      	ldr	r0, [pc, #104]	@ (80021b0 <Cal_oclk+0x88>)
            OSCCLK = CP_MEAN_VALUE;
 8002146:	9101      	str	r1, [sp, #4]
            IT6802_DEBUG_INT_PRINTF(("Use CP_MEAN_VALUE = %ld MHz\n", OSCCLK));
 8002148:	f003 f992 	bl	8005470 <iprintf>
        {
            IT6802_DEBUG_INT_PRINTF(("Use CP Calibration Value\n"));
        }
    }

    IT6802_DEBUG_INT_PRINTF(("OSCCLK=%ld MHz\n", OSCCLK/1000));
 800214c:	f44f 747a 	mov.w	r4, #1000	@ 0x3e8
 8002150:	9d01      	ldr	r5, [sp, #4]
 8002152:	4818      	ldr	r0, [pc, #96]	@ (80021b4 <Cal_oclk+0x8c>)
 8002154:	fbb5 f4f4 	udiv	r4, r5, r4
 8002158:	4621      	mov	r1, r4
 800215a:	f003 f989 	bl	8005470 <iprintf>
    oscdiv = (unsigned char) (OSCCLK/1000/10);
 800215e:	f242 7310 	movw	r3, #10000	@ 0x2710
 8002162:	fbb5 f3f3 	udiv	r3, r5, r3
 8002166:	b2db      	uxtb	r3, r3

    if( ((OSCCLK/1000/oscdiv)-10)>(10-(OSCCLK/1000/(oscdiv+1))) )
 8002168:	1c58      	adds	r0, r3, #1
 800216a:	fbb4 f1f3 	udiv	r1, r4, r3
 800216e:	fbb4 f2f0 	udiv	r2, r4, r0
 8002172:	390a      	subs	r1, #10
 8002174:	f1c2 020a 	rsb	r2, r2, #10
 8002178:	4291      	cmp	r1, r2
    {
        oscdiv++;
 800217a:	bf88      	it	hi
 800217c:	b2c3      	uxtbhi	r3, r0
    }

    IT6802_DEBUG_INT_PRINTF(("OCLK=%ld MHz\n", OSCCLK/1000/oscdiv));
 800217e:	fbb4 f1f3 	udiv	r1, r4, r3
 8002182:	480d      	ldr	r0, [pc, #52]	@ (80021b8 <Cal_oclk+0x90>)
 8002184:	f003 f974 	bl	8005470 <iprintf>
    m_ROSCCLK = OSCCLK/4;   // 10 MHz
    else if( RCLKFreqSel==2 )
    m_ROSCCLK = OSCCLK/8;
    else
    m_ROSCCLK = OSCCLK/16;
    IT6802_DEBUG_INT_PRINTF(("RCLK=%ld MHz\n", m_ROSCCLK/1000));
 8002188:	f44f 617a 	mov.w	r1, #4000	@ 0xfa0
 800218c:	fbb5 f1f1 	udiv	r1, r5, r1
    m_ROSCCLK = OSCCLK/4;   // 10 MHz
 8002190:	4b0a      	ldr	r3, [pc, #40]	@ (80021bc <Cal_oclk+0x94>)
    IT6802_DEBUG_INT_PRINTF(("RCLK=%ld MHz\n", m_ROSCCLK/1000));
 8002192:	480b      	ldr	r0, [pc, #44]	@ (80021c0 <Cal_oclk+0x98>)
    m_ROSCCLK = OSCCLK/4;   // 10 MHz
 8002194:	08aa      	lsrs	r2, r5, #2
 8002196:	601a      	str	r2, [r3, #0]
}
 8002198:	b003      	add	sp, #12
 800219a:	e8bd 4030 	ldmia.w	sp!, {r4, r5, lr}
    IT6802_DEBUG_INT_PRINTF(("RCLK=%ld MHz\n", m_ROSCCLK/1000));
 800219e:	f003 b967 	b.w	8005470 <iprintf>
            IT6802_DEBUG_INT_PRINTF(("Use CP Calibration Value\n"));
 80021a2:	4808      	ldr	r0, [pc, #32]	@ (80021c4 <Cal_oclk+0x9c>)
 80021a4:	f003 f9cc 	bl	8005540 <puts>
 80021a8:	e7d0      	b.n	800214c <Cal_oclk+0x24>
 80021aa:	bf00      	nop
 80021ac:	08006e5b 	.word	0x08006e5b
 80021b0:	08006e70 	.word	0x08006e70
 80021b4:	08006ea6 	.word	0x08006ea6
 80021b8:	08006eb6 	.word	0x08006eb6
 80021bc:	200003a4 	.word	0x200003a4
 80021c0:	08006ec4 	.word	0x08006ec4
 80021c4:	08006e8d 	.word	0x08006e8d

080021c8 <IT6802_IsSelectedPort>:
//FIX_ID_018    xxxxx


//FIX_ID_009 xxxxx    //verify interrupt event with reg51[0] select port
unsigned char  IT6802_IsSelectedPort(unsigned char ucPortSel)
{
 80021c8:	b510      	push	{r4, lr}
 80021ca:	4604      	mov	r4, r0
    unsigned char ucCurrentPort;

    struct it6802_dev_data *it6802data = get_it6802_dev_data();

    ucCurrentPort = hdmirxrd(REG_RX_051) & B_PORT_SEL;
 80021cc:	2051      	movs	r0, #81	@ 0x51
 80021ce:	f7fe fa03 	bl	80005d8 <hdmirxrd>

    if(ucCurrentPort == ucPortSel)
 80021d2:	f000 0001 	and.w	r0, r0, #1
    }
    else
    {
        return FALSE;
    }
}
 80021d6:	1b03      	subs	r3, r0, r4
 80021d8:	4258      	negs	r0, r3
 80021da:	4158      	adcs	r0, r3
 80021dc:	bd10      	pop	{r4, pc}
	...

080021e0 <IT6802_HDCP_ContentOff>:
{
 80021e0:	b538      	push	{r3, r4, r5, lr}
 80021e2:	460d      	mov	r5, r1
    if(IT6802_IsSelectedPort(ucPort)==FALSE)
 80021e4:	f7ff fff0 	bl	80021c8 <IT6802_IsSelectedPort>
 80021e8:	b1d8      	cbz	r0, 8002222 <IT6802_HDCP_ContentOff+0x42>
    if(bOff != 0)
 80021ea:	4c0e      	ldr	r4, [pc, #56]	@ (8002224 <IT6802_HDCP_ContentOff+0x44>)
 80021ec:	b155      	cbz	r5, 8002204 <IT6802_HDCP_ContentOff+0x24>
        IT6802_ManualVideoTristate(1);
 80021ee:	2001      	movs	r0, #1
 80021f0:	f7ff fdee 	bl	8001dd0 <IT6802_ManualVideoTristate>
        it6802data->m_HDCP_ContentOff = 1;
 80021f4:	2301      	movs	r3, #1
 80021f6:	f884 3067 	strb.w	r3, [r4, #103]	@ 0x67
        HDMIRX_VIDEO_PRINTF(("+++++++++++ HDCP Content Off   +++++++++++++++++\n"));
 80021fa:	480b      	ldr	r0, [pc, #44]	@ (8002228 <IT6802_HDCP_ContentOff+0x48>)
}
 80021fc:	e8bd 4038 	ldmia.w	sp!, {r3, r4, r5, lr}
        HDMIRX_VIDEO_PRINTF(("+++++++++++ HDCP Content Off   +++++++++++++++++\n"));
 8002200:	f003 b99e 	b.w	8005540 <puts>
        if(it6802data->m_VState == VSTATE_VideoOn)
 8002204:	7823      	ldrb	r3, [r4, #0]
 8002206:	2b0a      	cmp	r3, #10
 8002208:	d108      	bne.n	800221c <IT6802_HDCP_ContentOff+0x3c>
            if(it6802data->m_HDCP_ContentOff == 1 )
 800220a:	f894 3067 	ldrb.w	r3, [r4, #103]	@ 0x67
 800220e:	2b01      	cmp	r3, #1
 8002210:	d104      	bne.n	800221c <IT6802_HDCP_ContentOff+0x3c>
    if(bOff)
 8002212:	f7fe fa7f 	bl	8000714 <IT6802_ManualVideoTristate.part.0>
                HDMIRX_VIDEO_PRINTF(("+++++++++++ HDCP Content On   +++++++++++++++++\n"));
 8002216:	4805      	ldr	r0, [pc, #20]	@ (800222c <IT6802_HDCP_ContentOff+0x4c>)
 8002218:	f003 f992 	bl	8005540 <puts>
        it6802data->m_HDCP_ContentOff = 0;
 800221c:	2300      	movs	r3, #0
 800221e:	f884 3067 	strb.w	r3, [r4, #103]	@ 0x67
}
 8002222:	bd38      	pop	{r3, r4, r5, pc}
 8002224:	200003a8 	.word	0x200003a8
 8002228:	08006ed2 	.word	0x08006ed2
 800222c:	08006f03 	.word	0x08006f03

08002230 <HDMISwitchEQstate>:
{
 8002230:	b510      	push	{r4, lr}
 8002232:	4604      	mov	r4, r0
    ucEQPort->ucEQState=state;
 8002234:	7001      	strb	r1, [r0, #0]
{
 8002236:	460a      	mov	r2, r1
    EQ_DEBUG_PRINTF(("!!! Port=%X ,HDMISwitchEQstate %X\n",(int) ucEQPort->ucPortID,(int) ucEQPort->ucEQState));
 8002238:	7941      	ldrb	r1, [r0, #5]
 800223a:	4810      	ldr	r0, [pc, #64]	@ (800227c <HDMISwitchEQstate+0x4c>)
 800223c:	f003 f918 	bl	8005470 <iprintf>
    switch(ucEQPort->ucEQState)
 8002240:	7823      	ldrb	r3, [r4, #0]
 8002242:	2b46      	cmp	r3, #70	@ 0x46
 8002244:	d017      	beq.n	8002276 <HDMISwitchEQstate+0x46>
 8002246:	d808      	bhi.n	800225a <HDMISwitchEQstate+0x2a>
 8002248:	2b1e      	cmp	r3, #30
 800224a:	d00d      	beq.n	8002268 <HDMISwitchEQstate+0x38>
 800224c:	2b3c      	cmp	r3, #60	@ 0x3c
 800224e:	d010      	beq.n	8002272 <HDMISwitchEQstate+0x42>
            IT6802_HDCP_ContentOff(ucEQPort->ucPortID, 0);
 8002250:	2100      	movs	r1, #0
 8002252:	7960      	ldrb	r0, [r4, #5]
 8002254:	f7ff ffc4 	bl	80021e0 <IT6802_HDCP_ContentOff>
            break;
 8002258:	e001      	b.n	800225e <HDMISwitchEQstate+0x2e>
    switch(ucEQPort->ucEQState)
 800225a:	2b50      	cmp	r3, #80	@ 0x50
 800225c:	d1f8      	bne.n	8002250 <HDMISwitchEQstate+0x20>
    ucEQPort->ucPkt_Err=0;
 800225e:	2300      	movs	r3, #0
 8002260:	7123      	strb	r3, [r4, #4]
    ucEQPort->ucECCvalue=0;
 8002262:	70a3      	strb	r3, [r4, #2]
    ucEQPort->ucECCfailCount=0;
 8002264:	70e3      	strb	r3, [r4, #3]
}
 8002266:	bd10      	pop	{r4, pc}
    if(ucIndex<MaxEQIndex)
 8002268:	2100      	movs	r1, #0
 800226a:	4620      	mov	r0, r4
 800226c:	f7fe fa18 	bl	80006a0 <HDMISetEQValue.part.0>
}
 8002270:	e7f5      	b.n	800225e <HDMISwitchEQstate+0x2e>
    if(ucIndex<MaxEQIndex)
 8002272:	2101      	movs	r1, #1
 8002274:	e7f9      	b.n	800226a <HDMISwitchEQstate+0x3a>
 8002276:	2102      	movs	r1, #2
 8002278:	e7f7      	b.n	800226a <HDMISwitchEQstate+0x3a>
 800227a:	bf00      	nop
 800227c:	08006f33 	.word	0x08006f33

08002280 <HDMIPollingErrorCount>:
{
 8002280:	e92d 4ff7 	stmdb	sp!, {r0, r1, r2, r4, r5, r6, r7, r8, r9, sl, fp, lr}
 8002284:	4604      	mov	r4, r0
    ucCurrentPort = hdmirxrd(REG_RX_051)&B_PORT_SEL;
 8002286:	2051      	movs	r0, #81	@ 0x51
 8002288:	f7fe f9a6 	bl	80005d8 <hdmirxrd>
    if(ucEQPort->ucPortID==F_PORT_SEL_1)
 800228c:	7963      	ldrb	r3, [r4, #5]
    ucCurrentPort = hdmirxrd(REG_RX_051)&B_PORT_SEL;
 800228e:	f000 0b01 	and.w	fp, r0, #1
    if(ucEQPort->ucPortID==F_PORT_SEL_1)
 8002292:	2b01      	cmp	r3, #1
 8002294:	f040 8092 	bne.w	80023bc <HDMIPollingErrorCount+0x13c>
        ucStatus = hdmirxrd(REG_RX_P1_SYS_STATUS);
 8002298:	200b      	movs	r0, #11
 800229a:	f7fe f99d 	bl	80005d8 <hdmirxrd>
 800229e:	4682      	mov	sl, r0
        Receive_Err = hdmirxrd(REG_RX_0B7);
 80022a0:	20b7      	movs	r0, #183	@ 0xb7
 80022a2:	f7fe f999 	bl	80005d8 <hdmirxrd>
 80022a6:	4606      	mov	r6, r0
        Video_Err = hdmirxrd(REG_RX_0B8)&0xE0;
 80022a8:	20b8      	movs	r0, #184	@ 0xb8
 80022aa:	f7fe f995 	bl	80005d8 <hdmirxrd>
 80022ae:	f000 09e0 	and.w	r9, r0, #224	@ 0xe0
        Code_Err = hdmirxrd(REG_RX_0B9);
 80022b2:	20b9      	movs	r0, #185	@ 0xb9
 80022b4:	f7fe f990 	bl	80005d8 <hdmirxrd>
 80022b8:	4605      	mov	r5, r0
        Pkt_Err = hdmirxrd(REG_RX_0BA);
 80022ba:	20ba      	movs	r0, #186	@ 0xba
 80022bc:	f7fe f98c 	bl	80005d8 <hdmirxrd>
 80022c0:	4607      	mov	r7, r0
        CrtErr = hdmirxrd(REG_RX_0BB);
 80022c2:	20bb      	movs	r0, #187	@ 0xbb
 80022c4:	f7fe f988 	bl	80005d8 <hdmirxrd>
 80022c8:	4680      	mov	r8, r0
        hdmirxwr(REG_RX_0B7,Receive_Err);
 80022ca:	4631      	mov	r1, r6
 80022cc:	20b7      	movs	r0, #183	@ 0xb7
 80022ce:	f7fe f995 	bl	80005fc <hdmirxwr>
        hdmirxwr(REG_RX_0B8,Video_Err);
 80022d2:	4649      	mov	r1, r9
 80022d4:	20b8      	movs	r0, #184	@ 0xb8
 80022d6:	f7fe f991 	bl	80005fc <hdmirxwr>
        hdmirxwr(REG_RX_0B9,Code_Err);
 80022da:	4629      	mov	r1, r5
 80022dc:	20b9      	movs	r0, #185	@ 0xb9
 80022de:	f7fe f98d 	bl	80005fc <hdmirxwr>
        hdmirxwr(REG_RX_0BA,Pkt_Err);
 80022e2:	4639      	mov	r1, r7
 80022e4:	20ba      	movs	r0, #186	@ 0xba
 80022e6:	f7fe f989 	bl	80005fc <hdmirxwr>
        hdmirxwr(REG_RX_0BB,CrtErr);
 80022ea:	4641      	mov	r1, r8
 80022ec:	20bb      	movs	r0, #187	@ 0xbb
 80022ee:	f7fe f985 	bl	80005fc <hdmirxwr>
        ucHDCP = hdmirxrd(REG_RX_095);
 80022f2:	2095      	movs	r0, #149	@ 0x95
        ucHDCP = hdmirxrd(REG_RX_093);
 80022f4:	f7fe f970 	bl	80005d8 <hdmirxrd>
    if(ucCurrentPort == ucEQPort->ucPortID)
 80022f8:	7961      	ldrb	r1, [r4, #5]
 80022fa:	4559      	cmp	r1, fp
 80022fc:	d107      	bne.n	800230e <HDMIPollingErrorCount+0x8e>
        if((ucStatus & B_P0_SCDT) == 0x00)
 80022fe:	f01a 0f80 	tst.w	sl, #128	@ 0x80
            Receive_Err = 0xFF;
 8002302:	bf01      	itttt	eq
 8002304:	26ff      	moveq	r6, #255	@ 0xff
        ucEQPort->ucECCfailCount |= 0x80;
 8002306:	78e3      	ldrbeq	r3, [r4, #3]
 8002308:	f063 037f 	orneq	r3, r3, #127	@ 0x7f
 800230c:	70e3      	strbeq	r3, [r4, #3]
    EQ_DEBUG_PRINTF(("Port=%d ,EQState2No=%d, Receive_Err=%X, HDCP=%X\n",
 800230e:	9000      	str	r0, [sp, #0]
 8002310:	4633      	mov	r3, r6
 8002312:	7822      	ldrb	r2, [r4, #0]
 8002314:	487f      	ldr	r0, [pc, #508]	@ (8002514 <HDMIPollingErrorCount+0x294>)
 8002316:	f003 f8ab 	bl	8005470 <iprintf>
    if(Pkt_Err==0xFF ||Code_Err==0xFF)
 800231a:	2fff      	cmp	r7, #255	@ 0xff
 800231c:	d07d      	beq.n	800241a <HDMIPollingErrorCount+0x19a>
 800231e:	2dff      	cmp	r5, #255	@ 0xff
 8002320:	d07b      	beq.n	800241a <HDMIPollingErrorCount+0x19a>
 8002322:	2300      	movs	r3, #0
 8002324:	7123      	strb	r3, [r4, #4]
    if(Receive_Err != 0 )
 8002326:	b1ae      	cbz	r6, 8002354 <HDMIPollingErrorCount+0xd4>
        EQ_DEBUG_PRINTF(("Video_Err = %X\n",(int) Video_Err));
 8002328:	4649      	mov	r1, r9
 800232a:	487b      	ldr	r0, [pc, #492]	@ (8002518 <HDMIPollingErrorCount+0x298>)
 800232c:	f003 f8a0 	bl	8005470 <iprintf>
        EQ_DEBUG_PRINTF(("Code_Err = %X\n",(int) Code_Err));
 8002330:	4629      	mov	r1, r5
 8002332:	487a      	ldr	r0, [pc, #488]	@ (800251c <HDMIPollingErrorCount+0x29c>)
 8002334:	f003 f89c 	bl	8005470 <iprintf>
        EQ_DEBUG_PRINTF(("Pkt_Err = %X\n",(int) Pkt_Err));
 8002338:	4639      	mov	r1, r7
 800233a:	4879      	ldr	r0, [pc, #484]	@ (8002520 <HDMIPollingErrorCount+0x2a0>)
 800233c:	f003 f898 	bl	8005470 <iprintf>
        EQ_DEBUG_PRINTF(("CrtErr = %X\n",(int) CrtErr));
 8002340:	4641      	mov	r1, r8
 8002342:	4878      	ldr	r0, [pc, #480]	@ (8002524 <HDMIPollingErrorCount+0x2a4>)
 8002344:	f003 f894 	bl	8005470 <iprintf>
        ucEQPort->ucECCvalue++;
 8002348:	78a3      	ldrb	r3, [r4, #2]
        ucEQPort->ucECCfailCount++;
 800234a:	78e6      	ldrb	r6, [r4, #3]
        ucEQPort->ucECCvalue++;
 800234c:	3301      	adds	r3, #1
        ucEQPort->ucECCfailCount++;
 800234e:	3601      	adds	r6, #1
        ucEQPort->ucECCvalue++;
 8002350:	70a3      	strb	r3, [r4, #2]
        ucEQPort->ucECCfailCount++;
 8002352:	b2f6      	uxtb	r6, r6
    if((ucEQPort->ucECCfailCount & 0x7F) < (0x40) )    // before CDR reset , dont care pkt_error and code_error
 8002354:	0672      	lsls	r2, r6, #25
        ucEQPort->ucECCfailCount++;
 8002356:	70e6      	strb	r6, [r4, #3]
    if((ucEQPort->ucECCfailCount & 0x7F) < (0x40) )    // before CDR reset , dont care pkt_error and code_error
 8002358:	d405      	bmi.n	8002366 <HDMIPollingErrorCount+0xe6>
        if(Pkt_Err==0xFF ||Code_Err==0xFF)
 800235a:	2fff      	cmp	r7, #255	@ 0xff
 800235c:	f000 80d7 	beq.w	800250e <HDMIPollingErrorCount+0x28e>
 8002360:	2dff      	cmp	r5, #255	@ 0xff
 8002362:	f000 80d4 	beq.w	800250e <HDMIPollingErrorCount+0x28e>
    if((ucEQPort->ucECCfailCount & 0x0F) > (MINECCFAILCOUNT-2))
 8002366:	f016 0f0c 	tst.w	r6, #12
 800236a:	f000 80d0 	beq.w	800250e <HDMIPollingErrorCount+0x28e>
        ucEQPort->ucECCvalue=MAXECCWAIT;
 800236e:	260a      	movs	r6, #10
        ucCurrentPort = hdmirxrd(REG_RX_051)&B_PORT_SEL;
 8002370:	2051      	movs	r0, #81	@ 0x51
        ucEQPort->ucECCvalue=MAXECCWAIT;
 8002372:	70a6      	strb	r6, [r4, #2]
        ucCurrentPort = hdmirxrd(REG_RX_051)&B_PORT_SEL;
 8002374:	f7fe f930 	bl	80005d8 <hdmirxrd>
        if(ucEQPort->ucPortID==F_PORT_SEL_1)
 8002378:	7963      	ldrb	r3, [r4, #5]
        ucCurrentPort = hdmirxrd(REG_RX_051)&B_PORT_SEL;
 800237a:	f000 0501 	and.w	r5, r0, #1
        if(ucEQPort->ucPortID==F_PORT_SEL_1)
 800237e:	2b01      	cmp	r3, #1
            ucStatus = hdmirxrd(REG_RX_P1_SYS_STATUS);
 8002380:	bf0c      	ite	eq
 8002382:	200b      	moveq	r0, #11
            ucStatus = hdmirxrd(REG_RX_P0_SYS_STATUS);
 8002384:	4630      	movne	r0, r6
 8002386:	f7fe f927 	bl	80005d8 <hdmirxrd>
        if(ucCurrentPort == ucEQPort->ucPortID)
 800238a:	7963      	ldrb	r3, [r4, #5]
 800238c:	42ab      	cmp	r3, r5
 800238e:	d107      	bne.n	80023a0 <HDMIPollingErrorCount+0x120>
            if(((ucStatus & B_P0_SCDT) == 0x00) || ((ucEQPort->ucECCfailCount & 0x80) != 0x00))
 8002390:	0603      	lsls	r3, r0, #24
 8002392:	d503      	bpl.n	800239c <HDMIPollingErrorCount+0x11c>
 8002394:	f994 3003 	ldrsb.w	r3, [r4, #3]
 8002398:	2b00      	cmp	r3, #0
 800239a:	da01      	bge.n	80023a0 <HDMIPollingErrorCount+0x120>
                ucEQPort->ucECCvalue=MAXECCWAIT | 0x80;    // 0x80 for Identify SCDT off with Ecc error
 800239c:	238a      	movs	r3, #138	@ 0x8a
 800239e:	70a3      	strb	r3, [r4, #2]
        StoreEccCount(ucEQPort);    // abnormal judge ucECCvalue mode
 80023a0:	4620      	mov	r0, r4
 80023a2:	f7fe fe93 	bl	80010cc <StoreEccCount>
        if(ucEQPort->ucEQState<EQSTATE_START)
 80023a6:	7823      	ldrb	r3, [r4, #0]
 80023a8:	2b1d      	cmp	r3, #29
 80023aa:	f200 80a4 	bhi.w	80024f6 <HDMIPollingErrorCount+0x276>
            HDMISwitchEQstate(ucEQPort,EQSTATE_START);
 80023ae:	211e      	movs	r1, #30
            HDMISwitchEQstate(ucEQPort,EQSTATE_HIGH);
 80023b0:	4620      	mov	r0, r4
}
 80023b2:	b003      	add	sp, #12
 80023b4:	e8bd 4ff0 	ldmia.w	sp!, {r4, r5, r6, r7, r8, r9, sl, fp, lr}
            HDMISwitchEQstate(ucEQPort,EQSTATE_HIGH);
 80023b8:	f7ff bf3a 	b.w	8002230 <HDMISwitchEQstate>
        ucStatus = hdmirxrd(REG_RX_P0_SYS_STATUS);
 80023bc:	200a      	movs	r0, #10
 80023be:	f7fe f90b 	bl	80005d8 <hdmirxrd>
 80023c2:	4682      	mov	sl, r0
        Receive_Err = hdmirxrd(REG_RX_0B2);
 80023c4:	20b2      	movs	r0, #178	@ 0xb2
 80023c6:	f7fe f907 	bl	80005d8 <hdmirxrd>
 80023ca:	4606      	mov	r6, r0
        Video_Err = hdmirxrd(REG_RX_0B3)&0xE0;
 80023cc:	20b3      	movs	r0, #179	@ 0xb3
 80023ce:	f7fe f903 	bl	80005d8 <hdmirxrd>
 80023d2:	f000 09e0 	and.w	r9, r0, #224	@ 0xe0
        Code_Err = hdmirxrd(REG_RX_0B4);
 80023d6:	20b4      	movs	r0, #180	@ 0xb4
 80023d8:	f7fe f8fe 	bl	80005d8 <hdmirxrd>
 80023dc:	4605      	mov	r5, r0
        Pkt_Err = hdmirxrd(REG_RX_0B5);
 80023de:	20b5      	movs	r0, #181	@ 0xb5
 80023e0:	f7fe f8fa 	bl	80005d8 <hdmirxrd>
 80023e4:	4607      	mov	r7, r0
        CrtErr = hdmirxrd(REG_RX_0B6);
 80023e6:	20b6      	movs	r0, #182	@ 0xb6
 80023e8:	f7fe f8f6 	bl	80005d8 <hdmirxrd>
 80023ec:	4680      	mov	r8, r0
        hdmirxwr(REG_RX_0B2,Receive_Err);
 80023ee:	4631      	mov	r1, r6
 80023f0:	20b2      	movs	r0, #178	@ 0xb2
 80023f2:	f7fe f903 	bl	80005fc <hdmirxwr>
        hdmirxwr(REG_RX_0B3,Video_Err);
 80023f6:	4649      	mov	r1, r9
 80023f8:	20b3      	movs	r0, #179	@ 0xb3
 80023fa:	f7fe f8ff 	bl	80005fc <hdmirxwr>
        hdmirxwr(REG_RX_0B4,Code_Err);
 80023fe:	4629      	mov	r1, r5
 8002400:	20b4      	movs	r0, #180	@ 0xb4
 8002402:	f7fe f8fb 	bl	80005fc <hdmirxwr>
        hdmirxwr(REG_RX_0B5,Pkt_Err);
 8002406:	4639      	mov	r1, r7
 8002408:	20b5      	movs	r0, #181	@ 0xb5
 800240a:	f7fe f8f7 	bl	80005fc <hdmirxwr>
        hdmirxwr(REG_RX_0B6,CrtErr);
 800240e:	4641      	mov	r1, r8
 8002410:	20b6      	movs	r0, #182	@ 0xb6
 8002412:	f7fe f8f3 	bl	80005fc <hdmirxwr>
        ucHDCP = hdmirxrd(REG_RX_093);
 8002416:	2093      	movs	r0, #147	@ 0x93
 8002418:	e76c      	b.n	80022f4 <HDMIPollingErrorCount+0x74>
        ucEQPort->ucPkt_Err++;    // judge whether CDR reset
 800241a:	7923      	ldrb	r3, [r4, #4]
 800241c:	3301      	adds	r3, #1
 800241e:	b2db      	uxtb	r3, r3
    if(ucEQPort->ucPkt_Err > (MINECCFAILCOUNT-2))
 8002420:	2b03      	cmp	r3, #3
 8002422:	7123      	strb	r3, [r4, #4]
 8002424:	f67f af7f 	bls.w	8002326 <HDMIPollingErrorCount+0xa6>
        if( ucEQPort->ucEQState > EQSTATE_START)
 8002428:	7823      	ldrb	r3, [r4, #0]
 800242a:	2b1e      	cmp	r3, #30
 800242c:	d934      	bls.n	8002498 <HDMIPollingErrorCount+0x218>
            EQ_DEBUG_PRINTF(("1111111111111111111111111111111111111111111111111111111111111111111111111\n"));
 800242e:	483e      	ldr	r0, [pc, #248]	@ (8002528 <HDMIPollingErrorCount+0x2a8>)
 8002430:	f003 f886 	bl	8005540 <puts>
            if(ucEQPort->ucPortID==F_PORT_SEL_1)
 8002434:	7963      	ldrb	r3, [r4, #5]
 8002436:	2b01      	cmp	r3, #1
 8002438:	d139      	bne.n	80024ae <HDMIPollingErrorCount+0x22e>
                Code_Err = hdmirxrd(REG_RX_0B9);
 800243a:	20b9      	movs	r0, #185	@ 0xb9
 800243c:	f7fe f8cc 	bl	80005d8 <hdmirxrd>
 8002440:	4605      	mov	r5, r0
                hdmirxwr(REG_RX_0B9,Code_Err);
 8002442:	4601      	mov	r1, r0
 8002444:	20b9      	movs	r0, #185	@ 0xb9
 8002446:	f7fe f8d9 	bl	80005fc <hdmirxwr>
                if(Code_Err == 0xFF)
 800244a:	2dff      	cmp	r5, #255	@ 0xff
 800244c:	d10f      	bne.n	800246e <HDMIPollingErrorCount+0x1ee>
                    if(hdmirxrd(REG_RX_038) == 0x00)
 800244e:	2038      	movs	r0, #56	@ 0x38
 8002450:	f7fe f8c2 	bl	80005d8 <hdmirxrd>
 8002454:	bb48      	cbnz	r0, 80024aa <HDMIPollingErrorCount+0x22a>
                        hdmirxwr(REG_RX_038,0x3F);    // Dr. Liu suggestion to 0x00
 8002456:	213f      	movs	r1, #63	@ 0x3f
                        hdmirxwr(REG_RX_038,0x00);    // Dr. Liu suggestion to 0x3F
 8002458:	2038      	movs	r0, #56	@ 0x38
 800245a:	f7fe f8cf 	bl	80005fc <hdmirxwr>
                    EQ_DEBUG_PRINTF(("Port 1 Reg38=%X !!!\n",(int) hdmirxrd(REG_RX_038)));
 800245e:	2038      	movs	r0, #56	@ 0x38
 8002460:	f7fe f8ba 	bl	80005d8 <hdmirxrd>
 8002464:	4601      	mov	r1, r0
 8002466:	4831      	ldr	r0, [pc, #196]	@ (800252c <HDMIPollingErrorCount+0x2ac>)
                    EQ_DEBUG_PRINTF(("Port 0 Reg20=%X !!!\n",(int) hdmirxrd(REG_RX_020)));
 8002468:	f003 f802 	bl	8005470 <iprintf>
                Code_Err = hdmirxrd(REG_RX_0B9);
 800246c:	25ff      	movs	r5, #255	@ 0xff
            EQ_DEBUG_PRINTF(("1111111111111111111111111111111111111111111111111111111111111111111111111\n"));
 800246e:	482e      	ldr	r0, [pc, #184]	@ (8002528 <HDMIPollingErrorCount+0x2a8>)
 8002470:	f003 f866 	bl	8005540 <puts>
                hdmirxset(REG_RX_011,(B_P0_DCLKRST|B_P0_CDRRST),(B_P0_DCLKRST|B_P0_CDRRST/*|B_P0_SWRST*/));
 8002474:	220c      	movs	r2, #12
            if(ucEQPort->ucPortID==F_PORT_SEL_0)
 8002476:	f894 a005 	ldrb.w	sl, [r4, #5]
                hdmirxset(REG_RX_011,(B_P0_DCLKRST|B_P0_CDRRST),(B_P0_DCLKRST|B_P0_CDRRST/*|B_P0_SWRST*/));
 800247a:	4611      	mov	r1, r2
            if(ucEQPort->ucPortID==F_PORT_SEL_0)
 800247c:	f1ba 0f00 	cmp.w	sl, #0
 8002480:	d12f      	bne.n	80024e2 <HDMIPollingErrorCount+0x262>
                hdmirxset(REG_RX_011,(B_P0_DCLKRST|B_P0_CDRRST),(B_P0_DCLKRST|B_P0_CDRRST/*|B_P0_SWRST*/));
 8002482:	2011      	movs	r0, #17
 8002484:	f7fe f8d0 	bl	8000628 <hdmirxset>
                hdmirxset(REG_RX_011,(B_P0_DCLKRST|B_P0_CDRRST),0x00);
 8002488:	4652      	mov	r2, sl
 800248a:	210c      	movs	r1, #12
 800248c:	2011      	movs	r0, #17
 800248e:	f7fe f8cb 	bl	8000628 <hdmirxset>
                EQ_PORT0_PRINTF((" HDMIPollingErrorCount( ) Port 0 CDR reset !!!!!!!!!!!!!!!!!!\n"));
 8002492:	4827      	ldr	r0, [pc, #156]	@ (8002530 <HDMIPollingErrorCount+0x2b0>)
                EQ_PORT0_PRINTF((" HDMIPollingErrorCount( ) Port 1 CDR reset !!!!!!!!!!!!!!!!!!\n"));
 8002494:	f003 f854 	bl	8005540 <puts>
        ucEQPort->ucPkt_Err=0;
 8002498:	2300      	movs	r3, #0
 800249a:	7123      	strb	r3, [r4, #4]
        ucEQPort->ucECCfailCount &= 0xF0;
 800249c:	78e3      	ldrb	r3, [r4, #3]
 800249e:	f023 030f 	bic.w	r3, r3, #15
 80024a2:	f043 0340 	orr.w	r3, r3, #64	@ 0x40
 80024a6:	70e3      	strb	r3, [r4, #3]
 80024a8:	e73d      	b.n	8002326 <HDMIPollingErrorCount+0xa6>
                        hdmirxwr(REG_RX_038,0x00);    // Dr. Liu suggestion to 0x3F
 80024aa:	2100      	movs	r1, #0
 80024ac:	e7d4      	b.n	8002458 <HDMIPollingErrorCount+0x1d8>
                Code_Err = hdmirxrd(REG_RX_0B4);
 80024ae:	20b4      	movs	r0, #180	@ 0xb4
 80024b0:	f7fe f892 	bl	80005d8 <hdmirxrd>
 80024b4:	4605      	mov	r5, r0
                hdmirxwr(REG_RX_0B4,Code_Err);
 80024b6:	4601      	mov	r1, r0
 80024b8:	20b4      	movs	r0, #180	@ 0xb4
 80024ba:	f7fe f89f 	bl	80005fc <hdmirxwr>
                if(Code_Err == 0xFF)
 80024be:	2dff      	cmp	r5, #255	@ 0xff
 80024c0:	d1d5      	bne.n	800246e <HDMIPollingErrorCount+0x1ee>
                    if(hdmirxrd(REG_RX_020) == 0x00)
 80024c2:	2020      	movs	r0, #32
 80024c4:	f7fe f888 	bl	80005d8 <hdmirxrd>
 80024c8:	b948      	cbnz	r0, 80024de <HDMIPollingErrorCount+0x25e>
                        hdmirxwr(REG_RX_020,0x3F);    // Dr. Liu suggestion to 0x00
 80024ca:	213f      	movs	r1, #63	@ 0x3f
                        hdmirxwr(REG_RX_020,0x00);    // Dr. Liu suggestion to 0x3F
 80024cc:	2020      	movs	r0, #32
 80024ce:	f7fe f895 	bl	80005fc <hdmirxwr>
                    EQ_DEBUG_PRINTF(("Port 0 Reg20=%X !!!\n",(int) hdmirxrd(REG_RX_020)));
 80024d2:	2020      	movs	r0, #32
 80024d4:	f7fe f880 	bl	80005d8 <hdmirxrd>
 80024d8:	4601      	mov	r1, r0
 80024da:	4816      	ldr	r0, [pc, #88]	@ (8002534 <HDMIPollingErrorCount+0x2b4>)
 80024dc:	e7c4      	b.n	8002468 <HDMIPollingErrorCount+0x1e8>
                        hdmirxwr(REG_RX_020,0x00);    // Dr. Liu suggestion to 0x3F
 80024de:	2100      	movs	r1, #0
 80024e0:	e7f4      	b.n	80024cc <HDMIPollingErrorCount+0x24c>
                hdmirxset(REG_RX_018,(B_P1_DCLKRST|B_P1_CDRRST),(B_P1_DCLKRST|B_P1_CDRRST/*|B_P1_SWRST*/));
 80024e2:	2018      	movs	r0, #24
 80024e4:	f7fe f8a0 	bl	8000628 <hdmirxset>
                hdmirxset(REG_RX_018,(B_P1_DCLKRST|B_P1_CDRRST),0x00);
 80024e8:	2200      	movs	r2, #0
 80024ea:	210c      	movs	r1, #12
 80024ec:	2018      	movs	r0, #24
 80024ee:	f7fe f89b 	bl	8000628 <hdmirxset>
                EQ_PORT0_PRINTF((" HDMIPollingErrorCount( ) Port 1 CDR reset !!!!!!!!!!!!!!!!!!\n"));
 80024f2:	4811      	ldr	r0, [pc, #68]	@ (8002538 <HDMIPollingErrorCount+0x2b8>)
 80024f4:	e7ce      	b.n	8002494 <HDMIPollingErrorCount+0x214>
        else if(ucEQPort->ucEQState<EQSTATE_LOW)
 80024f6:	2b3b      	cmp	r3, #59	@ 0x3b
 80024f8:	d801      	bhi.n	80024fe <HDMIPollingErrorCount+0x27e>
            HDMISwitchEQstate(ucEQPort,EQSTATE_LOW);
 80024fa:	213c      	movs	r1, #60	@ 0x3c
 80024fc:	e758      	b.n	80023b0 <HDMIPollingErrorCount+0x130>
        else if(ucEQPort->ucEQState<EQSTATE_MIDDLE)
 80024fe:	2b45      	cmp	r3, #69	@ 0x45
 8002500:	d801      	bhi.n	8002506 <HDMIPollingErrorCount+0x286>
            HDMISwitchEQstate(ucEQPort,EQSTATE_MIDDLE);
 8002502:	2146      	movs	r1, #70	@ 0x46
 8002504:	e754      	b.n	80023b0 <HDMIPollingErrorCount+0x130>
        else if(ucEQPort->ucEQState<=EQSTATE_HIGH)
 8002506:	2b50      	cmp	r3, #80	@ 0x50
 8002508:	d801      	bhi.n	800250e <HDMIPollingErrorCount+0x28e>
            HDMISwitchEQstate(ucEQPort,EQSTATE_HIGH);
 800250a:	2150      	movs	r1, #80	@ 0x50
 800250c:	e750      	b.n	80023b0 <HDMIPollingErrorCount+0x130>
}
 800250e:	b003      	add	sp, #12
 8002510:	e8bd 8ff0 	ldmia.w	sp!, {r4, r5, r6, r7, r8, r9, sl, fp, pc}
 8002514:	08006f56 	.word	0x08006f56
 8002518:	08007077 	.word	0x08007077
 800251c:	08007087 	.word	0x08007087
 8002520:	08007096 	.word	0x08007096
 8002524:	080070a4 	.word	0x080070a4
 8002528:	08006f87 	.word	0x08006f87
 800252c:	08006fd1 	.word	0x08006fd1
 8002530:	08006ffb 	.word	0x08006ffb
 8002534:	08006fe6 	.word	0x08006fe6
 8002538:	08007039 	.word	0x08007039

0800253c <HDMIJudgeECCvalue>:
{
 800253c:	b510      	push	{r4, lr}
 800253e:	4604      	mov	r4, r0
    EQ_DEBUG_PRINTF(("!!! HDMI Judge ECCvalue( ) %X!!!\n",(int) ucEQPort->ucECCvalue));
 8002540:	7881      	ldrb	r1, [r0, #2]
 8002542:	480e      	ldr	r0, [pc, #56]	@ (800257c <HDMIJudgeECCvalue+0x40>)
 8002544:	f002 ff94 	bl	8005470 <iprintf>
    StoreEccCount(ucEQPort);    // normal judge ucECCvalue mode
 8002548:	4620      	mov	r0, r4
 800254a:	f7fe fdbf 	bl	80010cc <StoreEccCount>
    if((ucEQPort->ucECCvalue) > (MAXECCWAIT/2))
 800254e:	78a3      	ldrb	r3, [r4, #2]
 8002550:	2b05      	cmp	r3, #5
 8002552:	d911      	bls.n	8002578 <HDMIJudgeECCvalue+0x3c>
            if(ucEQPort->ucEQState==EQSTATE_START)
 8002554:	7821      	ldrb	r1, [r4, #0]
 8002556:	291e      	cmp	r1, #30
 8002558:	d103      	bne.n	8002562 <HDMIJudgeECCvalue+0x26>
        HDMISwitchEQstate(ucEQPort,EQSTATE_END);    // quit EQadjust( )
 800255a:	4620      	mov	r0, r4
 800255c:	f7ff fe68 	bl	8002230 <HDMISwitchEQstate>
 8002560:	e005      	b.n	800256e <HDMIJudgeECCvalue+0x32>
            else if(ucEQPort->ucEQState==EQSTATE_LOW)
 8002562:	293c      	cmp	r1, #60	@ 0x3c
 8002564:	d0f9      	beq.n	800255a <HDMIJudgeECCvalue+0x1e>
            else if(ucEQPort->ucEQState==EQSTATE_MIDDLE)
 8002566:	2946      	cmp	r1, #70	@ 0x46
 8002568:	d0f7      	beq.n	800255a <HDMIJudgeECCvalue+0x1e>
            else if(ucEQPort->ucEQState==EQSTATE_HIGH)
 800256a:	2950      	cmp	r1, #80	@ 0x50
 800256c:	d0f5      	beq.n	800255a <HDMIJudgeECCvalue+0x1e>
    ucEQPort->ucPkt_Err=0;
 800256e:	2300      	movs	r3, #0
 8002570:	7123      	strb	r3, [r4, #4]
    ucEQPort->ucECCvalue=0;
 8002572:	70a3      	strb	r3, [r4, #2]
    ucEQPort->ucECCfailCount=0;
 8002574:	70e3      	strb	r3, [r4, #3]
}
 8002576:	bd10      	pop	{r4, pc}
        HDMISwitchEQstate(ucEQPort,EQSTATE_END);    // quit EQadjust( )
 8002578:	219b      	movs	r1, #155	@ 0x9b
 800257a:	e7ee      	b.n	800255a <HDMIJudgeECCvalue+0x1e>
 800257c:	080070b1 	.word	0x080070b1

08002580 <HDMICheckSCDTon>:
{
 8002580:	e92d 41ff 	stmdb	sp!, {r0, r1, r2, r3, r4, r5, r6, r7, r8, lr}
 8002584:	4604      	mov	r4, r0
    ucCurrentPort = hdmirxrd(REG_RX_051) & B_PORT_SEL;
 8002586:	2051      	movs	r0, #81	@ 0x51
 8002588:	f7fe f826 	bl	80005d8 <hdmirxrd>
    if(ucEQPort->ucPortID != ucCurrentPort)
 800258c:	7963      	ldrb	r3, [r4, #5]
    ucCurrentPort = hdmirxrd(REG_RX_051) & B_PORT_SEL;
 800258e:	f000 0801 	and.w	r8, r0, #1
    if(ucEQPort->ucPortID != ucCurrentPort)
 8002592:	4543      	cmp	r3, r8
 8002594:	f040 80b9 	bne.w	800270a <HDMICheckSCDTon+0x18a>
    if(ucEQPort->ucPortID==F_PORT_SEL_1)
 8002598:	f1b8 0f00 	cmp.w	r8, #0
 800259c:	d062      	beq.n	8002664 <HDMICheckSCDTon+0xe4>
        ucStatus = hdmirxrd(REG_RX_P1_SYS_STATUS);
 800259e:	200b      	movs	r0, #11
 80025a0:	f7fe f81a 	bl	80005d8 <hdmirxrd>
 80025a4:	4606      	mov	r6, r0
        Receive_Err = hdmirxrd(REG_RX_0B7);
 80025a6:	20b7      	movs	r0, #183	@ 0xb7
 80025a8:	f7fe f816 	bl	80005d8 <hdmirxrd>
        hdmirxwr(REG_RX_0B7,Receive_Err);
 80025ac:	4601      	mov	r1, r0
        Receive_Err = hdmirxrd(REG_RX_0B7);
 80025ae:	4605      	mov	r5, r0
        hdmirxwr(REG_RX_0B7,Receive_Err);
 80025b0:	20b7      	movs	r0, #183	@ 0xb7
 80025b2:	f7fe f823 	bl	80005fc <hdmirxwr>
        ucHDCP = hdmirxrd(REG_RX_095);
 80025b6:	2095      	movs	r0, #149	@ 0x95
        ucHDCP = hdmirxrd(REG_RX_093);
 80025b8:	f7fe f80e 	bl	80005d8 <hdmirxrd>
    if((ucStatus & (B_P0_SCDT|B_P0_PWR5V_DET|B_P0_RXCK_VALID)) == (B_P0_PWR5V_DET|B_P0_RXCK_VALID))
 80025bc:	f006 0389 	and.w	r3, r6, #137	@ 0x89
 80025c0:	2b09      	cmp	r3, #9
            ucEQPort->ucECCfailCount++;
 80025c2:	bf08      	it	eq
 80025c4:	78e3      	ldrbeq	r3, [r4, #3]
        ucHDCP = hdmirxrd(REG_RX_093);
 80025c6:	4607      	mov	r7, r0
            ucEQPort->ucECCfailCount++;
 80025c8:	bf04      	itt	eq
 80025ca:	3301      	addeq	r3, #1
 80025cc:	70e3      	strbeq	r3, [r4, #3]
    EQ_DEBUG_PRINTF(("Port=%d, CheckSCDTon=%d, Receive_Err=%X, ucECCfailCount=%X, SCDT=%X, HDCP=%X\n",
 80025ce:	e9cd 6001 	strd	r6, r0, [sp, #4]
 80025d2:	78e3      	ldrb	r3, [r4, #3]
 80025d4:	484e      	ldr	r0, [pc, #312]	@ (8002710 <HDMICheckSCDTon+0x190>)
 80025d6:	9300      	str	r3, [sp, #0]
 80025d8:	7822      	ldrb	r2, [r4, #0]
 80025da:	462b      	mov	r3, r5
 80025dc:	7961      	ldrb	r1, [r4, #5]
 80025de:	f002 ff47 	bl	8005470 <iprintf>
    if((Receive_Err & 0xC0) != 0x00)
 80025e2:	2d3f      	cmp	r5, #63	@ 0x3f
 80025e4:	d920      	bls.n	8002628 <HDMICheckSCDTon+0xa8>
            ucEQPort->ucECCvalue++;
 80025e6:	78a3      	ldrb	r3, [r4, #2]
            IT6802_HDCP_ContentOff(ucEQPort->ucPortID, 1);
 80025e8:	2101      	movs	r1, #1
            ucEQPort->ucECCvalue++;
 80025ea:	3301      	adds	r3, #1
 80025ec:	70a3      	strb	r3, [r4, #2]
            IT6802_HDCP_ContentOff(ucEQPort->ucPortID, 1);
 80025ee:	7960      	ldrb	r0, [r4, #5]
 80025f0:	f7ff fdf6 	bl	80021e0 <IT6802_HDCP_ContentOff>
            if(ucEQPort->ucECCvalue > ((MINECCFAILCOUNT/2)))
 80025f4:	78a3      	ldrb	r3, [r4, #2]
 80025f6:	2b02      	cmp	r3, #2
 80025f8:	d916      	bls.n	8002628 <HDMICheckSCDTon+0xa8>
                ucEQPort->ucECCvalue = 0;
 80025fa:	2300      	movs	r3, #0
                EQ_DEBUG_PRINTF(("HDMICheckSCDTon() for ECC / Deskew issue !!!"));
 80025fc:	4845      	ldr	r0, [pc, #276]	@ (8002714 <HDMICheckSCDTon+0x194>)
                ucEQPort->ucECCvalue = 0;
 80025fe:	70a3      	strb	r3, [r4, #2]
                EQ_DEBUG_PRINTF(("HDMICheckSCDTon() for ECC / Deskew issue !!!"));
 8002600:	f002 ff36 	bl	8005470 <iprintf>
                if(ucEQPort->ucPortID==F_PORT_SEL_1)
 8002604:	7963      	ldrb	r3, [r4, #5]
 8002606:	2b01      	cmp	r3, #1
 8002608:	d13a      	bne.n	8002680 <HDMICheckSCDTon+0x100>
                    if(hdmirxrd(REG_RX_038) == 0x00)
 800260a:	2038      	movs	r0, #56	@ 0x38
 800260c:	f7fd ffe4 	bl	80005d8 <hdmirxrd>
 8002610:	b918      	cbnz	r0, 800261a <HDMICheckSCDTon+0x9a>
                        hdmirxwr(REG_RX_038,0x3F);    // Dr. Liu suggestion to 0x00
 8002612:	213f      	movs	r1, #63	@ 0x3f
 8002614:	2038      	movs	r0, #56	@ 0x38
 8002616:	f7fd fff1 	bl	80005fc <hdmirxwr>
                    EQ_PORT1_PRINTF(("Port 1 Reg38=%X !!!\n",(int) hdmirxrd(REG_RX_038)));
 800261a:	2038      	movs	r0, #56	@ 0x38
 800261c:	f7fd ffdc 	bl	80005d8 <hdmirxrd>
 8002620:	4601      	mov	r1, r0
 8002622:	483d      	ldr	r0, [pc, #244]	@ (8002718 <HDMICheckSCDTon+0x198>)
                    EQ_PORT0_PRINTF(("Port 0 Reg20=%X !!!\n",(int) hdmirxrd(REG_RX_020)));
 8002624:	f002 ff24 	bl	8005470 <iprintf>
    if(ucEQPort->ucEQState == EQSTATE_WAIT-1)
 8002628:	7822      	ldrb	r2, [r4, #0]
 800262a:	2a13      	cmp	r2, #19
 800262c:	d16d      	bne.n	800270a <HDMICheckSCDTon+0x18a>
            EQ_DEBUG_PRINTF(("Port=%d, CheckSCDTon=%d, Receive_Err=%X, ucECCfailCount=%X, SCDT=%X, HDCP=%X\n",
 800262e:	e9cd 6701 	strd	r6, r7, [sp, #4]
 8002632:	78e3      	ldrb	r3, [r4, #3]
 8002634:	4836      	ldr	r0, [pc, #216]	@ (8002710 <HDMICheckSCDTon+0x190>)
 8002636:	9300      	str	r3, [sp, #0]
 8002638:	7961      	ldrb	r1, [r4, #5]
 800263a:	462b      	mov	r3, r5
            if((Receive_Err & 0xC0) == 0xC0)
 800263c:	f005 05c0 	and.w	r5, r5, #192	@ 0xc0
            EQ_DEBUG_PRINTF(("Port=%d, CheckSCDTon=%d, Receive_Err=%X, ucECCfailCount=%X, SCDT=%X, HDCP=%X\n",
 8002640:	f002 ff16 	bl	8005470 <iprintf>
            if((Receive_Err & 0xC0) == 0xC0)
 8002644:	2dc0      	cmp	r5, #192	@ 0xc0
 8002646:	d12a      	bne.n	800269e <HDMICheckSCDTon+0x11e>
                EQ_DEBUG_PRINTF(("HDMICheckSCDTon() CDR reset for Port %d ECC_TIMEOUT !!!\n",ucCurrentPort));
 8002648:	4641      	mov	r1, r8
 800264a:	4834      	ldr	r0, [pc, #208]	@ (800271c <HDMICheckSCDTon+0x19c>)
 800264c:	f002 ff10 	bl	8005470 <iprintf>
                hdmirx_ECCTimingOut(ucCurrentPort);
 8002650:	4640      	mov	r0, r8
 8002652:	f7ff fa4b 	bl	8001aec <hdmirx_ECCTimingOut>
                HDMISwitchEQstate(ucEQPort,EQSTATE_END);
 8002656:	219b      	movs	r1, #155	@ 0x9b
        HDMISwitchEQstate(ucEQPort,EQSTATE_WAIT);
 8002658:	4620      	mov	r0, r4
}
 800265a:	b004      	add	sp, #16
 800265c:	e8bd 41f0 	ldmia.w	sp!, {r4, r5, r6, r7, r8, lr}
        HDMISwitchEQstate(ucEQPort,EQSTATE_WAIT);
 8002660:	f7ff bde6 	b.w	8002230 <HDMISwitchEQstate>
        ucStatus = hdmirxrd(REG_RX_P0_SYS_STATUS);
 8002664:	200a      	movs	r0, #10
 8002666:	f7fd ffb7 	bl	80005d8 <hdmirxrd>
 800266a:	4606      	mov	r6, r0
        Receive_Err = hdmirxrd(REG_RX_0B2);
 800266c:	20b2      	movs	r0, #178	@ 0xb2
 800266e:	f7fd ffb3 	bl	80005d8 <hdmirxrd>
        hdmirxwr(REG_RX_0B2,Receive_Err);
 8002672:	4601      	mov	r1, r0
        Receive_Err = hdmirxrd(REG_RX_0B2);
 8002674:	4605      	mov	r5, r0
        hdmirxwr(REG_RX_0B2,Receive_Err);
 8002676:	20b2      	movs	r0, #178	@ 0xb2
 8002678:	f7fd ffc0 	bl	80005fc <hdmirxwr>
        ucHDCP = hdmirxrd(REG_RX_093);
 800267c:	2093      	movs	r0, #147	@ 0x93
 800267e:	e79b      	b.n	80025b8 <HDMICheckSCDTon+0x38>
                    if(hdmirxrd(REG_RX_020) == 0x00)
 8002680:	2020      	movs	r0, #32
 8002682:	f7fd ffa9 	bl	80005d8 <hdmirxrd>
 8002686:	2800      	cmp	r0, #0
 8002688:	d1ce      	bne.n	8002628 <HDMICheckSCDTon+0xa8>
                        hdmirxwr(REG_RX_020,0x3F);    // Dr. Liu suggestion to 0x00
 800268a:	213f      	movs	r1, #63	@ 0x3f
 800268c:	2020      	movs	r0, #32
 800268e:	f7fd ffb5 	bl	80005fc <hdmirxwr>
                    EQ_PORT0_PRINTF(("Port 0 Reg20=%X !!!\n",(int) hdmirxrd(REG_RX_020)));
 8002692:	2020      	movs	r0, #32
 8002694:	f7fd ffa0 	bl	80005d8 <hdmirxrd>
 8002698:	4601      	mov	r1, r0
 800269a:	4821      	ldr	r0, [pc, #132]	@ (8002720 <HDMICheckSCDTon+0x1a0>)
 800269c:	e7c2      	b.n	8002624 <HDMICheckSCDTon+0xa4>
        if((ucEQPort->ucECCfailCount)==0)
 800269e:	78e3      	ldrb	r3, [r4, #3]
 80026a0:	b9c3      	cbnz	r3, 80026d4 <HDMICheckSCDTon+0x154>
            if(ucEQPort->ucPortID==F_PORT_SEL_1)
 80026a2:	7963      	ldrb	r3, [r4, #5]
 80026a4:	2b01      	cmp	r3, #1
 80026a6:	4b1f      	ldr	r3, [pc, #124]	@ (8002724 <HDMICheckSCDTon+0x1a4>)
 80026a8:	d116      	bne.n	80026d8 <HDMICheckSCDTon+0x158>
                if(ucEQMode[F_PORT_SEL_1] == 0)    // verfiy Auto EQ Value wehn auto EQ finish
 80026aa:	785b      	ldrb	r3, [r3, #1]
 80026ac:	2b00      	cmp	r3, #0
 80026ae:	d1d2      	bne.n	8002656 <HDMICheckSCDTon+0xd6>
                    if(    ((ucChannelB[F_PORT_SEL_1] & 0x7F)<0x0F) ||
 80026b0:	4b1d      	ldr	r3, [pc, #116]	@ (8002728 <HDMICheckSCDTon+0x1a8>)
 80026b2:	785b      	ldrb	r3, [r3, #1]
 80026b4:	f003 037f 	and.w	r3, r3, #127	@ 0x7f
 80026b8:	2b0e      	cmp	r3, #14
 80026ba:	d90b      	bls.n	80026d4 <HDMICheckSCDTon+0x154>
                        ((ucChannelG[F_PORT_SEL_1] & 0x7F)<0x0F) ||
 80026bc:	4b1b      	ldr	r3, [pc, #108]	@ (800272c <HDMICheckSCDTon+0x1ac>)
                    if(    ((ucChannelB[F_PORT_SEL_1] & 0x7F)<0x0F) ||
 80026be:	785b      	ldrb	r3, [r3, #1]
 80026c0:	f003 037f 	and.w	r3, r3, #127	@ 0x7f
 80026c4:	2b0e      	cmp	r3, #14
 80026c6:	d905      	bls.n	80026d4 <HDMICheckSCDTon+0x154>
                        ((ucChannelR[F_PORT_SEL_1] & 0x7F)<0x0F) )
 80026c8:	4b19      	ldr	r3, [pc, #100]	@ (8002730 <HDMICheckSCDTon+0x1b0>)
                        ((ucChannelG[F_PORT_SEL_1] & 0x7F)<0x0F) ||
 80026ca:	785b      	ldrb	r3, [r3, #1]
                            ((ucChannelG[F_PORT_SEL_0] & 0x7F)<0x0F) ||
 80026cc:	f003 037f 	and.w	r3, r3, #127	@ 0x7f
 80026d0:	2b0e      	cmp	r3, #14
 80026d2:	d8c0      	bhi.n	8002656 <HDMICheckSCDTon+0xd6>
        HDMISwitchEQstate(ucEQPort,EQSTATE_WAIT);
 80026d4:	2114      	movs	r1, #20
 80026d6:	e7bf      	b.n	8002658 <HDMICheckSCDTon+0xd8>
                if(ucEQMode[F_PORT_SEL_0] == 0)    // verfiy Auto EQ Value when auto EQ finish
 80026d8:	781b      	ldrb	r3, [r3, #0]
 80026da:	2b00      	cmp	r3, #0
 80026dc:	d1bb      	bne.n	8002656 <HDMICheckSCDTon+0xd6>
                    if(hdmirxrd(REG_RX_P0_SYS_STATUS) & (B_P0_MxL_MODE))
 80026de:	200a      	movs	r0, #10
 80026e0:	f7fd ff7a 	bl	80005d8 <hdmirxrd>
 80026e4:	f010 0f40 	tst.w	r0, #64	@ 0x40
 80026e8:	4b0f      	ldr	r3, [pc, #60]	@ (8002728 <HDMICheckSCDTon+0x1a8>)
 80026ea:	d001      	beq.n	80026f0 <HDMICheckSCDTon+0x170>
                            ((ucChannelG[F_PORT_SEL_0] & 0x7F)<0x0F) ||
 80026ec:	781b      	ldrb	r3, [r3, #0]
 80026ee:	e7ed      	b.n	80026cc <HDMICheckSCDTon+0x14c>
                        if(    ((ucChannelB[F_PORT_SEL_0] & 0x7F)<0x0F) ||
 80026f0:	781b      	ldrb	r3, [r3, #0]
 80026f2:	f003 037f 	and.w	r3, r3, #127	@ 0x7f
 80026f6:	2b0e      	cmp	r3, #14
 80026f8:	d9ec      	bls.n	80026d4 <HDMICheckSCDTon+0x154>
                            ((ucChannelG[F_PORT_SEL_0] & 0x7F)<0x0F) ||
 80026fa:	4b0c      	ldr	r3, [pc, #48]	@ (800272c <HDMICheckSCDTon+0x1ac>)
                        if(    ((ucChannelB[F_PORT_SEL_0] & 0x7F)<0x0F) ||
 80026fc:	781b      	ldrb	r3, [r3, #0]
 80026fe:	f003 037f 	and.w	r3, r3, #127	@ 0x7f
 8002702:	2b0e      	cmp	r3, #14
 8002704:	d9e6      	bls.n	80026d4 <HDMICheckSCDTon+0x154>
                            ((ucChannelR[F_PORT_SEL_0] & 0x7F)<0x0F) )
 8002706:	4b0a      	ldr	r3, [pc, #40]	@ (8002730 <HDMICheckSCDTon+0x1b0>)
 8002708:	e7f0      	b.n	80026ec <HDMICheckSCDTon+0x16c>
}
 800270a:	b004      	add	sp, #16
 800270c:	e8bd 81f0 	ldmia.w	sp!, {r4, r5, r6, r7, r8, pc}
 8002710:	080070d3 	.word	0x080070d3
 8002714:	08007121 	.word	0x08007121
 8002718:	08006fd1 	.word	0x08006fd1
 800271c:	0800714e 	.word	0x0800714e
 8002720:	08006fe6 	.word	0x08006fe6
 8002724:	20000390 	.word	0x20000390
 8002728:	20000396 	.word	0x20000396
 800272c:	20000394 	.word	0x20000394
 8002730:	20000392 	.word	0x20000392

08002734 <HDMIAdjustEQ>:
{
 8002734:	b510      	push	{r4, lr}
 8002736:	4604      	mov	r4, r0
    ucCurrentPort = hdmirxrd(REG_RX_051)&B_PORT_SEL;
 8002738:	2051      	movs	r0, #81	@ 0x51
 800273a:	f7fd ff4d 	bl	80005d8 <hdmirxrd>
    switch(ucEQPort->ucEQState)
 800273e:	7823      	ldrb	r3, [r4, #0]
 8002740:	2b50      	cmp	r3, #80	@ 0x50
 8002742:	d01a      	beq.n	800277a <HDMIAdjustEQ+0x46>
 8002744:	d809      	bhi.n	800275a <HDMIAdjustEQ+0x26>
 8002746:	2b3c      	cmp	r3, #60	@ 0x3c
 8002748:	d003      	beq.n	8002752 <HDMIAdjustEQ+0x1e>
 800274a:	2b46      	cmp	r3, #70	@ 0x46
 800274c:	d001      	beq.n	8002752 <HDMIAdjustEQ+0x1e>
 800274e:	2b1e      	cmp	r3, #30
 8002750:	d107      	bne.n	8002762 <HDMIAdjustEQ+0x2e>
            HDMIJudgeECCvalue(ucEQPort);
 8002752:	4620      	mov	r0, r4
 8002754:	f7ff fef2 	bl	800253c <HDMIJudgeECCvalue>
            break;
 8002758:	e003      	b.n	8002762 <HDMIAdjustEQ+0x2e>
    switch(ucEQPort->ucEQState)
 800275a:	2b51      	cmp	r3, #81	@ 0x51
 800275c:	d013      	beq.n	8002786 <HDMIAdjustEQ+0x52>
 800275e:	2b9c      	cmp	r3, #156	@ 0x9c
 8002760:	d011      	beq.n	8002786 <HDMIAdjustEQ+0x52>
    if(ucEQPort->ucEQState != 0xFF)
 8002762:	7823      	ldrb	r3, [r4, #0]
 8002764:	2bff      	cmp	r3, #255	@ 0xff
 8002766:	d021      	beq.n	80027ac <HDMIAdjustEQ+0x78>
        if(ucEQPort->ucEQState < EQSTATE_WAIT)            //20120410
 8002768:	2b13      	cmp	r3, #19
 800276a:	d819      	bhi.n	80027a0 <HDMIAdjustEQ+0x6c>
            HDMICheckSCDTon(ucEQPort);
 800276c:	4620      	mov	r0, r4
 800276e:	f7ff ff07 	bl	8002580 <HDMICheckSCDTon>
        ucEQPort->ucEQState++;
 8002772:	7823      	ldrb	r3, [r4, #0]
 8002774:	3301      	adds	r3, #1
 8002776:	7023      	strb	r3, [r4, #0]
}
 8002778:	bd10      	pop	{r4, pc}
            HDMIJudgeECCvalue(ucEQPort);
 800277a:	4620      	mov	r0, r4
 800277c:	f7ff fede 	bl	800253c <HDMIJudgeECCvalue>
             ucEQPort->ucEQState=EQSTATE_END;
 8002780:	239b      	movs	r3, #155	@ 0x9b
 8002782:	7023      	strb	r3, [r4, #0]
            break;
 8002784:	e7ed      	b.n	8002762 <HDMIAdjustEQ+0x2e>
            ucEQPort->f_manualEQadjust = FALSE;
 8002786:	2300      	movs	r3, #0
 8002788:	71a3      	strb	r3, [r4, #6]
            ucEQPort->ucEQState    = 0xFF;
 800278a:	23ff      	movs	r3, #255	@ 0xff
 800278c:	7023      	strb	r3, [r4, #0]
            if(ucEQPort->ucPortID==ucCurrentPort)
 800278e:	7963      	ldrb	r3, [r4, #5]
 8002790:	f000 0001 	and.w	r0, r0, #1
 8002794:	4283      	cmp	r3, r0
    it6802data->m_VideoCountingTimer = 1;
 8002796:	bf02      	ittt	eq
 8002798:	2201      	moveq	r2, #1
 800279a:	4b06      	ldreq	r3, [pc, #24]	@ (80027b4 <HDMIAdjustEQ+0x80>)
 800279c:	81da      	strheq	r2, [r3, #14]
}
 800279e:	e7e0      	b.n	8002762 <HDMIAdjustEQ+0x2e>
        else if(ucEQPort->ucEQState < EQSTATE_HIGH)
 80027a0:	2b4f      	cmp	r3, #79	@ 0x4f
 80027a2:	d8e6      	bhi.n	8002772 <HDMIAdjustEQ+0x3e>
            HDMIPollingErrorCount(ucEQPort);
 80027a4:	4620      	mov	r0, r4
 80027a6:	f7ff fd6b 	bl	8002280 <HDMIPollingErrorCount>
 80027aa:	e7e2      	b.n	8002772 <HDMIAdjustEQ+0x3e>
        ucEQPort->f_manualEQadjust = FALSE;
 80027ac:	2300      	movs	r3, #0
 80027ae:	71a3      	strb	r3, [r4, #6]
}
 80027b0:	e7e2      	b.n	8002778 <HDMIAdjustEQ+0x44>
 80027b2:	bf00      	nop
 80027b4:	200003a8 	.word	0x200003a8

080027b8 <HDMIStartEQDetect>:
{
 80027b8:	b510      	push	{r4, lr}
if( ucEQPort->ucPortID == F_PORT_SEL_0)
 80027ba:	7943      	ldrb	r3, [r0, #5]
{
 80027bc:	4604      	mov	r4, r0
if( ucEQPort->ucPortID == F_PORT_SEL_0)
 80027be:	b1cb      	cbz	r3, 80027f4 <HDMIStartEQDetect+0x3c>
    if(ucEQPort->ucEQState==0xFF)
 80027c0:	7823      	ldrb	r3, [r4, #0]
 80027c2:	2bff      	cmp	r3, #255	@ 0xff
 80027c4:	d11b      	bne.n	80027fe <HDMIStartEQDetect+0x46>
        ucPortSel = hdmirxrd(REG_RX_051) & B_PORT_SEL;
 80027c6:	2051      	movs	r0, #81	@ 0x51
 80027c8:	f7fd ff06 	bl	80005d8 <hdmirxrd>
        if(ucPortSel == ucEQPort->ucPortID)
 80027cc:	7963      	ldrb	r3, [r4, #5]
 80027ce:	f000 0001 	and.w	r0, r0, #1
 80027d2:	4283      	cmp	r3, r0
        HDMISwitchEQstate(ucEQPort,0);    // for SCDT off state
 80027d4:	bf0c      	ite	eq
 80027d6:	2100      	moveq	r1, #0
        HDMISwitchEQstate(ucEQPort,EQSTATE_WAIT+1);    //for SCDT on state
 80027d8:	2115      	movne	r1, #21
 80027da:	4620      	mov	r0, r4
 80027dc:	f7ff fd28 	bl	8002230 <HDMISwitchEQstate>
        ucEQPort->f_manualEQadjust=TRUE;
 80027e0:	2301      	movs	r3, #1
        HDMIAdjustEQ(ucEQPort);
 80027e2:	4620      	mov	r0, r4
        ucEQPort->f_manualEQadjust=TRUE;
 80027e4:	71a3      	strb	r3, [r4, #6]
        HDMIAdjustEQ(ucEQPort);
 80027e6:	f7ff ffa5 	bl	8002734 <HDMIAdjustEQ>
        ucEQPort->ErrorCount[0] = MAXECCWAIT;
 80027ea:	230a      	movs	r3, #10
 80027ec:	71e3      	strb	r3, [r4, #7]
        ucEQPort->ErrorCount[1] = MAXECCWAIT;
 80027ee:	7223      	strb	r3, [r4, #8]
        ucEQPort->ErrorCount[2] = MAXECCWAIT;
 80027f0:	7263      	strb	r3, [r4, #9]
 80027f2:	e004      	b.n	80027fe <HDMIStartEQDetect+0x46>
    if(hdmirxrd(REG_RX_P0_SYS_STATUS) & (B_P0_MxL_MODE))
 80027f4:	200a      	movs	r0, #10
 80027f6:	f7fd feef 	bl	80005d8 <hdmirxrd>
 80027fa:	0643      	lsls	r3, r0, #25
 80027fc:	d5e0      	bpl.n	80027c0 <HDMIStartEQDetect+0x8>
}
 80027fe:	bd10      	pop	{r4, pc}

08002800 <AmpValidCheck>:
    if(ucPortSel == F_PORT_SEL_1)
 8002800:	2801      	cmp	r0, #1
{
 8002802:	b538      	push	{r3, r4, r5, lr}
 8002804:	4c61      	ldr	r4, [pc, #388]	@ (800298c <AmpValidCheck+0x18c>)
    if(ucPortSel == F_PORT_SEL_1)
 8002806:	d156      	bne.n	80028b6 <AmpValidCheck+0xb6>
        chgbank(1);
 8002808:	f7fe f85a 	bl	80008c0 <chgbank>
        uc = hdmirxrd(REG_RX_1D8);
 800280c:	20d8      	movs	r0, #216	@ 0xd8
 800280e:	f7fd fee3 	bl	80005d8 <hdmirxrd>
 8002812:	4605      	mov	r5, r0
        EQ_PORT1_PRINTF((" ############# AmpValidCheck( ) port 1 ###############\n"));
 8002814:	485e      	ldr	r0, [pc, #376]	@ (8002990 <AmpValidCheck+0x190>)
 8002816:	f002 fe93 	bl	8005540 <puts>
        EQ_PORT1_PRINTF((" ############# Reg1D8 = %X ###############\n",(int)uc));
 800281a:	4629      	mov	r1, r5
 800281c:	485d      	ldr	r0, [pc, #372]	@ (8002994 <AmpValidCheck+0x194>)
 800281e:	f002 fe27 	bl	8005470 <iprintf>
        EQ_PORT1_PRINTF((" ############# Reg1DC = %X ###############\n",(int)hdmirxrd(REG_RX_1DC)));
 8002822:	20dc      	movs	r0, #220	@ 0xdc
 8002824:	f7fd fed8 	bl	80005d8 <hdmirxrd>
 8002828:	4601      	mov	r1, r0
 800282a:	485b      	ldr	r0, [pc, #364]	@ (8002998 <AmpValidCheck+0x198>)
 800282c:	f002 fe20 	bl	8005470 <iprintf>
        if((uc&0x03)==0x03)
 8002830:	f005 0303 	and.w	r3, r5, #3
 8002834:	2b03      	cmp	r3, #3
 8002836:	d10c      	bne.n	8002852 <AmpValidCheck+0x52>
            ucChannelB[1] = hdmirxrd(REG_RX_1DD);
 8002838:	20dd      	movs	r0, #221	@ 0xdd
 800283a:	f7fd fecd 	bl	80005d8 <hdmirxrd>
 800283e:	4b57      	ldr	r3, [pc, #348]	@ (800299c <AmpValidCheck+0x19c>)
 8002840:	4601      	mov	r1, r0
 8002842:	7058      	strb	r0, [r3, #1]
            ucPortAMPValid[1]|=0x03;
 8002844:	7863      	ldrb	r3, [r4, #1]
            EQ_PORT1_PRINTF((" ############# B AMP VALID port 1 Reg1DD = 0x%X  ###############\n",(int)ucChannelB[1]));
 8002846:	4856      	ldr	r0, [pc, #344]	@ (80029a0 <AmpValidCheck+0x1a0>)
            ucPortAMPValid[1]|=0x03;
 8002848:	f043 0303 	orr.w	r3, r3, #3
 800284c:	7063      	strb	r3, [r4, #1]
            EQ_PORT1_PRINTF((" ############# B AMP VALID port 1 Reg1DD = 0x%X  ###############\n",(int)ucChannelB[1]));
 800284e:	f002 fe0f 	bl	8005470 <iprintf>
        if((uc&0x0C)==0x0C)
 8002852:	f005 030c 	and.w	r3, r5, #12
 8002856:	2b0c      	cmp	r3, #12
 8002858:	d10c      	bne.n	8002874 <AmpValidCheck+0x74>
            ucChannelG[1]= hdmirxrd(REG_RX_1DE);
 800285a:	20de      	movs	r0, #222	@ 0xde
 800285c:	f7fd febc 	bl	80005d8 <hdmirxrd>
 8002860:	4b50      	ldr	r3, [pc, #320]	@ (80029a4 <AmpValidCheck+0x1a4>)
 8002862:	4601      	mov	r1, r0
 8002864:	7058      	strb	r0, [r3, #1]
            ucPortAMPValid[1]|=0x0C;
 8002866:	7863      	ldrb	r3, [r4, #1]
            EQ_PORT1_PRINTF((" ############# G AMP VALID port 1 Reg1DD = 0x%X  ###############\n",(int)ucChannelG[1]));
 8002868:	484f      	ldr	r0, [pc, #316]	@ (80029a8 <AmpValidCheck+0x1a8>)
            ucPortAMPValid[1]|=0x0C;
 800286a:	f043 030c 	orr.w	r3, r3, #12
 800286e:	7063      	strb	r3, [r4, #1]
            EQ_PORT1_PRINTF((" ############# G AMP VALID port 1 Reg1DD = 0x%X  ###############\n",(int)ucChannelG[1]));
 8002870:	f002 fdfe 	bl	8005470 <iprintf>
        if((uc&0x30)==0x30)
 8002874:	f005 0530 	and.w	r5, r5, #48	@ 0x30
 8002878:	2d30      	cmp	r5, #48	@ 0x30
 800287a:	d10c      	bne.n	8002896 <AmpValidCheck+0x96>
            ucChannelR[1]= hdmirxrd(REG_RX_1DF);
 800287c:	20df      	movs	r0, #223	@ 0xdf
 800287e:	f7fd feab 	bl	80005d8 <hdmirxrd>
 8002882:	4b4a      	ldr	r3, [pc, #296]	@ (80029ac <AmpValidCheck+0x1ac>)
 8002884:	4601      	mov	r1, r0
 8002886:	7058      	strb	r0, [r3, #1]
            ucPortAMPValid[1]|=0x30;
 8002888:	7863      	ldrb	r3, [r4, #1]
            EQ_PORT1_PRINTF((" ############# R AMP VALID port 1 Reg1DD = 0x%X  ###############\n",(int)ucChannelR[1]));
 800288a:	4849      	ldr	r0, [pc, #292]	@ (80029b0 <AmpValidCheck+0x1b0>)
            ucPortAMPValid[1]|=0x30;
 800288c:	f043 0330 	orr.w	r3, r3, #48	@ 0x30
 8002890:	7063      	strb	r3, [r4, #1]
            EQ_PORT1_PRINTF((" ############# R AMP VALID port 1 Reg1DD = 0x%X  ###############\n",(int)ucChannelR[1]));
 8002892:	f002 fded 	bl	8005470 <iprintf>
        chgbank(0);
 8002896:	2000      	movs	r0, #0
 8002898:	f7fe f812 	bl	80008c0 <chgbank>
        if((ucPortAMPValid[1]&0x3F)==0x3F)
 800289c:	7863      	ldrb	r3, [r4, #1]
 800289e:	f003 033f 	and.w	r3, r3, #63	@ 0x3f
 80028a2:	2b3f      	cmp	r3, #63	@ 0x3f
 80028a4:	d171      	bne.n	800298a <AmpValidCheck+0x18a>
            OverWriteAmpValue2EQ(F_PORT_SEL_1);
 80028a6:	2001      	movs	r0, #1
 80028a8:	f7fe fa70 	bl	8000d8c <OverWriteAmpValue2EQ>
            HDMIStartEQDetect(&(it6802data->EQPort[F_PORT_SEL_1]));
 80028ac:	4841      	ldr	r0, [pc, #260]	@ (80029b4 <AmpValidCheck+0x1b4>)
}
 80028ae:	e8bd 4038 	ldmia.w	sp!, {r3, r4, r5, lr}
            HDMIStartEQDetect(&(it6802data->EQPort[F_PORT_SEL_0]));
 80028b2:	f7ff bf81 	b.w	80027b8 <HDMIStartEQDetect>
        chgbank(1);
 80028b6:	2001      	movs	r0, #1
 80028b8:	f7fe f802 	bl	80008c0 <chgbank>
        uc = hdmirxrd(REG_RX_1D0);
 80028bc:	20d0      	movs	r0, #208	@ 0xd0
 80028be:	f7fd fe8b 	bl	80005d8 <hdmirxrd>
        ucPortAMPValid[0] = 0;/*20221228*/
 80028c2:	2300      	movs	r3, #0
        uc = hdmirxrd(REG_RX_1D0);
 80028c4:	4605      	mov	r5, r0
        EQ_PORT0_PRINTF((" ############# AmpValidCheck( ) port 0 ###############\n"));
 80028c6:	483c      	ldr	r0, [pc, #240]	@ (80029b8 <AmpValidCheck+0x1b8>)
        ucPortAMPValid[0] = 0;/*20221228*/
 80028c8:	7023      	strb	r3, [r4, #0]
        EQ_PORT0_PRINTF((" ############# AmpValidCheck( ) port 0 ###############\n"));
 80028ca:	f002 fe39 	bl	8005540 <puts>
        EQ_PORT0_PRINTF((" ############# REG_RX_1D0 = %X ###############\n",(int) uc));
 80028ce:	4629      	mov	r1, r5
 80028d0:	483a      	ldr	r0, [pc, #232]	@ (80029bc <AmpValidCheck+0x1bc>)
 80028d2:	f002 fdcd 	bl	8005470 <iprintf>
        EQ_PORT0_PRINTF((" ############# Reg1D4 = %X ###############\n",(int) hdmirxrd(REG_RX_1D4)));
 80028d6:	20d4      	movs	r0, #212	@ 0xd4
 80028d8:	f7fd fe7e 	bl	80005d8 <hdmirxrd>
 80028dc:	4601      	mov	r1, r0
 80028de:	4838      	ldr	r0, [pc, #224]	@ (80029c0 <AmpValidCheck+0x1c0>)
 80028e0:	f002 fdc6 	bl	8005470 <iprintf>
        EQ_PORT0_PRINTF((" ############# ucPortAMPValid[0] = %X ###############\n",(int) ucPortAMPValid[0]));/*20221228*/
 80028e4:	7821      	ldrb	r1, [r4, #0]
 80028e6:	4837      	ldr	r0, [pc, #220]	@ (80029c4 <AmpValidCheck+0x1c4>)
 80028e8:	f002 fdc2 	bl	8005470 <iprintf>
        if((uc&0x03)==0x03)
 80028ec:	f005 0303 	and.w	r3, r5, #3
 80028f0:	2b03      	cmp	r3, #3
 80028f2:	d10c      	bne.n	800290e <AmpValidCheck+0x10e>
            ucChannelB[0] = hdmirxrd(REG_RX_1D5);
 80028f4:	20d5      	movs	r0, #213	@ 0xd5
 80028f6:	f7fd fe6f 	bl	80005d8 <hdmirxrd>
 80028fa:	4b28      	ldr	r3, [pc, #160]	@ (800299c <AmpValidCheck+0x19c>)
 80028fc:	4601      	mov	r1, r0
 80028fe:	7018      	strb	r0, [r3, #0]
            ucPortAMPValid[0]|=0x03;
 8002900:	7823      	ldrb	r3, [r4, #0]
            EQ_PORT0_PRINTF((" ############# B AMP VALID port 0 Reg1D5 = 0x%X  ###############\n",(int) ucChannelB[0]));
 8002902:	4831      	ldr	r0, [pc, #196]	@ (80029c8 <AmpValidCheck+0x1c8>)
            ucPortAMPValid[0]|=0x03;
 8002904:	f043 0303 	orr.w	r3, r3, #3
 8002908:	7023      	strb	r3, [r4, #0]
            EQ_PORT0_PRINTF((" ############# B AMP VALID port 0 Reg1D5 = 0x%X  ###############\n",(int) ucChannelB[0]));
 800290a:	f002 fdb1 	bl	8005470 <iprintf>
        if((uc&0x0C)==0x0C)
 800290e:	f005 030c 	and.w	r3, r5, #12
 8002912:	2b0c      	cmp	r3, #12
 8002914:	d10c      	bne.n	8002930 <AmpValidCheck+0x130>
            ucChannelG[0]= hdmirxrd(REG_RX_1D6);
 8002916:	20d6      	movs	r0, #214	@ 0xd6
 8002918:	f7fd fe5e 	bl	80005d8 <hdmirxrd>
 800291c:	4b21      	ldr	r3, [pc, #132]	@ (80029a4 <AmpValidCheck+0x1a4>)
 800291e:	4601      	mov	r1, r0
 8002920:	7018      	strb	r0, [r3, #0]
            ucPortAMPValid[0]|=0x0C;
 8002922:	7823      	ldrb	r3, [r4, #0]
            EQ_PORT0_PRINTF((" ############# G AMP VALID port 0 Reg1D6 = 0x%X  ###############\n",(int) ucChannelG[0]));
 8002924:	4829      	ldr	r0, [pc, #164]	@ (80029cc <AmpValidCheck+0x1cc>)
            ucPortAMPValid[0]|=0x0C;
 8002926:	f043 030c 	orr.w	r3, r3, #12
 800292a:	7023      	strb	r3, [r4, #0]
            EQ_PORT0_PRINTF((" ############# G AMP VALID port 0 Reg1D6 = 0x%X  ###############\n",(int) ucChannelG[0]));
 800292c:	f002 fda0 	bl	8005470 <iprintf>
        if((uc&0x30)==0x30)
 8002930:	f005 0530 	and.w	r5, r5, #48	@ 0x30
 8002934:	2d30      	cmp	r5, #48	@ 0x30
 8002936:	d10c      	bne.n	8002952 <AmpValidCheck+0x152>
            ucChannelR[0]= hdmirxrd(REG_RX_1D7);
 8002938:	20d7      	movs	r0, #215	@ 0xd7
 800293a:	f7fd fe4d 	bl	80005d8 <hdmirxrd>
 800293e:	4b1b      	ldr	r3, [pc, #108]	@ (80029ac <AmpValidCheck+0x1ac>)
 8002940:	4601      	mov	r1, r0
 8002942:	7018      	strb	r0, [r3, #0]
            ucPortAMPValid[0]|=0x30;
 8002944:	7823      	ldrb	r3, [r4, #0]
            EQ_PORT0_PRINTF((" ############# R AMP VALID port 0 Reg1D7 = 0x%X  ###############\n",(int) ucChannelR[0]));
 8002946:	4822      	ldr	r0, [pc, #136]	@ (80029d0 <AmpValidCheck+0x1d0>)
            ucPortAMPValid[0]|=0x30;
 8002948:	f043 0330 	orr.w	r3, r3, #48	@ 0x30
 800294c:	7023      	strb	r3, [r4, #0]
            EQ_PORT0_PRINTF((" ############# R AMP VALID port 0 Reg1D7 = 0x%X  ###############\n",(int) ucChannelR[0]));
 800294e:	f002 fd8f 	bl	8005470 <iprintf>
        chgbank(0);
 8002952:	2000      	movs	r0, #0
 8002954:	f7fd ffb4 	bl	80008c0 <chgbank>
    if(hdmirxrd(REG_RX_P0_SYS_STATUS) & (B_P0_MxL_MODE))
 8002958:	200a      	movs	r0, #10
 800295a:	f7fd fe3d 	bl	80005d8 <hdmirxrd>
 800295e:	f010 0540 	ands.w	r5, r0, #64	@ 0x40
        if((ucPortAMPValid[0]&0x03)==0x03)
 8002962:	7823      	ldrb	r3, [r4, #0]
    if(hdmirxrd(REG_RX_P0_SYS_STATUS) & (B_P0_MxL_MODE))
 8002964:	d008      	beq.n	8002978 <AmpValidCheck+0x178>
        if((ucPortAMPValid[0]&0x03)==0x03)
 8002966:	f003 0303 	and.w	r3, r3, #3
 800296a:	2b03      	cmp	r3, #3
 800296c:	d10d      	bne.n	800298a <AmpValidCheck+0x18a>
            OverWriteAmpValue2EQ(F_PORT_SEL_0);
 800296e:	2000      	movs	r0, #0
            OverWriteAmpValue2EQ(F_PORT_SEL_0);
 8002970:	f7fe fa0c 	bl	8000d8c <OverWriteAmpValue2EQ>
            HDMIStartEQDetect(&(it6802data->EQPort[F_PORT_SEL_0]));
 8002974:	4817      	ldr	r0, [pc, #92]	@ (80029d4 <AmpValidCheck+0x1d4>)
 8002976:	e79a      	b.n	80028ae <AmpValidCheck+0xae>
        if((ucPortAMPValid[0]&0x3F)==0x3F)
 8002978:	f003 033f 	and.w	r3, r3, #63	@ 0x3f
 800297c:	2b3f      	cmp	r3, #63	@ 0x3f
 800297e:	d104      	bne.n	800298a <AmpValidCheck+0x18a>
            EQ_PORT0_PRINTF((" ############# ucPortAMPValid[0]&0x3F)==0x3F  ############# \n"));/*20221228*/
 8002980:	4815      	ldr	r0, [pc, #84]	@ (80029d8 <AmpValidCheck+0x1d8>)
 8002982:	f002 fddd 	bl	8005540 <puts>
            OverWriteAmpValue2EQ(F_PORT_SEL_0);
 8002986:	4628      	mov	r0, r5
 8002988:	e7f2      	b.n	8002970 <AmpValidCheck+0x170>
}
 800298a:	bd38      	pop	{r3, r4, r5, pc}
 800298c:	20000398 	.word	0x20000398
 8002990:	08007187 	.word	0x08007187
 8002994:	080071be 	.word	0x080071be
 8002998:	080071ea 	.word	0x080071ea
 800299c:	20000396 	.word	0x20000396
 80029a0:	08007216 	.word	0x08007216
 80029a4:	20000394 	.word	0x20000394
 80029a8:	08007258 	.word	0x08007258
 80029ac:	20000392 	.word	0x20000392
 80029b0:	0800729a 	.word	0x0800729a
 80029b4:	200003f1 	.word	0x200003f1
 80029b8:	080072dc 	.word	0x080072dc
 80029bc:	08007313 	.word	0x08007313
 80029c0:	08007343 	.word	0x08007343
 80029c4:	0800736f 	.word	0x0800736f
 80029c8:	080073a6 	.word	0x080073a6
 80029cc:	080073e8 	.word	0x080073e8
 80029d0:	0800742a 	.word	0x0800742a
 80029d4:	200003e7 	.word	0x200003e7
 80029d8:	0800746c 	.word	0x0800746c

080029dc <hdmirx_INT_EQ_FAIL>:
    if(ucPortSel>F_PORT_SEL_1)
 80029dc:	2901      	cmp	r1, #1
{
 80029de:	b570      	push	{r4, r5, r6, lr}
 80029e0:	4604      	mov	r4, r0
 80029e2:	460d      	mov	r5, r1
    if(ucPortSel>F_PORT_SEL_1)
 80029e4:	d823      	bhi.n	8002a2e <hdmirx_INT_EQ_FAIL+0x52>
    if(it6802->EQPort[ucPortSel].f_manualEQadjust==FALSE)    // ignore EQ fail interrupt when manual EQ adjust !!!
 80029e6:	260a      	movs	r6, #10
 80029e8:	fb06 0301 	mla	r3, r6, r1, r0
 80029ec:	f893 3045 	ldrb.w	r3, [r3, #69]	@ 0x45
 80029f0:	b9eb      	cbnz	r3, 8002a2e <hdmirx_INT_EQ_FAIL+0x52>
        if(CheckPlg5VPwr(ucPortSel))
 80029f2:	4608      	mov	r0, r1
 80029f4:	f7fe fb99 	bl	800112a <CheckPlg5VPwr>
 80029f8:	b1c8      	cbz	r0, 8002a2e <hdmirx_INT_EQ_FAIL+0x52>
                if((it6802->HDMIIntEvent & (B_PORT0_TMDSEvent)))
 80029fa:	f894 305c 	ldrb.w	r3, [r4, #92]	@ 0x5c
            if( ucPortSel    == 0)
 80029fe:	2d00      	cmp	r5, #0
 8002a00:	d145      	bne.n	8002a8e <hdmirx_INT_EQ_FAIL+0xb2>
                if((it6802->HDMIIntEvent & (B_PORT0_TMDSEvent)))
 8002a02:	079b      	lsls	r3, r3, #30
 8002a04:	d51e      	bpl.n	8002a44 <hdmirx_INT_EQ_FAIL+0x68>
                    IT6802_DEBUG_INT_PRINTF(("#### hdmirx_INT_EQ_FAIL not yet !!! ####\n"));
 8002a06:	4857      	ldr	r0, [pc, #348]	@ (8002b64 <hdmirx_INT_EQ_FAIL+0x188>)
 8002a08:	f002 fd9a 	bl	8005540 <puts>
                    if((it6802->HDMIIntEvent & (B_PORT0_Waiting))==0)
 8002a0c:	f894 305c 	ldrb.w	r3, [r4, #92]	@ 0x5c
 8002a10:	f013 0101 	ands.w	r1, r3, #1
 8002a14:	d10c      	bne.n	8002a30 <hdmirx_INT_EQ_FAIL+0x54>
                        hdmirxwr(REG_RX_022, 0x00);    // power down auto EQ
 8002a16:	2022      	movs	r0, #34	@ 0x22
 8002a18:	f7fd fdf0 	bl	80005fc <hdmirxwr>
                        it6802->HDMIIntEvent |= (B_PORT0_TMDSEvent);
 8002a1c:	f894 305c 	ldrb.w	r3, [r4, #92]	@ 0x5c
 8002a20:	f043 0303 	orr.w	r3, r3, #3
 8002a24:	f884 305c 	strb.w	r3, [r4, #92]	@ 0x5c
                        it6802->HDMIWaitNo[0]=MAX_TMDS_WAITNO;
 8002a28:	2303      	movs	r3, #3
                        it6802->HDMIWaitNo[0] += MAX_HDCP_WAITNO;
 8002a2a:	f884 305d 	strb.w	r3, [r4, #93]	@ 0x5d
}
 8002a2e:	bd70      	pop	{r4, r5, r6, pc}
                    else if((it6802->HDMIIntEvent & (B_PORT0_TMDSEvent)))
 8002a30:	079d      	lsls	r5, r3, #30
 8002a32:	d5fc      	bpl.n	8002a2e <hdmirx_INT_EQ_FAIL+0x52>
                        it6802->HDMIIntEvent |= (B_PORT0_Waiting);
 8002a34:	f043 0301 	orr.w	r3, r3, #1
 8002a38:	f884 305c 	strb.w	r3, [r4, #92]	@ 0x5c
                        it6802->HDMIWaitNo[0] += MAX_HDCP_WAITNO;
 8002a3c:	f894 305d 	ldrb.w	r3, [r4, #93]	@ 0x5d
 8002a40:	3301      	adds	r3, #1
 8002a42:	e7f2      	b.n	8002a2a <hdmirx_INT_EQ_FAIL+0x4e>
                if(hdmirxrd(REG_RX_P0_SYS_STATUS) & (B_P0_MxL_MODE))
 8002a44:	4630      	mov	r0, r6
 8002a46:	f7fd fdc7 	bl	80005d8 <hdmirxrd>
 8002a4a:	4d47      	ldr	r5, [pc, #284]	@ (8002b68 <hdmirx_INT_EQ_FAIL+0x18c>)
 8002a4c:	f010 0f40 	tst.w	r0, #64	@ 0x40
                    if((ucPortAMPValid[0]&0x03)!=0x03)
 8002a50:	782b      	ldrb	r3, [r5, #0]
                if(hdmirxrd(REG_RX_P0_SYS_STATUS) & (B_P0_MxL_MODE))
 8002a52:	d018      	beq.n	8002a86 <hdmirx_INT_EQ_FAIL+0xaa>
                    if((ucPortAMPValid[0]&0x03)!=0x03)
 8002a54:	f003 0303 	and.w	r3, r3, #3
 8002a58:	2b03      	cmp	r3, #3
 8002a5a:	d002      	beq.n	8002a62 <hdmirx_INT_EQ_FAIL+0x86>
                        AmpValidCheck(ucPortSel);
 8002a5c:	2000      	movs	r0, #0
 8002a5e:	f7ff fecf 	bl	8002800 <AmpValidCheck>
                    if(it6802->ToggleCount[ucPortSel]>=MAX_TOGGLE_FAIL_COUNT)
 8002a62:	f894 2053 	ldrb.w	r2, [r4, #83]	@ 0x53
 8002a66:	2a0f      	cmp	r2, #15
 8002a68:	d94f      	bls.n	8002b0a <hdmirx_INT_EQ_FAIL+0x12e>
                        IT6802_DEBUG_INT_PRINTF(("#### hdmirx_INT_EQ0_FAIL has toggled, and manual EQ!!! it6802->ToggleCount[%bd] = %bd ####\n",ucPortSel,it6802->ToggleCount[ucPortSel]));
 8002a6a:	2100      	movs	r1, #0
 8002a6c:	483f      	ldr	r0, [pc, #252]	@ (8002b6c <hdmirx_INT_EQ_FAIL+0x190>)
 8002a6e:	f002 fcff 	bl	8005470 <iprintf>
                        hdmirxwr(REG_RX_022, 0x00);
 8002a72:	2100      	movs	r1, #0
 8002a74:	2022      	movs	r0, #34	@ 0x22
 8002a76:	f7fd fdc1 	bl	80005fc <hdmirxwr>
                        HDMIStartEQDetect(&(it6802->EQPort[F_PORT_SEL_0]));
 8002a7a:	f104 003f 	add.w	r0, r4, #63	@ 0x3f
}
 8002a7e:	e8bd 4070 	ldmia.w	sp!, {r4, r5, r6, lr}
                        HDMIStartEQDetect(&(it6802->EQPort[F_PORT_SEL_0]));
 8002a82:	f7ff be99 	b.w	80027b8 <HDMIStartEQDetect>
                    if((ucPortAMPValid[ucPortSel]&0x3F)!=0x3F)
 8002a86:	f003 033f 	and.w	r3, r3, #63	@ 0x3f
 8002a8a:	2b3f      	cmp	r3, #63	@ 0x3f
 8002a8c:	e7e5      	b.n	8002a5a <hdmirx_INT_EQ_FAIL+0x7e>
                if((it6802->HDMIIntEvent & (B_PORT1_TMDSEvent)))
 8002a8e:	0698      	lsls	r0, r3, #26
 8002a90:	d51e      	bpl.n	8002ad0 <hdmirx_INT_EQ_FAIL+0xf4>
                    IT6802_DEBUG_INT_PRINTF(("#### hdmirx_INT_EQ_FAIL not yet !!! ####\n"));
 8002a92:	4834      	ldr	r0, [pc, #208]	@ (8002b64 <hdmirx_INT_EQ_FAIL+0x188>)
 8002a94:	f002 fd54 	bl	8005540 <puts>
                    if((it6802->HDMIIntEvent & (B_PORT1_Waiting))==0)
 8002a98:	f894 305c 	ldrb.w	r3, [r4, #92]	@ 0x5c
 8002a9c:	f013 0110 	ands.w	r1, r3, #16
 8002aa0:	d10c      	bne.n	8002abc <hdmirx_INT_EQ_FAIL+0xe0>
                        hdmirxwr(REG_RX_03A, 0x00);    // power down auto EQ
 8002aa2:	203a      	movs	r0, #58	@ 0x3a
 8002aa4:	f7fd fdaa 	bl	80005fc <hdmirxwr>
                        it6802->HDMIIntEvent |= (B_PORT1_TMDSEvent);
 8002aa8:	f894 305c 	ldrb.w	r3, [r4, #92]	@ 0x5c
 8002aac:	f043 0330 	orr.w	r3, r3, #48	@ 0x30
 8002ab0:	f884 305c 	strb.w	r3, [r4, #92]	@ 0x5c
                        it6802->HDMIWaitNo[1]=MAX_TMDS_WAITNO;
 8002ab4:	2303      	movs	r3, #3
                        it6802->HDMIWaitNo[1] += MAX_HDCP_WAITNO;
 8002ab6:	f884 305e 	strb.w	r3, [r4, #94]	@ 0x5e
 8002aba:	e7b8      	b.n	8002a2e <hdmirx_INT_EQ_FAIL+0x52>
                    else if((it6802->HDMIIntEvent & (B_PORT1_TMDSEvent)))
 8002abc:	0699      	lsls	r1, r3, #26
 8002abe:	d5b6      	bpl.n	8002a2e <hdmirx_INT_EQ_FAIL+0x52>
                        it6802->HDMIIntEvent |= (B_PORT1_Waiting);
 8002ac0:	f043 0310 	orr.w	r3, r3, #16
 8002ac4:	f884 305c 	strb.w	r3, [r4, #92]	@ 0x5c
                        it6802->HDMIWaitNo[1] += MAX_HDCP_WAITNO;
 8002ac8:	f894 305e 	ldrb.w	r3, [r4, #94]	@ 0x5e
 8002acc:	3301      	adds	r3, #1
 8002ace:	e7f2      	b.n	8002ab6 <hdmirx_INT_EQ_FAIL+0xda>
                if((ucPortAMPValid[ucPortSel]&0x3F)!=0x3F)
 8002ad0:	4d25      	ldr	r5, [pc, #148]	@ (8002b68 <hdmirx_INT_EQ_FAIL+0x18c>)
 8002ad2:	786b      	ldrb	r3, [r5, #1]
 8002ad4:	f003 033f 	and.w	r3, r3, #63	@ 0x3f
 8002ad8:	2b3f      	cmp	r3, #63	@ 0x3f
 8002ada:	d002      	beq.n	8002ae2 <hdmirx_INT_EQ_FAIL+0x106>
                    AmpValidCheck(ucPortSel);
 8002adc:	2001      	movs	r0, #1
 8002ade:	f7ff fe8f 	bl	8002800 <AmpValidCheck>
                    if(it6802->ToggleCount[ucPortSel]>=MAX_TOGGLE_FAIL_COUNT)
 8002ae2:	f894 2054 	ldrb.w	r2, [r4, #84]	@ 0x54
 8002ae6:	2a0f      	cmp	r2, #15
 8002ae8:	d92d      	bls.n	8002b46 <hdmirx_INT_EQ_FAIL+0x16a>
                        IT6802_DEBUG_INT_PRINTF(("#### hdmirx_INT_EQ1_FAIL has toggled, and manual EQ!!! it6802->ToggleCount[%bd] = %bd ####\n",ucPortSel,it6802->ToggleCount[ucPortSel]));
 8002aea:	2101      	movs	r1, #1
 8002aec:	4820      	ldr	r0, [pc, #128]	@ (8002b70 <hdmirx_INT_EQ_FAIL+0x194>)
 8002aee:	f002 fcbf 	bl	8005470 <iprintf>
                        hdmirxwr(REG_RX_03A, 0x00);
 8002af2:	2100      	movs	r1, #0
 8002af4:	203a      	movs	r0, #58	@ 0x3a
 8002af6:	f7fd fd81 	bl	80005fc <hdmirxwr>
                        HDMIStartEQDetect(&(it6802->EQPort[F_PORT_SEL_1]));
 8002afa:	f104 0049 	add.w	r0, r4, #73	@ 0x49
 8002afe:	f7ff fe5b 	bl	80027b8 <HDMIStartEQDetect>
                    IT6802_DEBUG_INT_PRINTF(("it6802->ToggleCount[%bd] = %bd\n",ucPortSel,it6802->ToggleCount[ucPortSel]));
 8002b02:	2101      	movs	r1, #1
 8002b04:	f894 2054 	ldrb.w	r2, [r4, #84]	@ 0x54
 8002b08:	e014      	b.n	8002b34 <hdmirx_INT_EQ_FAIL+0x158>
                        if(hdmirxrd(REG_RX_P0_SYS_STATUS) & (B_P0_MxL_MODE))
 8002b0a:	200a      	movs	r0, #10
 8002b0c:	f7fd fd64 	bl	80005d8 <hdmirxrd>
 8002b10:	0642      	lsls	r2, r0, #25
                            if((ucPortAMPValid[0]&0x03)!=0x03)
 8002b12:	782b      	ldrb	r3, [r5, #0]
                        if(hdmirxrd(REG_RX_P0_SYS_STATUS) & (B_P0_MxL_MODE))
 8002b14:	d513      	bpl.n	8002b3e <hdmirx_INT_EQ_FAIL+0x162>
                            if((ucPortAMPValid[0]&0x03)!=0x03)
 8002b16:	f003 0303 	and.w	r3, r3, #3
 8002b1a:	2b03      	cmp	r3, #3
 8002b1c:	d007      	beq.n	8002b2e <hdmirx_INT_EQ_FAIL+0x152>
                                TogglePolarity (ucPortSel);
 8002b1e:	2000      	movs	r0, #0
 8002b20:	f7fd ff4e 	bl	80009c0 <TogglePolarity>
                                it6802->ToggleCount[ucPortSel]++;
 8002b24:	f894 3053 	ldrb.w	r3, [r4, #83]	@ 0x53
 8002b28:	3301      	adds	r3, #1
 8002b2a:	f884 3053 	strb.w	r3, [r4, #83]	@ 0x53
                        IT6802_DEBUG_INT_PRINTF(("it6802->ToggleCount[%bd] = %bd\n",ucPortSel,it6802->ToggleCount[ucPortSel]));
 8002b2e:	2100      	movs	r1, #0
 8002b30:	f894 2053 	ldrb.w	r2, [r4, #83]	@ 0x53
                    IT6802_DEBUG_INT_PRINTF(("it6802->ToggleCount[%bd] = %bd\n",ucPortSel,it6802->ToggleCount[ucPortSel]));
 8002b34:	480f      	ldr	r0, [pc, #60]	@ (8002b74 <hdmirx_INT_EQ_FAIL+0x198>)
}
 8002b36:	e8bd 4070 	ldmia.w	sp!, {r4, r5, r6, lr}
                    IT6802_DEBUG_INT_PRINTF(("it6802->ToggleCount[%bd] = %bd\n",ucPortSel,it6802->ToggleCount[ucPortSel]));
 8002b3a:	f002 bc99 	b.w	8005470 <iprintf>
                            if((ucPortAMPValid[ucPortSel]&0x3F)!=0x3F)
 8002b3e:	f003 033f 	and.w	r3, r3, #63	@ 0x3f
 8002b42:	2b3f      	cmp	r3, #63	@ 0x3f
 8002b44:	e7ea      	b.n	8002b1c <hdmirx_INT_EQ_FAIL+0x140>
                        if((ucPortAMPValid[ucPortSel]&0x3F)!=0x3F)
 8002b46:	786b      	ldrb	r3, [r5, #1]
 8002b48:	f003 033f 	and.w	r3, r3, #63	@ 0x3f
 8002b4c:	2b3f      	cmp	r3, #63	@ 0x3f
 8002b4e:	d0d8      	beq.n	8002b02 <hdmirx_INT_EQ_FAIL+0x126>
                            TogglePolarity (ucPortSel);
 8002b50:	2001      	movs	r0, #1
 8002b52:	f7fd ff35 	bl	80009c0 <TogglePolarity>
                            it6802->ToggleCount[ucPortSel]++;
 8002b56:	f894 3054 	ldrb.w	r3, [r4, #84]	@ 0x54
 8002b5a:	3301      	adds	r3, #1
 8002b5c:	f884 3054 	strb.w	r3, [r4, #84]	@ 0x54
 8002b60:	e7cf      	b.n	8002b02 <hdmirx_INT_EQ_FAIL+0x126>
 8002b62:	bf00      	nop
 8002b64:	080074a9 	.word	0x080074a9
 8002b68:	20000398 	.word	0x20000398
 8002b6c:	080074d2 	.word	0x080074d2
 8002b70:	0800754e 	.word	0x0800754e
 8002b74:	0800752e 	.word	0x0800752e

08002b78 <IT6802HDMIEventManager>:
{
 8002b78:	b538      	push	{r3, r4, r5, lr}
    if(it6802->HDMIIntEvent !=0)
 8002b7a:	f890 305c 	ldrb.w	r3, [r0, #92]	@ 0x5c
{
 8002b7e:	4604      	mov	r4, r0
    if(it6802->HDMIIntEvent !=0)
 8002b80:	2b00      	cmp	r3, #0
 8002b82:	d041      	beq.n	8002c08 <IT6802HDMIEventManager+0x90>
            if((it6802->HDMIIntEvent & B_PORT0_Waiting) == B_PORT0_Waiting)
 8002b84:	f013 0501 	ands.w	r5, r3, #1
 8002b88:	d016      	beq.n	8002bb8 <IT6802HDMIEventManager+0x40>
                if(it6802->HDMIWaitNo[0] == 0)
 8002b8a:	f890 205d 	ldrb.w	r2, [r0, #93]	@ 0x5d
 8002b8e:	b922      	cbnz	r2, 8002b9a <IT6802HDMIEventManager+0x22>
                    it6802->HDMIIntEvent &= ~(B_PORT0_Waiting);
 8002b90:	f023 0301 	bic.w	r3, r3, #1
                        it6802->HDMIIntEvent &= ~(B_PORT0_TimingChgEvent);    // finish MSC
 8002b94:	f884 305c 	strb.w	r3, [r4, #92]	@ 0x5c
 8002b98:	e002      	b.n	8002ba0 <IT6802HDMIEventManager+0x28>
                    it6802->HDMIWaitNo[0]--;
 8002b9a:	3a01      	subs	r2, #1
 8002b9c:	f880 205d 	strb.w	r2, [r0, #93]	@ 0x5d
            if((it6802->HDMIIntEvent & B_PORT1_Waiting) == B_PORT1_Waiting)
 8002ba0:	f894 305c 	ldrb.w	r3, [r4, #92]	@ 0x5c
 8002ba4:	06d9      	lsls	r1, r3, #27
 8002ba6:	d530      	bpl.n	8002c0a <IT6802HDMIEventManager+0x92>
                if(it6802->HDMIWaitNo[1] == 0)
 8002ba8:	f894 205e 	ldrb.w	r2, [r4, #94]	@ 0x5e
 8002bac:	bb4a      	cbnz	r2, 8002c02 <IT6802HDMIEventManager+0x8a>
                    it6802->HDMIIntEvent &= ~(B_PORT1_Waiting);
 8002bae:	f023 0310 	bic.w	r3, r3, #16
                        it6802->HDMIIntEvent &= ~(B_PORT1_TimingChgEvent);    // finish MSC
 8002bb2:	f884 305c 	strb.w	r3, [r4, #92]	@ 0x5c
}
 8002bb6:	e027      	b.n	8002c08 <IT6802HDMIEventManager+0x90>
                 if((it6802->HDMIIntEvent & B_PORT0_TMDSEvent) == B_PORT0_TMDSEvent)
 8002bb8:	f013 0002 	ands.w	r0, r3, #2
 8002bbc:	d00f      	beq.n	8002bde <IT6802HDMIEventManager+0x66>
                    if(CLKCheck(F_PORT_SEL_0))
 8002bbe:	4628      	mov	r0, r5
 8002bc0:	f7fd febe 	bl	8000940 <CLKCheck>
 8002bc4:	2800      	cmp	r0, #0
 8002bc6:	d0eb      	beq.n	8002ba0 <IT6802HDMIEventManager+0x28>
                             IT6802_DEBUG_INT_PRINTF(("TMDSEvent &&&&& Port 0 Rx CKOn Detect &&&&&\n"));
 8002bc8:	4822      	ldr	r0, [pc, #136]	@ (8002c54 <IT6802HDMIEventManager+0xdc>)
 8002bca:	f002 fcb9 	bl	8005540 <puts>
                        TMDSCheck(F_PORT_SEL_0);
 8002bce:	4628      	mov	r0, r5
 8002bd0:	f7fd ff82 	bl	8000ad8 <TMDSCheck>
                        it6802->HDMIIntEvent &= ~(B_PORT0_TMDSEvent);    // finish MSC
 8002bd4:	f894 305c 	ldrb.w	r3, [r4, #92]	@ 0x5c
 8002bd8:	f023 0302 	bic.w	r3, r3, #2
 8002bdc:	e7da      	b.n	8002b94 <IT6802HDMIEventManager+0x1c>
                else if((it6802->HDMIIntEvent & B_PORT0_TimingChgEvent) == B_PORT0_TimingChgEvent)
 8002bde:	075d      	lsls	r5, r3, #29
 8002be0:	d5de      	bpl.n	8002ba0 <IT6802HDMIEventManager+0x28>
                    if(CLKCheck(F_PORT_SEL_0))
 8002be2:	f7fd fead 	bl	8000940 <CLKCheck>
 8002be6:	2800      	cmp	r0, #0
 8002be8:	d0da      	beq.n	8002ba0 <IT6802HDMIEventManager+0x28>
                             IT6802_DEBUG_INT_PRINTF(("TimingChgEvent &&&&& Port 0 Rx CKOn Detect &&&&&\n"));
 8002bea:	481b      	ldr	r0, [pc, #108]	@ (8002c58 <IT6802HDMIEventManager+0xe0>)
 8002bec:	f002 fca8 	bl	8005540 <puts>
                        HDMIStartEQDetect(&(it6802->EQPort[F_PORT_SEL_0]));
 8002bf0:	f104 003f 	add.w	r0, r4, #63	@ 0x3f
 8002bf4:	f7ff fde0 	bl	80027b8 <HDMIStartEQDetect>
                        it6802->HDMIIntEvent &= ~(B_PORT0_TimingChgEvent);    // finish MSC
 8002bf8:	f894 305c 	ldrb.w	r3, [r4, #92]	@ 0x5c
 8002bfc:	f023 0304 	bic.w	r3, r3, #4
 8002c00:	e7c8      	b.n	8002b94 <IT6802HDMIEventManager+0x1c>
                    it6802->HDMIWaitNo[1]--;
 8002c02:	3a01      	subs	r2, #1
 8002c04:	f884 205e 	strb.w	r2, [r4, #94]	@ 0x5e
}
 8002c08:	bd38      	pop	{r3, r4, r5, pc}
                 if((it6802->HDMIIntEvent & B_PORT1_TMDSEvent) == B_PORT1_TMDSEvent)
 8002c0a:	069a      	lsls	r2, r3, #26
 8002c0c:	d50f      	bpl.n	8002c2e <IT6802HDMIEventManager+0xb6>
                    if(CLKCheck(F_PORT_SEL_1))
 8002c0e:	2001      	movs	r0, #1
 8002c10:	f7fd fe96 	bl	8000940 <CLKCheck>
 8002c14:	2800      	cmp	r0, #0
 8002c16:	d0f7      	beq.n	8002c08 <IT6802HDMIEventManager+0x90>
                             IT6802_DEBUG_INT_PRINTF(("TMDSEvent &&&&& Port 1 Rx CKOn Detect &&&&&\n"));
 8002c18:	4810      	ldr	r0, [pc, #64]	@ (8002c5c <IT6802HDMIEventManager+0xe4>)
 8002c1a:	f002 fc91 	bl	8005540 <puts>
                        TMDSCheck(F_PORT_SEL_1);
 8002c1e:	2001      	movs	r0, #1
 8002c20:	f7fd ff5a 	bl	8000ad8 <TMDSCheck>
                        it6802->HDMIIntEvent &= ~(B_PORT1_TMDSEvent);    // finish MSC
 8002c24:	f894 305c 	ldrb.w	r3, [r4, #92]	@ 0x5c
 8002c28:	f023 0320 	bic.w	r3, r3, #32
 8002c2c:	e7c1      	b.n	8002bb2 <IT6802HDMIEventManager+0x3a>
                else if((it6802->HDMIIntEvent & B_PORT1_TimingChgEvent) == B_PORT1_TimingChgEvent)
 8002c2e:	065b      	lsls	r3, r3, #25
 8002c30:	d5ea      	bpl.n	8002c08 <IT6802HDMIEventManager+0x90>
                    if(CLKCheck(F_PORT_SEL_1))
 8002c32:	2001      	movs	r0, #1
 8002c34:	f7fd fe84 	bl	8000940 <CLKCheck>
 8002c38:	2800      	cmp	r0, #0
 8002c3a:	d0e5      	beq.n	8002c08 <IT6802HDMIEventManager+0x90>
                        IT6802_DEBUG_INT_PRINTF(("TimingChgEvent &&&&& Port 1 Rx CKOn Detect &&&&&\n"));
 8002c3c:	4808      	ldr	r0, [pc, #32]	@ (8002c60 <IT6802HDMIEventManager+0xe8>)
 8002c3e:	f002 fc7f 	bl	8005540 <puts>
                        HDMIStartEQDetect(&(it6802->EQPort[F_PORT_SEL_1]));
 8002c42:	f104 0049 	add.w	r0, r4, #73	@ 0x49
 8002c46:	f7ff fdb7 	bl	80027b8 <HDMIStartEQDetect>
                        it6802->HDMIIntEvent &= ~(B_PORT1_TimingChgEvent);    // finish MSC
 8002c4a:	f894 305c 	ldrb.w	r3, [r4, #92]	@ 0x5c
 8002c4e:	f023 0340 	bic.w	r3, r3, #64	@ 0x40
 8002c52:	e7ae      	b.n	8002bb2 <IT6802HDMIEventManager+0x3a>
 8002c54:	080075aa 	.word	0x080075aa
 8002c58:	080075d6 	.word	0x080075d6
 8002c5c:	08007607 	.word	0x08007607
 8002c60:	08007633 	.word	0x08007633

08002c64 <get_vid_info>:

}
#endif

void get_vid_info( void )
{
 8002c64:	e92d 4ff0 	stmdb	sp!, {r4, r5, r6, r7, r8, r9, sl, fp, lr}



    // 2024/8/15 modified by jau-chih.tseng

    rddata = hdmirxrd(0x9A);
 8002c68:	209a      	movs	r0, #154	@ 0x9a
{
 8002c6a:	b087      	sub	sp, #28
    rddata = hdmirxrd(0x9A);
 8002c6c:	f7fd fcb4 	bl	80005d8 <hdmirxrd>

    RCLKx10 = m_ROSCCLK / 100 ;
 8002c70:	4b67      	ldr	r3, [pc, #412]	@ (8002e10 <get_vid_info+0x1ac>)
 8002c72:	681c      	ldr	r4, [r3, #0]
 8002c74:	2364      	movs	r3, #100	@ 0x64
 8002c76:	fbb4 f4f3 	udiv	r4, r4, r3
    PCLK = RCLKx10 * 255;
 8002c7a:	ebc4 2404 	rsb	r4, r4, r4, lsl #8
    PCLK /= rddata ;
 8002c7e:	fbb4 f4f0 	udiv	r4, r4, r0
    PCLK /= 10;
 8002c82:	230a      	movs	r3, #10
 8002c84:	fbb4 f3f3 	udiv	r3, r4, r3

    ucPortSel = hdmirxrd(REG_RX_051) & B_PORT_SEL;
 8002c88:	2051      	movs	r0, #81	@ 0x51
    PCLK /= 10;
 8002c8a:	9302      	str	r3, [sp, #8]
    ucPortSel = hdmirxrd(REG_RX_051) & B_PORT_SEL;
 8002c8c:	f7fd fca4 	bl	80005d8 <hdmirxrd>
    rddata = hdmirxrd(0x90);
 8002c90:	2090      	movs	r0, #144	@ 0x90
 8002c92:	f7fd fca1 	bl	80005d8 <hdmirxrd>

    // 2024/8/29 modified by jjtseng

    ucTMDSClk = PCLK;
    if( IsHDMIMode() )
 8002c96:	f7fe fa52 	bl	800113e <IsHDMIMode>
 8002c9a:	9b02      	ldr	r3, [sp, #8]
 8002c9c:	b170      	cbz	r0, 8002cbc <get_vid_info+0x58>
    {
        switch(hdmirxrd(0x99)&0xF0)
 8002c9e:	2099      	movs	r0, #153	@ 0x99
 8002ca0:	f7fd fc9a 	bl	80005d8 <hdmirxrd>
 8002ca4:	f000 00f0 	and.w	r0, r0, #240	@ 0xf0
 8002ca8:	2860      	cmp	r0, #96	@ 0x60
 8002caa:	9b02      	ldr	r3, [sp, #8]
 8002cac:	f000 80ab 	beq.w	8002e06 <get_vid_info+0x1a2>
 8002cb0:	2870      	cmp	r0, #112	@ 0x70
 8002cb2:	f000 80aa 	beq.w	8002e0a <get_vid_info+0x1a6>
 8002cb6:	2850      	cmp	r0, #80	@ 0x50
 8002cb8:	f000 80a0 	beq.w	8002dfc <get_vid_info+0x198>
{
 8002cbc:	461c      	mov	r4, r3
    //
    //}
    ////~jjtseng 2024/8/15
    //~jjtseng 2024/8/29

    InterLaced = (hdmirxrd(0x99)&0x02)>>1;
 8002cbe:	2099      	movs	r0, #153	@ 0x99
 8002cc0:	9305      	str	r3, [sp, #20]
 8002cc2:	f7fd fc89 	bl	80005d8 <hdmirxrd>
 8002cc6:	4607      	mov	r7, r0

    HTotal   = ((hdmirxrd(0x9D)&0x3F)<<8) + hdmirxrd(0x9C);
 8002cc8:	209d      	movs	r0, #157	@ 0x9d
 8002cca:	f7fd fc85 	bl	80005d8 <hdmirxrd>
 8002cce:	4682      	mov	sl, r0
 8002cd0:	209c      	movs	r0, #156	@ 0x9c
 8002cd2:	f7fd fc81 	bl	80005d8 <hdmirxrd>
 8002cd6:	ea4f 2a0a 	mov.w	sl, sl, lsl #8
 8002cda:	f40a 5a7c 	and.w	sl, sl, #16128	@ 0x3f00
 8002cde:	4482      	add	sl, r0
    HActive  = ((hdmirxrd(0x9F)&0x3F)<<8) + hdmirxrd(0x9E);
 8002ce0:	209f      	movs	r0, #159	@ 0x9f
 8002ce2:	f7fd fc79 	bl	80005d8 <hdmirxrd>
 8002ce6:	4680      	mov	r8, r0
 8002ce8:	209e      	movs	r0, #158	@ 0x9e
 8002cea:	f7fd fc75 	bl	80005d8 <hdmirxrd>
 8002cee:	ea4f 2808 	mov.w	r8, r8, lsl #8
 8002cf2:	f408 587c 	and.w	r8, r8, #16128	@ 0x3f00
 8002cf6:	4480      	add	r8, r0
    HFP      = ((hdmirxrd(0xA1)&0xF0)<<4) + hdmirxrd(0xA2);
 8002cf8:	20a1      	movs	r0, #161	@ 0xa1
 8002cfa:	f7fd fc6d 	bl	80005d8 <hdmirxrd>
 8002cfe:	4606      	mov	r6, r0
 8002d00:	20a2      	movs	r0, #162	@ 0xa2
 8002d02:	f7fd fc69 	bl	80005d8 <hdmirxrd>
 8002d06:	0136      	lsls	r6, r6, #4
 8002d08:	f406 6670 	and.w	r6, r6, #3840	@ 0xf00
 8002d0c:	4406      	add	r6, r0
    HSYNCW   = ((hdmirxrd(0xA1)&0x01)<<8) + hdmirxrd(0xA0);
 8002d0e:	20a1      	movs	r0, #161	@ 0xa1
 8002d10:	f7fd fc62 	bl	80005d8 <hdmirxrd>
 8002d14:	4605      	mov	r5, r0
 8002d16:	20a0      	movs	r0, #160	@ 0xa0
 8002d18:	f7fd fc5e 	bl	80005d8 <hdmirxrd>
 8002d1c:	022d      	lsls	r5, r5, #8
 8002d1e:	f405 7580 	and.w	r5, r5, #256	@ 0x100
 8002d22:	4405      	add	r5, r0
    HSyncPol = hdmirxrd(0xA8)&0x04>>2;
 8002d24:	20a8      	movs	r0, #168	@ 0xa8
 8002d26:	f7fd fc57 	bl	80005d8 <hdmirxrd>
 8002d2a:	9002      	str	r0, [sp, #8]

    VTotal   = ((hdmirxrd(0xA4)&0x0F)<<8) + hdmirxrd(0xA3);
 8002d2c:	20a4      	movs	r0, #164	@ 0xa4
 8002d2e:	f7fd fc53 	bl	80005d8 <hdmirxrd>
 8002d32:	4683      	mov	fp, r0
 8002d34:	20a3      	movs	r0, #163	@ 0xa3
 8002d36:	f7fd fc4f 	bl	80005d8 <hdmirxrd>
 8002d3a:	ea4f 2b0b 	mov.w	fp, fp, lsl #8
 8002d3e:	f40b 6b70 	and.w	fp, fp, #3840	@ 0xf00
 8002d42:	4483      	add	fp, r0
    VActive  = ((hdmirxrd(0xA4)&0xF0)<<4) + hdmirxrd(0xA5);
 8002d44:	20a4      	movs	r0, #164	@ 0xa4
 8002d46:	f7fd fc47 	bl	80005d8 <hdmirxrd>
 8002d4a:	4681      	mov	r9, r0
 8002d4c:	20a5      	movs	r0, #165	@ 0xa5
 8002d4e:	f7fd fc43 	bl	80005d8 <hdmirxrd>
 8002d52:	ea4f 1909 	mov.w	r9, r9, lsl #4
 8002d56:	f409 6970 	and.w	r9, r9, #3840	@ 0xf00
 8002d5a:	4481      	add	r9, r0
    VFP      = hdmirxrd(0xA7)&0x3F;
 8002d5c:	20a7      	movs	r0, #167	@ 0xa7
 8002d5e:	f7fd fc3b 	bl	80005d8 <hdmirxrd>
 8002d62:	9003      	str	r0, [sp, #12]
    VSYNCW   = hdmirxrd(0xA6)&0x1F;
 8002d64:	20a6      	movs	r0, #166	@ 0xa6
 8002d66:	f7fd fc37 	bl	80005d8 <hdmirxrd>
 8002d6a:	9004      	str	r0, [sp, #16]
    VSyncPol = (hdmirxrd(0xA8)&0x08)>>3;
 8002d6c:	20a8      	movs	r0, #168	@ 0xa8
 8002d6e:	f7fd fc33 	bl	80005d8 <hdmirxrd>

//    CurVTiming.TMDSCLK     = (int)TMDSCLK;
    CurTMDSCLK             = (int)ucTMDSClk;
 8002d72:	4a28      	ldr	r2, [pc, #160]	@ (8002e14 <get_vid_info+0x1b0>)
    CurVTiming.HSyncWidth  = HSYNCW;
    CurVTiming.HBackPorch  = HTotal - HActive - HFP - HSYNCW;
    CurVTiming.VActive     = VActive;
    CurVTiming.VTotal      = VTotal;
    CurVTiming.VFrontPorch = VFP;
    CurVTiming.VSyncWidth  = VSYNCW;
 8002d74:	9904      	ldr	r1, [sp, #16]
    CurTMDSCLK             = (int)ucTMDSClk;
 8002d76:	6014      	str	r4, [r2, #0]
    CurVTiming.PCLK        = (int)PCLK;
 8002d78:	4c27      	ldr	r4, [pc, #156]	@ (8002e18 <get_vid_info+0x1b4>)
    CurVTiming.VFrontPorch = VFP;
 8002d7a:	9a03      	ldr	r2, [sp, #12]
    CurVTiming.HActive     = HActive;
 8002d7c:	fa1f fe88 	uxth.w	lr, r8
    CurVTiming.HFrontPorch = HFP;
 8002d80:	b2b6      	uxth	r6, r6
    CurVTiming.HActive     = HActive;
 8002d82:	f8a4 e000 	strh.w	lr, [r4]
    CurVTiming.HTotal      = HTotal;
 8002d86:	fa1f fc8a 	uxth.w	ip, sl
    CurVTiming.HBackPorch  = HTotal - HActive - HFP - HSYNCW;
 8002d8a:	44b6      	add	lr, r6
    CurVTiming.HTotal      = HTotal;
 8002d8c:	f8a4 c004 	strh.w	ip, [r4, #4]
    CurVTiming.HSyncWidth  = HSYNCW;
 8002d90:	b2ad      	uxth	r5, r5
    CurVTiming.HBackPorch  = HTotal - HActive - HFP - HSYNCW;
 8002d92:	ebac 0c0e 	sub.w	ip, ip, lr
    CurVTiming.VSyncWidth  = VSYNCW;
 8002d96:	f001 011f 	and.w	r1, r1, #31
    CurVTiming.VFrontPorch = VFP;
 8002d9a:	f002 023f 	and.w	r2, r2, #63	@ 0x3f
    CurVTiming.HSyncWidth  = HSYNCW;
 8002d9e:	8225      	strh	r5, [r4, #16]
    CurVTiming.HBackPorch  = HTotal - HActive - HFP - HSYNCW;
 8002da0:	ebac 0c05 	sub.w	ip, ip, r5
    CurVTiming.VFrontPorch = VFP;
 8002da4:	82a2      	strh	r2, [r4, #20]
    CurVTiming.VTotal      = VTotal;
 8002da6:	fa1f f58b 	uxth.w	r5, fp
    CurVTiming.VBackPorch  = VTotal - VActive - VFP - VSYNCW;
 8002daa:	440a      	add	r2, r1
    CurVTiming.VTotal      = VTotal;
 8002dac:	80e5      	strh	r5, [r4, #6]
    CurVTiming.VBackPorch  = VTotal - VActive - VFP - VSYNCW;
 8002dae:	1aad      	subs	r5, r5, r2
    CurVTiming.ScanMode    = (InterLaced)&0x01;
 8002db0:	9a02      	ldr	r2, [sp, #8]
 8002db2:	f3c0 00c0 	ubfx	r0, r0, #3, #1
 8002db6:	f3c7 0740 	ubfx	r7, r7, #1, #1
 8002dba:	0092      	lsls	r2, r2, #2
 8002dbc:	ea47 0740 	orr.w	r7, r7, r0, lsl #1
 8002dc0:	f002 0204 	and.w	r2, r2, #4
 8002dc4:	4317      	orrs	r7, r2
 8002dc6:	7ea2      	ldrb	r2, [r4, #26]
    CurVTiming.PCLK        = (int)PCLK;
 8002dc8:	9b05      	ldr	r3, [sp, #20]
    CurVTiming.HFrontPorch = HFP;
 8002dca:	81e6      	strh	r6, [r4, #14]
    CurVTiming.ScanMode    = (InterLaced)&0x01;
 8002dcc:	f022 0207 	bic.w	r2, r2, #7
    CurVTiming.VActive     = VActive;
 8002dd0:	fa1f f689 	uxth.w	r6, r9
    CurVTiming.ScanMode    = (InterLaced)&0x01;
 8002dd4:	4317      	orrs	r7, r2
    CurVTiming.VBackPorch  = VTotal - VActive - VFP - VSYNCW;
 8002dd6:	1bad      	subs	r5, r5, r6
    CurVTiming.PCLK        = (int)PCLK;
 8002dd8:	60a3      	str	r3, [r4, #8]
    CurVTiming.VSyncWidth  = VSYNCW;
 8002dda:	82e1      	strh	r1, [r4, #22]
    CurVTiming.HBackPorch  = HTotal - HActive - HFP - HSYNCW;
 8002ddc:	f8a4 c012 	strh.w	ip, [r4, #18]
    CurVTiming.VActive     = VActive;
 8002de0:	8066      	strh	r6, [r4, #2]
    CurVTiming.VBackPorch  = VTotal - VActive - VFP - VSYNCW;
 8002de2:	8325      	strh	r5, [r4, #24]
    CurVTiming.ScanMode    = (InterLaced)&0x01;
 8002de4:	76a7      	strb	r7, [r4, #26]
    CurVTiming.VPolarity   = (VSyncPol)&0x01;
    CurVTiming.HPolarity   = (HSyncPol)&0x01;

    printf("[HDMI RX] Input resolution: %d x %d (HTotal=%d, VTotal=%d, PCLK=%d)\n",
 8002de6:	464a      	mov	r2, r9
 8002de8:	e9cd b300 	strd	fp, r3, [sp]
 8002dec:	4641      	mov	r1, r8
 8002dee:	4653      	mov	r3, sl
 8002df0:	480a      	ldr	r0, [pc, #40]	@ (8002e1c <get_vid_info+0x1b8>)
 8002df2:	f002 fb3d 	bl	8005470 <iprintf>
           HActive, VActive, HTotal, VTotal, PCLK);
#endif
}
 8002df6:	b007      	add	sp, #28
 8002df8:	e8bd 8ff0 	ldmia.w	sp!, {r4, r5, r6, r7, r8, r9, sl, fp, pc}
            ucTMDSClk += PCLK /4 ; // 1.25 PCLK ;
 8002dfc:	2228      	movs	r2, #40	@ 0x28
            ucTMDSClk += PCLK /2 ; // 1.5 PCLK ;
 8002dfe:	fbb4 f4f2 	udiv	r4, r4, r2
 8002e02:	441c      	add	r4, r3
            break ;
 8002e04:	e75b      	b.n	8002cbe <get_vid_info+0x5a>
            ucTMDSClk += PCLK /2 ; // 1.5 PCLK ;
 8002e06:	2214      	movs	r2, #20
 8002e08:	e7f9      	b.n	8002dfe <get_vid_info+0x19a>
            ucTMDSClk += PCLK ; // 2 PCLK ;
 8002e0a:	005c      	lsls	r4, r3, #1
            break ;
 8002e0c:	e757      	b.n	8002cbe <get_vid_info+0x5a>
 8002e0e:	bf00      	nop
 8002e10:	200003a4 	.word	0x200003a4
 8002e14:	2000038c 	.word	0x2000038c
 8002e18:	20000370 	.word	0x20000370
 8002e1c:	08007664 	.word	0x08007664

08002e20 <IPLLOvw_chk>:

void IPLLOvw_chk(int port)
{
 8002e20:	e92d 4ff7 	stmdb	sp!, {r0, r1, r2, r4, r5, r6, r7, r8, r9, sl, fp, lr}
 8002e24:	4607      	mov	r7, r0
    BYTE reg0,reg1,Reg4Eh,Regsts,IPLL_HS2,CLKStable,tmp;
     // emily add 20180508 add for SDI-HDMI source start

    //float CalTMDSCLK=0;
    reg0 = hdmirxrd(0x90);
 8002e26:	2090      	movs	r0, #144	@ 0x90
 8002e28:	f7fd fbd6 	bl	80005d8 <hdmirxrd>
    if(!port)
 8002e2c:	2f00      	cmp	r7, #0
 8002e2e:	d152      	bne.n	8002ed6 <IPLLOvw_chk+0xb6>
    {
        reg0 &= 0x03;
 8002e30:	f000 0403 	and.w	r4, r0, #3
        reg1 = hdmirxrd(0x91);
 8002e34:	2091      	movs	r0, #145	@ 0x91
 8002e36:	f7fd fbcf 	bl	80005d8 <hdmirxrd>
 8002e3a:	4605      	mov	r5, r0
        Regsts = hdmirxrd(0x0A);
 8002e3c:	200a      	movs	r0, #10
    }
    else//port1
    {
        reg0 = (reg0&0x0C)>>2;
        reg1 = hdmirxrd(0x92);
        Regsts = hdmirxrd(0x0B);
 8002e3e:	f7fd fbcb 	bl	80005d8 <hdmirxrd>
 8002e42:	4680      	mov	r8, r0
    }
    if(reg0 == 0)
 8002e44:	2c00      	cmp	r4, #0
 8002e46:	d04e      	beq.n	8002ee6 <IPLLOvw_chk+0xc6>
    {
        tmp = reg1;
    }
    else
    {
        if(reg0 == 0x01)
 8002e48:	2c01      	cmp	r4, #1
        {
            tmp = reg1>>1;//div2
 8002e4a:	bf0c      	ite	eq
 8002e4c:	f3c5 0b47 	ubfxeq	fp, r5, #1, #8
        }
        else// 2,3
        {
            tmp = reg1>>2;//div4
 8002e50:	f3c5 0b87 	ubfxne	fp, r5, #2, #8
        }
    }
    Reg4Eh = hdmirxrd(0x4E);
 8002e54:	204e      	movs	r0, #78	@ 0x4e
 8002e56:	f7fd fbbf 	bl	80005d8 <hdmirxrd>
 8002e5a:	4681      	mov	r9, r0
    IPLL_HS2= (Reg4Eh& 0xC0)>>(6+port);
    CLKStable= (hdmirxrd(0x0C)&0xC0)>>(6+port);
 8002e5c:	200c      	movs	r0, #12
 8002e5e:	f7fd fbbb 	bl	80005d8 <hdmirxrd>
    IPLL_HS2= (Reg4Eh& 0xC0)>>(6+port);
 8002e62:	f107 0a06 	add.w	sl, r7, #6
    CLKStable= (hdmirxrd(0x0C)&0xC0)>>(6+port);
 8002e66:	f000 06c0 	and.w	r6, r0, #192	@ 0xc0
    if(CLKStable)
 8002e6a:	fa56 f60a 	asrs.w	r6, r6, sl
 8002e6e:	d04a      	beq.n	8002f06 <IPLLOvw_chk+0xe6>
    {
        printf("IPLL check %x \n",(int)CLKStbChkCnt);
 8002e70:	4e31      	ldr	r6, [pc, #196]	@ (8002f38 <IPLLOvw_chk+0x118>)
 8002e72:	4832      	ldr	r0, [pc, #200]	@ (8002f3c <IPLLOvw_chk+0x11c>)
 8002e74:	7831      	ldrb	r1, [r6, #0]
 8002e76:	f002 fafb 	bl	8005470 <iprintf>
        if(CLKStbChkCnt==0x10)
 8002e7a:	7833      	ldrb	r3, [r6, #0]
 8002e7c:	2b10      	cmp	r3, #16
 8002e7e:	d140      	bne.n	8002f02 <IPLLOvw_chk+0xe2>
            //if(reg0&0x02) CalTMDSCLK= 4*RCLK*256/(reg1+1.0);
            //else if(reg0&0x01) CalTMDSCLK= 2*RCLK*256/(reg1+1.0);
            //else CalTMDSCLK= RCLK*256/(reg1+1.0);
            //printf("TMDSCLK = %3.3fMHz\n", (float)(CalTMDSCLK)/1000);
            //if(CalTMDSCLK > 150000 && P0_IPLL_HS2==0)
            if((tmp <= 27) && (!IPLL_HS2))// high mode
 8002e80:	f1bb 0f1b 	cmp.w	fp, #27
 8002e84:	d822      	bhi.n	8002ecc <IPLLOvw_chk+0xac>
    IPLL_HS2= (Reg4Eh& 0xC0)>>(6+port);
 8002e86:	f009 03c0 	and.w	r3, r9, #192	@ 0xc0
            if((tmp <= 27) && (!IPLL_HS2))// high mode
 8002e8a:	fa53 f30a 	asrs.w	r3, r3, sl
 8002e8e:	d11d      	bne.n	8002ecc <IPLLOvw_chk+0xac>
            { //OverWrite
                if((Regsts&0x80) == 0)
 8002e90:	f018 0f80 	tst.w	r8, #128	@ 0x80
 8002e94:	d11a      	bne.n	8002ecc <IPLLOvw_chk+0xac>
                {
                    chgbank(1);
 8002e96:	2001      	movs	r0, #1
 8002e98:	f7fd fd12 	bl	80008c0 <chgbank>
                    //printf("TMDSCLK = %3.3fMHz  :: ", (float)(CalTMDSCLK)/1000);
                    printf(" Regsts=%02X, Reg4Eh=%02X, reg0=%02X, reg1=%02X\n", (int)Regsts, (int)Reg4Eh, (int)reg0, (int)reg1);
 8002e9c:	464a      	mov	r2, r9
 8002e9e:	4641      	mov	r1, r8
 8002ea0:	4623      	mov	r3, r4
 8002ea2:	4827      	ldr	r0, [pc, #156]	@ (8002f40 <IPLLOvw_chk+0x120>)
 8002ea4:	9500      	str	r5, [sp, #0]
 8002ea6:	f002 fae3 	bl	8005470 <iprintf>

                    printf("OverWrite IPLL/OPLL \n");
 8002eaa:	4826      	ldr	r0, [pc, #152]	@ (8002f44 <IPLLOvw_chk+0x124>)
 8002eac:	f002 fb48 	bl	8005540 <puts>
                    if(!port)
                    {
                        hdmirxset(0xB2, 0x05, 0x04);
 8002eb0:	2204      	movs	r2, #4
 8002eb2:	2105      	movs	r1, #5
                    if(!port)
 8002eb4:	b9cf      	cbnz	r7, 8002eea <IPLLOvw_chk+0xca>
                        hdmirxset(0xB2, 0x05, 0x04);
 8002eb6:	20b2      	movs	r0, #178	@ 0xb2
 8002eb8:	f7fd fbb6 	bl	8000628 <hdmirxset>
                        hdmirxset(0xB1, 0xE0, 0xE0);
 8002ebc:	22e0      	movs	r2, #224	@ 0xe0
 8002ebe:	20b1      	movs	r0, #177	@ 0xb1
 8002ec0:	4611      	mov	r1, r2
                    }
                    else
                    {
                        hdmirxset(0xC2, 0x05, 0x04);
                        hdmirxset(0xB1, 0xC0, 0xC0);
                        hdmirxset(0xC1, 0x20, 0x20);
 8002ec2:	f7fd fbb1 	bl	8000628 <hdmirxset>
                    }
                    chgbank(0);
 8002ec6:	2000      	movs	r0, #0
 8002ec8:	f7fd fcfa 	bl	80008c0 <chgbank>
                }
            }
            CLKStbChkCnt=0;
 8002ecc:	2300      	movs	r3, #0
        }
        else
        {
            CLKStbChkCnt++;
 8002ece:	7033      	strb	r3, [r6, #0]
            hdmirxset(0xC1, 0x20, 0x00);
        }
        chgbank(0);
    }

}
 8002ed0:	b003      	add	sp, #12
 8002ed2:	e8bd 8ff0 	ldmia.w	sp!, {r4, r5, r6, r7, r8, r9, sl, fp, pc}
        reg0 = (reg0&0x0C)>>2;
 8002ed6:	f3c0 0481 	ubfx	r4, r0, #2, #2
        reg1 = hdmirxrd(0x92);
 8002eda:	2092      	movs	r0, #146	@ 0x92
 8002edc:	f7fd fb7c 	bl	80005d8 <hdmirxrd>
 8002ee0:	4605      	mov	r5, r0
        Regsts = hdmirxrd(0x0B);
 8002ee2:	200b      	movs	r0, #11
 8002ee4:	e7ab      	b.n	8002e3e <IPLLOvw_chk+0x1e>
        tmp = reg1;
 8002ee6:	46ab      	mov	fp, r5
 8002ee8:	e7b4      	b.n	8002e54 <IPLLOvw_chk+0x34>
                        hdmirxset(0xC2, 0x05, 0x04);
 8002eea:	20c2      	movs	r0, #194	@ 0xc2
 8002eec:	f7fd fb9c 	bl	8000628 <hdmirxset>
                        hdmirxset(0xB1, 0xC0, 0xC0);
 8002ef0:	22c0      	movs	r2, #192	@ 0xc0
 8002ef2:	20b1      	movs	r0, #177	@ 0xb1
 8002ef4:	4611      	mov	r1, r2
 8002ef6:	f7fd fb97 	bl	8000628 <hdmirxset>
                        hdmirxset(0xC1, 0x20, 0x20);
 8002efa:	2220      	movs	r2, #32
 8002efc:	20c1      	movs	r0, #193	@ 0xc1
 8002efe:	4611      	mov	r1, r2
 8002f00:	e7df      	b.n	8002ec2 <IPLLOvw_chk+0xa2>
            CLKStbChkCnt++;
 8002f02:	3301      	adds	r3, #1
 8002f04:	e7e3      	b.n	8002ece <IPLLOvw_chk+0xae>
        chgbank(1);
 8002f06:	2001      	movs	r0, #1
 8002f08:	f7fd fcda 	bl	80008c0 <chgbank>
        if(!port)
 8002f0c:	b957      	cbnz	r7, 8002f24 <IPLLOvw_chk+0x104>
            hdmirxset(0xB1, 0x60, 0x00);
 8002f0e:	463a      	mov	r2, r7
 8002f10:	2160      	movs	r1, #96	@ 0x60
 8002f12:	20b1      	movs	r0, #177	@ 0xb1
            hdmirxset(0xC1, 0x20, 0x00);
 8002f14:	f7fd fb88 	bl	8000628 <hdmirxset>
        chgbank(0);
 8002f18:	2000      	movs	r0, #0
}
 8002f1a:	b003      	add	sp, #12
 8002f1c:	e8bd 4ff0 	ldmia.w	sp!, {r4, r5, r6, r7, r8, r9, sl, fp, lr}
        chgbank(0);
 8002f20:	f7fd bcce 	b.w	80008c0 <chgbank>
            hdmirxset(0xB1, 0x40, 0x00);
 8002f24:	4632      	mov	r2, r6
 8002f26:	2140      	movs	r1, #64	@ 0x40
 8002f28:	20b1      	movs	r0, #177	@ 0xb1
 8002f2a:	f7fd fb7d 	bl	8000628 <hdmirxset>
            hdmirxset(0xC1, 0x20, 0x00);
 8002f2e:	4632      	mov	r2, r6
 8002f30:	2120      	movs	r1, #32
 8002f32:	20c1      	movs	r0, #193	@ 0xc1
 8002f34:	e7ee      	b.n	8002f14 <IPLLOvw_chk+0xf4>
 8002f36:	bf00      	nop
 8002f38:	200003a0 	.word	0x200003a0
 8002f3c:	080076a9 	.word	0x080076a9
 8002f40:	080076b9 	.word	0x080076b9
 8002f44:	080076ea 	.word	0x080076ea

08002f48 <show_vid_info>:
    int MxL_CLK_Mode;
    int GCP_CD       = CD8BIT; //24 bits per pixel

    unsigned long FrameRate;

    GCP_CD = ((hdmirxrd(0x99)&0xF0)>>4);
 8002f48:	2099      	movs	r0, #153	@ 0x99
{
 8002f4a:	b508      	push	{r3, lr}
    GCP_CD = ((hdmirxrd(0x99)&0xF0)>>4);
 8002f4c:	f7fd fb44 	bl	80005d8 <hdmirxrd>
 8002f50:	1100      	asrs	r0, r0, #4

    switch( GCP_CD ) {
 8002f52:	2805      	cmp	r0, #5
 8002f54:	d008      	beq.n	8002f68 <show_vid_info+0x20>
 8002f56:	2806      	cmp	r0, #6
 8002f58:	d02f      	beq.n	8002fba <show_vid_info+0x72>
    OutCD = OUT12B;
    break;
    default :
    VIDEOTIMNG_DEBUG_PRINTF(("I/P ColorDepth = 24 bits per pixel\n"));
    InBPC=8;
    hdmirxset(0x65, 0x0C, 0x00);
 8002f5a:	2200      	movs	r2, #0
 8002f5c:	210c      	movs	r1, #12
 8002f5e:	2065      	movs	r0, #101	@ 0x65
 8002f60:	f7fd fb62 	bl	8000628 <hdmirxset>
    OutCD = OUT8B;
    break;
 8002f64:	2300      	movs	r3, #0
 8002f66:	e005      	b.n	8002f74 <show_vid_info+0x2c>
    hdmirxset(0x65, 0x0C, 0x04);
 8002f68:	2204      	movs	r2, #4
 8002f6a:	210c      	movs	r1, #12
 8002f6c:	2065      	movs	r0, #101	@ 0x65
 8002f6e:	f7fd fb5b 	bl	8000628 <hdmirxset>
    break;
 8002f72:	2301      	movs	r3, #1
    OutCD = OUT10B;
 8002f74:	4a14      	ldr	r2, [pc, #80]	@ (8002fc8 <show_vid_info+0x80>)
    default :
    VIDEOTIMNG_DEBUG_PRINTF(("O/P ColorDepth = 24 bits per pixel\n"));
    break;
    }

    chgbank(2);
 8002f76:	2002      	movs	r0, #2
    OutCD = OUT10B;
 8002f78:	6013      	str	r3, [r2, #0]
    chgbank(2);
 8002f7a:	f7fd fca1 	bl	80008c0 <chgbank>
    InColorMode = (hdmirxrd(0x15)&0x60)>>5;
 8002f7e:	2015      	movs	r0, #21
 8002f80:	f7fd fb2a 	bl	80005d8 <hdmirxrd>
 8002f84:	4b11      	ldr	r3, [pc, #68]	@ (8002fcc <show_vid_info+0x84>)
 8002f86:	f3c0 1041 	ubfx	r0, r0, #5, #2
 8002f8a:	6018      	str	r0, [r3, #0]
    chgbank(0);
 8002f8c:	2000      	movs	r0, #0
 8002f8e:	f7fd fc97 	bl	80008c0 <chgbank>
    VIDEOTIMNG_DEBUG_PRINTF(("Input Color Mode = Reserved !!!\n"));
    break;
    }


    OutColorMode = (hdmirxrd(0x65)&0x30)>>4;
 8002f92:	2065      	movs	r0, #101	@ 0x65
 8002f94:	f7fd fb20 	bl	80005d8 <hdmirxrd>
 8002f98:	4b0d      	ldr	r3, [pc, #52]	@ (8002fd0 <show_vid_info+0x88>)
 8002f9a:	f3c0 1001 	ubfx	r0, r0, #4, #2
 8002f9e:	6018      	str	r0, [r3, #0]
    }
    else {
    VIDEOTIMNG_DEBUG_PRINTF(("HSyncPol = Negative\n"));
    }

    if(((hdmirxrd(0x51)&0x01)))
 8002fa0:	2051      	movs	r0, #81	@ 0x51
 8002fa2:	f7fd fb19 	bl	80005d8 <hdmirxrd>
        VIDEOTIMNG_DEBUG_PRINTF(("Reg38=%X, ",(int)hdmirxrd(REG_RX_038)));
        VIDEOTIMNG_DEBUG_PRINTF(("Reg3E=%X, ",(int)hdmirxrd(REG_RX_03E)));
        VIDEOTIMNG_DEBUG_PRINTF(("Reg3F=%X, ",(int)hdmirxrd(REG_RX_03F)));
        VIDEOTIMNG_DEBUG_PRINTF(("Reg40=%X\n",(int)hdmirxrd(REG_RX_040)));
        VIDEOTIMNG_DEBUG_PRINTF(("Reg41=%X\n",(int)hdmirxrd(REG_RX_041)));
        chgbank(1);
 8002fa6:	2001      	movs	r0, #1
 8002fa8:	f7fd fc8a 	bl	80008c0 <chgbank>
        VIDEOTIMNG_DEBUG_PRINTF(("Rec_R_CS=%X\n",(int)(hdmirxrd(REG_RX_1DF)&0x80)>>7));
        VIDEOTIMNG_DEBUG_PRINTF(("Rec_B_RS=%X  ",(int)(hdmirxrd(REG_RX_1DD)&0x7F)));
        VIDEOTIMNG_DEBUG_PRINTF(("Rec_G_RS=%X  ",(int)(hdmirxrd(REG_RX_1DE)&0x7F)));
        VIDEOTIMNG_DEBUG_PRINTF(("Rec_R_RS=%X\n",(int)(hdmirxrd(REG_RX_1DF)&0x7F)));
        VIDEOTIMNG_DEBUG_PRINTF((" Reg1C1  = %X , Reg1C2  = %X\n",(int)hdmirxrd(REG_RX_1C1),(int)hdmirxrd(REG_RX_1C2)));
        chgbank(0);
 8002fac:	2000      	movs	r0, #0
 8002fae:	f7fd fc87 	bl	80008c0 <chgbank>
    {
        VIDEOTIMNG_DEBUG_PRINTF(("HDMI/DVI Mode : DVI\n"));
    }
#endif

}
 8002fb2:	e8bd 4008 	ldmia.w	sp!, {r3, lr}
    if(IsHDMIMode())
 8002fb6:	f7fe b8c2 	b.w	800113e <IsHDMIMode>
    hdmirxset(0x65, 0x0C, 0x08);
 8002fba:	2208      	movs	r2, #8
 8002fbc:	210c      	movs	r1, #12
 8002fbe:	2065      	movs	r0, #101	@ 0x65
 8002fc0:	f7fd fb32 	bl	8000628 <hdmirxset>
    break;
 8002fc4:	2302      	movs	r3, #2
 8002fc6:	e7d5      	b.n	8002f74 <show_vid_info+0x2c>
 8002fc8:	20000364 	.word	0x20000364
 8002fcc:	2000036c 	.word	0x2000036c
 8002fd0:	20000368 	.word	0x20000368

08002fd4 <IT6802SwitchVideoState>:
{
 8002fd4:	b538      	push	{r3, r4, r5, lr}
 8002fd6:	4604      	mov	r4, r0
 8002fd8:	460d      	mov	r5, r1
    printf("[MindTec] IT6802SwitchVideoState: %d -> %d\n", it6802->m_VState, eNewVState);
 8002fda:	460a      	mov	r2, r1
 8002fdc:	7801      	ldrb	r1, [r0, #0]
 8002fde:	4836      	ldr	r0, [pc, #216]	@ (80030b8 <IT6802SwitchVideoState+0xe4>)
 8002fe0:	f002 fa46 	bl	8005470 <iprintf>
    if(it6802->m_VState==eNewVState)
 8002fe4:	7821      	ldrb	r1, [r4, #0]
 8002fe6:	42a9      	cmp	r1, r5
 8002fe8:	d064      	beq.n	80030b4 <IT6802SwitchVideoState+0xe0>
    printf("[MindTec] IT6802SwitchVideoState[1]: %d -> %d\n", it6802->m_VState, eNewVState);
 8002fea:	462a      	mov	r2, r5
 8002fec:	4833      	ldr	r0, [pc, #204]	@ (80030bc <IT6802SwitchVideoState+0xe8>)
 8002fee:	f002 fa3f 	bl	8005470 <iprintf>
    HDMIRX_VIDEO_PRINTF((VStateStr[(unsigned char)eNewVState]));
 8002ff2:	4b33      	ldr	r3, [pc, #204]	@ (80030c0 <IT6802SwitchVideoState+0xec>)
 8002ff4:	f853 0025 	ldr.w	r0, [r3, r5, lsl #2]
 8002ff8:	f002 fa3a 	bl	8005470 <iprintf>
    HDMIRX_VIDEO_PRINTF(("+++\n"));
 8002ffc:	4831      	ldr	r0, [pc, #196]	@ (80030c4 <IT6802SwitchVideoState+0xf0>)
 8002ffe:	f002 fa9f 	bl	8005540 <puts>
    it6802->m_VState=eNewVState;
 8003002:	7025      	strb	r5, [r4, #0]
    switch(it6802->m_VState)
 8003004:	2d0a      	cmp	r5, #10
 8003006:	d855      	bhi.n	80030b4 <IT6802SwitchVideoState+0xe0>
 8003008:	e8df f005 	tbb	[pc, r5]
 800300c:	54545406 	.word	0x54545406
 8003010:	543a1027 	.word	0x543a1027
 8003014:	5454      	.short	0x5454
 8003016:	3d          	.byte	0x3d
 8003017:	00          	.byte	0x00
        it6802HPDCtrl(0, 0) ;
 8003018:	2100      	movs	r1, #0
 800301a:	4608      	mov	r0, r1
 800301c:	f7fe fd06 	bl	8001a2c <it6802HPDCtrl>
        it6802HPDCtrl(1, 0) ; // if downstream switch off the state, it should be hold and HPD goes to off.
 8003020:	2100      	movs	r1, #0
}
 8003022:	e8bd 4038 	ldmia.w	sp!, {r3, r4, r5, lr}
                it6802HPDCtrl(1,0);    // clear ucport's HPD = 0
 8003026:	2001      	movs	r0, #1
 8003028:	f7fe bd00 	b.w	8001a2c <it6802HPDCtrl>
            IT6802VideoOutputEnable(FALSE);
 800302c:	2000      	movs	r0, #0
 800302e:	f7fe ff43 	bl	8001eb8 <IT6802VideoOutputEnable>
            IT6802_AFE_Rst();
 8003032:	f7fe fe9f 	bl	8001d74 <IT6802_AFE_Rst>
            if(CheckPlg5VPwr(0)==FALSE)
 8003036:	2000      	movs	r0, #0
 8003038:	f7fe f877 	bl	800112a <CheckPlg5VPwr>
 800303c:	4601      	mov	r1, r0
 800303e:	b948      	cbnz	r0, 8003054 <IT6802SwitchVideoState+0x80>
                it6802HPDCtrl(0,1);    // set ucport's HPD = 1
 8003040:	f7fe fcf4 	bl	8001a2c <it6802HPDCtrl>
            if(CheckPlg5VPwr(1)==FALSE)
 8003044:	2001      	movs	r0, #1
 8003046:	f7fe f870 	bl	800112a <CheckPlg5VPwr>
 800304a:	4601      	mov	r1, r0
 800304c:	2800      	cmp	r0, #0
 800304e:	d0e8      	beq.n	8003022 <IT6802SwitchVideoState+0x4e>
                it6802HPDCtrl(1,1);    // set ucport's HPD = 1
 8003050:	2101      	movs	r1, #1
 8003052:	e7e6      	b.n	8003022 <IT6802SwitchVideoState+0x4e>
                it6802HPDCtrl(0,1);    // set ucport's HPD = 1
 8003054:	2101      	movs	r1, #1
 8003056:	2000      	movs	r0, #0
 8003058:	e7f2      	b.n	8003040 <IT6802SwitchVideoState+0x6c>
            IT6802VideoOutputEnable(FALSE);
 800305a:	2000      	movs	r0, #0
 800305c:	f7fe ff2c 	bl	8001eb8 <IT6802VideoOutputEnable>
            it6802->m_NewAVIInfoFrameF=FALSE;
 8003060:	f894 30ab 	ldrb.w	r3, [r4, #171]	@ 0xab
 8003064:	f023 0380 	bic.w	r3, r3, #128	@ 0x80
 8003068:	f884 30ab 	strb.w	r3, [r4, #171]	@ 0xab
            it6802->m_ucDeskew_P0=0;
 800306c:	2300      	movs	r3, #0
 800306e:	8323      	strh	r3, [r4, #24]
            it6802->f_de3dframe_hdmi = FALSE;
 8003070:	f884 303e 	strb.w	r3, [r4, #62]	@ 0x3e
            hdmirxwr(REG_RX_06A, 0x82);
 8003074:	2182      	movs	r1, #130	@ 0x82
}
 8003076:	e8bd 4038 	ldmia.w	sp!, {r3, r4, r5, lr}
            hdmirxwr(REG_RX_06A, 0x82);
 800307a:	206a      	movs	r0, #106	@ 0x6a
 800307c:	f7fd babe 	b.w	80005fc <hdmirxwr>
            it6802->m_VideoCountingTimer = VSATE_CONFIRM_SCDT_COUNT;
 8003080:	2365      	movs	r3, #101	@ 0x65
 8003082:	81e3      	strh	r3, [r4, #14]
 8003084:	e7f6      	b.n	8003074 <IT6802SwitchVideoState+0xa0>
            IT6802VideoOutputConfigure(it6802);
 8003086:	4620      	mov	r0, r4
 8003088:	f7fe fc9c 	bl	80019c4 <IT6802VideoOutputConfigure>
    if(bEnableOutput)
 800308c:	f7fd fb68 	bl	8000760 <IT6802VideoOutputEnable.part.0>
            IT6802SwitchAudioState(it6802,ASTATE_RequestAudio);
 8003090:	2101      	movs	r1, #1
 8003092:	4620      	mov	r0, r4
 8003094:	f7fe fdc5 	bl	8001c22 <IT6802SwitchAudioState>
            get_vid_info();
 8003098:	f7ff fde4 	bl	8002c64 <get_vid_info>
            show_vid_info();
 800309c:	f7ff ff54 	bl	8002f48 <show_vid_info>
            hdmirxwr(0x84, 0x8F);    //2011/06/17 xxxxx, for enable Rx Chip count
 80030a0:	218f      	movs	r1, #143	@ 0x8f
 80030a2:	2084      	movs	r0, #132	@ 0x84
 80030a4:	f7fd faaa 	bl	80005fc <hdmirxwr>
            hdmirxwr(REG_RX_06A, 0x81);
 80030a8:	2181      	movs	r1, #129	@ 0x81
 80030aa:	206a      	movs	r0, #106	@ 0x6a
 80030ac:	f7fd faa6 	bl	80005fc <hdmirxwr>
                it6802->m_ucSCDTOffCount=0;
 80030b0:	2300      	movs	r3, #0
 80030b2:	7563      	strb	r3, [r4, #21]
}
 80030b4:	bd38      	pop	{r3, r4, r5, pc}
 80030b6:	bf00      	nop
 80030b8:	080076ff 	.word	0x080076ff
 80030bc:	0800772b 	.word	0x0800772b
 80030c0:	20000194 	.word	0x20000194
 80030c4:	08006eff 	.word	0x08006eff

080030c8 <IT6802_Rst>:
{
 80030c8:	b510      	push	{r4, lr}
 80030ca:	4604      	mov	r4, r0
    hdmirx_Var_init(it6802);
 80030cc:	f7fd fb70 	bl	80007b0 <hdmirx_Var_init>
    hdimrx_write_init(IT6802_HDMI_INIT_TABLE);
 80030d0:	480a      	ldr	r0, [pc, #40]	@ (80030fc <IT6802_Rst+0x34>)
 80030d2:	f7fd fb5f 	bl	8000794 <hdimrx_write_init>
    if(it6802->device_version == 0xC0){
 80030d6:	f894 30af 	ldrb.w	r3, [r4, #175]	@ 0xaf
 80030da:	2bc0      	cmp	r3, #192	@ 0xc0
 80030dc:	d102      	bne.n	80030e4 <IT6802_Rst+0x1c>
        hdimrx_write_init(IT6602_HDMI_INIT_OVERRIDE_TABLE);
 80030de:	4808      	ldr	r0, [pc, #32]	@ (8003100 <IT6802_Rst+0x38>)
 80030e0:	f7fd fb58 	bl	8000794 <hdimrx_write_init>
    Cal_oclk();
 80030e4:	f7ff f820 	bl	8002128 <Cal_oclk>
    IT6802SwitchVideoState(it6802, VSTATE_SWReset) ;
 80030e8:	4620      	mov	r0, r4
 80030ea:	2105      	movs	r1, #5
 80030ec:	f7ff ff72 	bl	8002fd4 <IT6802SwitchVideoState>
    IT6802SwitchAudioState(it6802, ASTATE_AudioOff) ;
 80030f0:	4620      	mov	r0, r4
}
 80030f2:	e8bd 4010 	ldmia.w	sp!, {r4, lr}
    IT6802SwitchAudioState(it6802, ASTATE_AudioOff) ;
 80030f6:	2100      	movs	r1, #0
 80030f8:	f7fe bd93 	b.w	8001c22 <IT6802SwitchAudioState>
 80030fc:	08008255 	.word	0x08008255
 8003100:	0800823a 	.word	0x0800823a

08003104 <WaitingForSCDT>:
{
 8003104:	e92d 41f0 	stmdb	sp!, {r4, r5, r6, r7, r8, lr}
 8003108:	4605      	mov	r5, r0
    sys_state_P0=hdmirxrd(REG_RX_P0_SYS_STATUS) & (B_P0_SCDT|B_P0_PWR5V_DET|B_P0_RXCK_VALID);
 800310a:	200a      	movs	r0, #10
 800310c:	f7fd fa64 	bl	80005d8 <hdmirxrd>
 8003110:	4606      	mov	r6, r0
 8003112:	f000 0889 	and.w	r8, r0, #137	@ 0x89
    sys_state_P1=hdmirxrd(REG_RX_P1_SYS_STATUS) & (B_P1_SCDT|B_P1_PWR5V_DET|B_P1_RXCK_VALID);
 8003116:	200b      	movs	r0, #11
 8003118:	f7fd fa5e 	bl	80005d8 <hdmirxrd>
 800311c:	4607      	mov	r7, r0
    ucPortSel = hdmirxrd(REG_RX_051) & B_PORT_SEL;
 800311e:	2051      	movs	r0, #81	@ 0x51
 8003120:	f7fd fa5a 	bl	80005d8 <hdmirxrd>
    if(ucPortSel == 0)
 8003124:	f010 0401 	ands.w	r4, r0, #1
 8003128:	d110      	bne.n	800314c <WaitingForSCDT+0x48>
        if((hdmirxrd(0x0A)&0x40) == 0x00)//non MxL for P0
 800312a:	200a      	movs	r0, #10
 800312c:	f7fd fa54 	bl	80005d8 <hdmirxrd>
 8003130:	0643      	lsls	r3, r0, #25
 8003132:	d402      	bmi.n	800313a <WaitingForSCDT+0x36>
            IPLLOvw_chk(ucPortSel);
 8003134:	4620      	mov	r0, r4
        IPLLOvw_chk(ucPortSel);
 8003136:	f7ff fe73 	bl	8002e20 <IPLLOvw_chk>
    if(sys_state_P0 & B_P0_SCDT)
 800313a:	f018 0f80 	tst.w	r8, #128	@ 0x80
 800313e:	d007      	beq.n	8003150 <WaitingForSCDT+0x4c>
        IT6802SwitchVideoState(it6802,VSTATE_SyncChecking);    //2013-0520
 8003140:	4628      	mov	r0, r5
}
 8003142:	e8bd 41f0 	ldmia.w	sp!, {r4, r5, r6, r7, r8, lr}
        IT6802SwitchVideoState(it6802,VSTATE_SyncChecking);    //2013-0520
 8003146:	2106      	movs	r1, #6
 8003148:	f7ff bf44 	b.w	8002fd4 <IT6802SwitchVideoState>
        IPLLOvw_chk(ucPortSel);
 800314c:	2001      	movs	r0, #1
 800314e:	e7f2      	b.n	8003136 <WaitingForSCDT+0x32>
        if(it6802->EQPort[ucPortSel].f_manualEQadjust==TRUE)        // ignore SCDT off when manual EQ adjust !!!
 8003150:	f04f 080a 	mov.w	r8, #10
 8003154:	fb08 5304 	mla	r3, r8, r4, r5
 8003158:	f893 3045 	ldrb.w	r3, [r3, #69]	@ 0x45
 800315c:	2b01      	cmp	r3, #1
 800315e:	d035      	beq.n	80031cc <WaitingForSCDT+0xc8>
                it6802->m_ucSCDTOffCount++;
 8003160:	7d69      	ldrb	r1, [r5, #21]
        if(ucPortSel == F_PORT_SEL_0)
 8003162:	bb1c      	cbnz	r4, 80031ac <WaitingForSCDT+0xa8>
            if((sys_state_P0 & (B_P0_PWR5V_DET|B_P0_RXCK_VALID)) == (B_P0_PWR5V_DET|B_P0_RXCK_VALID))
 8003164:	f006 0609 	and.w	r6, r6, #9
 8003168:	2e09      	cmp	r6, #9
 800316a:	d10c      	bne.n	8003186 <WaitingForSCDT+0x82>
                it6802->m_ucSCDTOffCount++;
 800316c:	3101      	adds	r1, #1
 800316e:	b2c9      	uxtb	r1, r1
 8003170:	7569      	strb	r1, [r5, #21]
                    EQ_PORT0_PRINTF((" SCDT off count = %X\n",(int)it6802->m_ucSCDTOffCount));
 8003172:	4817      	ldr	r0, [pc, #92]	@ (80031d0 <WaitingForSCDT+0xcc>)
 8003174:	f002 f97c 	bl	8005470 <iprintf>
                    EQ_PORT0_PRINTF((" sys_state_P0 = %X\n",(int)hdmirxrd(REG_RX_P0_SYS_STATUS)));
 8003178:	4640      	mov	r0, r8
 800317a:	f7fd fa2d 	bl	80005d8 <hdmirxrd>
 800317e:	4601      	mov	r1, r0
 8003180:	4814      	ldr	r0, [pc, #80]	@ (80031d4 <WaitingForSCDT+0xd0>)
                    EQ_PORT1_PRINTF((" sys_state_P1 = %X\n",(int)hdmirxrd(REG_RX_P1_SYS_STATUS)));
 8003182:	f002 f975 	bl	8005470 <iprintf>
        if((it6802->m_ucSCDTOffCount)>SCDT_OFF_TIMEOUT)
 8003186:	7d6b      	ldrb	r3, [r5, #21]
 8003188:	2b15      	cmp	r3, #21
 800318a:	d91f      	bls.n	80031cc <WaitingForSCDT+0xc8>
            it6802->m_ucSCDTOffCount=0;
 800318c:	2300      	movs	r3, #0
                    EQ_PORT0_PRINTF((" WaitingForSCDT( ) CDR reset !!!\n"));
 800318e:	4812      	ldr	r0, [pc, #72]	@ (80031d8 <WaitingForSCDT+0xd4>)
            it6802->m_ucSCDTOffCount=0;
 8003190:	756b      	strb	r3, [r5, #21]
                    EQ_PORT0_PRINTF((" WaitingForSCDT( ) CDR reset !!!\n"));
 8003192:	f002 f9d5 	bl	8005540 <puts>
                    hdmirx_ECCTimingOut(ucPortSel);
 8003196:	4620      	mov	r0, r4
 8003198:	f7fe fca8 	bl	8001aec <hdmirx_ECCTimingOut>
                     DisableOverWriteRS(ucPortSel);
 800319c:	4620      	mov	r0, r4
 800319e:	f7fd fbdd 	bl	800095c <DisableOverWriteRS>
                     TMDSCheck(ucPortSel);
 80031a2:	4620      	mov	r0, r4
}
 80031a4:	e8bd 41f0 	ldmia.w	sp!, {r4, r5, r6, r7, r8, lr}
                     TMDSCheck(ucPortSel);
 80031a8:	f7fd bc96 	b.w	8000ad8 <TMDSCheck>
            if((sys_state_P1 & (B_P1_PWR5V_DET|B_P1_RXCK_VALID)) == (B_P1_PWR5V_DET|B_P1_RXCK_VALID))
 80031ac:	f007 0709 	and.w	r7, r7, #9
 80031b0:	2f09      	cmp	r7, #9
 80031b2:	d1e8      	bne.n	8003186 <WaitingForSCDT+0x82>
                it6802->m_ucSCDTOffCount++;
 80031b4:	3101      	adds	r1, #1
 80031b6:	b2c9      	uxtb	r1, r1
 80031b8:	7569      	strb	r1, [r5, #21]
                    EQ_PORT1_PRINTF((" SCDT off count = %X\n",(int)it6802->m_ucSCDTOffCount));
 80031ba:	4805      	ldr	r0, [pc, #20]	@ (80031d0 <WaitingForSCDT+0xcc>)
 80031bc:	f002 f958 	bl	8005470 <iprintf>
                    EQ_PORT1_PRINTF((" sys_state_P1 = %X\n",(int)hdmirxrd(REG_RX_P1_SYS_STATUS)));
 80031c0:	200b      	movs	r0, #11
 80031c2:	f7fd fa09 	bl	80005d8 <hdmirxrd>
 80031c6:	4601      	mov	r1, r0
 80031c8:	4804      	ldr	r0, [pc, #16]	@ (80031dc <WaitingForSCDT+0xd8>)
 80031ca:	e7da      	b.n	8003182 <WaitingForSCDT+0x7e>
}
 80031cc:	e8bd 81f0 	ldmia.w	sp!, {r4, r5, r6, r7, r8, pc}
 80031d0:	0800775a 	.word	0x0800775a
 80031d4:	08007770 	.word	0x08007770
 80031d8:	08007798 	.word	0x08007798
 80031dc:	08007784 	.word	0x08007784

080031e0 <it6802PortSelect>:
{
 80031e0:	b538      	push	{r3, r4, r5, lr}
    if(ucPortSel == F_PORT_SEL_0 )
 80031e2:	4604      	mov	r4, r0
 80031e4:	b998      	cbnz	r0, 800320e <it6802PortSelect+0x2e>
        hdmirxset(REG_RX_051, B_PORT_SEL, F_PORT_SEL_0); //select port 0
 80031e6:	4602      	mov	r2, r0
 80031e8:	2101      	movs	r1, #1
    if(it6802data->m_ucCurrentHDMIPort != ucPortSel)
 80031ea:	4d0a      	ldr	r5, [pc, #40]	@ (8003214 <it6802PortSelect+0x34>)
        hdmirxset(REG_RX_051, B_PORT_SEL, F_PORT_SEL_1); //select port 1
 80031ec:	2051      	movs	r0, #81	@ 0x51
 80031ee:	f7fd fa1b 	bl	8000628 <hdmirxset>
    if(it6802data->m_ucCurrentHDMIPort != ucPortSel)
 80031f2:	7cab      	ldrb	r3, [r5, #18]
 80031f4:	42a3      	cmp	r3, r4
 80031f6:	d009      	beq.n	800320c <it6802PortSelect+0x2c>
        IT6802SwitchVideoState(it6802data,VSTATE_SyncWait);
 80031f8:	2104      	movs	r1, #4
 80031fa:	4628      	mov	r0, r5
 80031fc:	f7ff feea 	bl	8002fd4 <IT6802SwitchVideoState>
        it6802data->prevAVIDB[0]=0xFF;
 8003200:	23ff      	movs	r3, #255	@ 0xff
        it6802data->m_ucCurrentHDMIPort = ucPortSel;
 8003202:	74ac      	strb	r4, [r5, #18]
        it6802data->prevAVIDB[0]=0xFF;
 8003204:	f885 306b 	strb.w	r3, [r5, #107]	@ 0x6b
        it6802data->prevAVIDB[1]=0xFF;
 8003208:	f885 306c 	strb.w	r3, [r5, #108]	@ 0x6c
}
 800320c:	bd38      	pop	{r3, r4, r5, pc}
        hdmirxset(REG_RX_051, B_PORT_SEL, F_PORT_SEL_1); //select port 1
 800320e:	2201      	movs	r2, #1
 8003210:	4611      	mov	r1, r2
 8003212:	e7ea      	b.n	80031ea <it6802PortSelect+0xa>
 8003214:	200003a8 	.word	0x200003a8

08003218 <IT6802_fsm_init>:
{
 8003218:	b510      	push	{r4, lr}
    IT6802_Identify_Chip(it6802data);
 800321a:	4c0c      	ldr	r4, [pc, #48]	@ (800324c <IT6802_fsm_init+0x34>)
 800321c:	4620      	mov	r0, r4
 800321e:	f7fd fb1d 	bl	800085c <IT6802_Identify_Chip>
    IT6802_Rst(it6802data);
 8003222:	4620      	mov	r0, r4
 8003224:	f7ff ff50 	bl	80030c8 <IT6802_Rst>
        hdmirxset(REG_RX_0C0, 0x03, 0x03);
 8003228:	2203      	movs	r2, #3
        st3DParse.bVSDBspport3D = 0;
 800322a:	2400      	movs	r4, #0
 800322c:	4b08      	ldr	r3, [pc, #32]	@ (8003250 <IT6802_fsm_init+0x38>)
        hdmirxset(REG_RX_0C0, 0x03, 0x03);
 800322e:	4611      	mov	r1, r2
 8003230:	20c0      	movs	r0, #192	@ 0xc0
        st3DParse.bVSDBspport3D = 0;
 8003232:	f883 4026 	strb.w	r4, [r3, #38]	@ 0x26
        st3DParse.ucVicCnt = 0;
 8003236:	f883 4023 	strb.w	r4, [r3, #35]	@ 0x23
        st3DParse.ucDtdCnt = 0;
 800323a:	f883 4025 	strb.w	r4, [r3, #37]	@ 0x25
        hdmirxset(REG_RX_0C0, 0x03, 0x03);
 800323e:	f7fd f9f3 	bl	8000628 <hdmirxset>
    it6802PortSelect(0);    // select port 0
 8003242:	4620      	mov	r0, r4
}
 8003244:	e8bd 4010 	ldmia.w	sp!, {r4, lr}
    it6802PortSelect(0);    // select port 0
 8003248:	f7ff bfca 	b.w	80031e0 <it6802PortSelect>
 800324c:	200003a8 	.word	0x200003a8
 8003250:	2000033c 	.word	0x2000033c

08003254 <IT6802VideoHandler>:
    if(it6802->m_VideoCountingTimer > MS_LOOP)
 8003254:	89c3      	ldrh	r3, [r0, #14]
{
 8003256:	b510      	push	{r4, lr}
    if(it6802->m_VideoCountingTimer > MS_LOOP)
 8003258:	2b64      	cmp	r3, #100	@ 0x64
 800325a:	bf38      	it	cc
 800325c:	2364      	movcc	r3, #100	@ 0x64
    switch(it6802->m_VState)
 800325e:	7802      	ldrb	r2, [r0, #0]
    if(it6802->m_VideoCountingTimer > MS_LOOP)
 8003260:	3b64      	subs	r3, #100	@ 0x64
 8003262:	b29b      	uxth	r3, r3
    switch(it6802->m_VState)
 8003264:	2a06      	cmp	r2, #6
{
 8003266:	4604      	mov	r4, r0
 8003268:	81c3      	strh	r3, [r0, #14]
    switch(it6802->m_VState)
 800326a:	d007      	beq.n	800327c <IT6802VideoHandler+0x28>
 800326c:	2a0a      	cmp	r2, #10
 800326e:	d00f      	beq.n	8003290 <IT6802VideoHandler+0x3c>
 8003270:	2a04      	cmp	r2, #4
 8003272:	d12d      	bne.n	80032d0 <IT6802VideoHandler+0x7c>
}
 8003274:	e8bd 4010 	ldmia.w	sp!, {r4, lr}
            WaitingForSCDT(it6802);
 8003278:	f7ff bf44 	b.w	8003104 <WaitingForSCDT>
                if(it6802->m_VideoCountingTimer == 0)
 800327c:	bb43      	cbnz	r3, 80032d0 <IT6802VideoHandler+0x7c>
                    if(CheckAVMute()==0){
 800327e:	f7fd ff41 	bl	8001104 <CheckAVMute>
 8003282:	bb28      	cbnz	r0, 80032d0 <IT6802VideoHandler+0x7c>
                        IT6802SwitchVideoState(it6802,VSTATE_VideoOn);
 8003284:	4620      	mov	r0, r4
}
 8003286:	e8bd 4010 	ldmia.w	sp!, {r4, lr}
                        IT6802SwitchVideoState(it6802,VSTATE_VideoOn);
 800328a:	210a      	movs	r1, #10
 800328c:	f7ff bea2 	b.w	8002fd4 <IT6802SwitchVideoState>
        if(it6802->m_NewAVIInfoFrameF==TRUE)
 8003290:	f990 30ab 	ldrsb.w	r3, [r0, #171]	@ 0xab
 8003294:	2b00      	cmp	r3, #0
 8003296:	da0a      	bge.n	80032ae <IT6802VideoHandler+0x5a>
            if(it6802->m_RxHDCPState != RxHDCP_ModeCheck)
 8003298:	7883      	ldrb	r3, [r0, #2]
 800329a:	2b01      	cmp	r3, #1
 800329c:	d007      	beq.n	80032ae <IT6802VideoHandler+0x5a>
                IT6802VideoOutputConfigure(it6802);
 800329e:	f7fe fb91 	bl	80019c4 <IT6802VideoOutputConfigure>
                it6802->m_NewAVIInfoFrameF=FALSE;
 80032a2:	f894 30ab 	ldrb.w	r3, [r4, #171]	@ 0xab
 80032a6:	f023 0380 	bic.w	r3, r3, #128	@ 0x80
 80032aa:	f884 30ab 	strb.w	r3, [r4, #171]	@ 0xab
        if(hdmirxrd(REG_RX_053)&B_VDGatting)
 80032ae:	2053      	movs	r0, #83	@ 0x53
 80032b0:	f7fd f992 	bl	80005d8 <hdmirxrd>
 80032b4:	0603      	lsls	r3, r0, #24
 80032b6:	d50b      	bpl.n	80032d0 <IT6802VideoHandler+0x7c>
                if((it6802->m_RAP_ContentOff == 0) && (it6802->m_HDCP_ContentOff == 0))
 80032b8:	f8b4 3066 	ldrh.w	r3, [r4, #102]	@ 0x66
 80032bc:	b943      	cbnz	r3, 80032d0 <IT6802VideoHandler+0x7c>
                    if(CheckAVMute()==FALSE)
 80032be:	f7fd ff21 	bl	8001104 <CheckAVMute>
 80032c2:	4601      	mov	r1, r0
 80032c4:	b920      	cbnz	r0, 80032d0 <IT6802VideoHandler+0x7c>
                    IT6802_SetVideoMute(it6802,OFF);
 80032c6:	4620      	mov	r0, r4
}
 80032c8:	e8bd 4010 	ldmia.w	sp!, {r4, lr}
                    IT6802_SetVideoMute(it6802,OFF);
 80032cc:	f7fe bd9c 	b.w	8001e08 <IT6802_SetVideoMute>
}
 80032d0:	bd10      	pop	{r4, pc}
	...

080032d4 <hdmirx_INT_5V_Pwr_Chg>:
{
 80032d4:	b5f8      	push	{r3, r4, r5, r6, r7, lr}
 80032d6:	4606      	mov	r6, r0
    ucPortSel = hdmirxrd(REG_RX_051)&B_PORT_SEL;
 80032d8:	2051      	movs	r0, #81	@ 0x51
{
 80032da:	460d      	mov	r5, r1
    ucPortSel = hdmirxrd(REG_RX_051)&B_PORT_SEL;
 80032dc:	f7fd f97c 	bl	80005d8 <hdmirxrd>
 80032e0:	4604      	mov	r4, r0
    CLKStbChkCnt=0;
 80032e2:	2700      	movs	r7, #0
    chgbank(1);
 80032e4:	2001      	movs	r0, #1
 80032e6:	f7fd faeb 	bl	80008c0 <chgbank>
    hdmirxset(0xB1, 0x60, 0x00);
 80032ea:	2200      	movs	r2, #0
 80032ec:	2160      	movs	r1, #96	@ 0x60
 80032ee:	20b1      	movs	r0, #177	@ 0xb1
 80032f0:	f7fd f99a 	bl	8000628 <hdmirxset>
    hdmirxset(0xC1, 0x60, 0x00);
 80032f4:	2200      	movs	r2, #0
 80032f6:	2160      	movs	r1, #96	@ 0x60
 80032f8:	20c1      	movs	r0, #193	@ 0xc1
 80032fa:	f7fd f995 	bl	8000628 <hdmirxset>
    chgbank(0);
 80032fe:	2000      	movs	r0, #0
 8003300:	f7fd fade 	bl	80008c0 <chgbank>
    if(ucPortSel == ucport)
 8003304:	f004 0401 	and.w	r4, r4, #1
    CLKStbChkCnt=0;
 8003308:	4b18      	ldr	r3, [pc, #96]	@ (800336c <hdmirx_INT_5V_Pwr_Chg+0x98>)
    if(ucPortSel == ucport)
 800330a:	42ac      	cmp	r4, r5
    CLKStbChkCnt=0;
 800330c:	701f      	strb	r7, [r3, #0]
    if(ucPortSel == ucport)
 800330e:	d11f      	bne.n	8003350 <hdmirx_INT_5V_Pwr_Chg+0x7c>
        if(CheckPlg5VPwr(ucport)==TRUE)
 8003310:	4620      	mov	r0, r4
 8003312:	f7fd ff0a 	bl	800112a <CheckPlg5VPwr>
 8003316:	2801      	cmp	r0, #1
 8003318:	4605      	mov	r5, r0
 800331a:	d10c      	bne.n	8003336 <hdmirx_INT_5V_Pwr_Chg+0x62>
            IT6802_DEBUG_INT_PRINTF(("#### Power 5V ON ####\n"));
 800331c:	4814      	ldr	r0, [pc, #80]	@ (8003370 <hdmirx_INT_5V_Pwr_Chg+0x9c>)
 800331e:	f002 f90f 	bl	8005540 <puts>
            IT6802SwitchVideoState(it6802,VSTATE_SyncWait);
 8003322:	2104      	movs	r1, #4
 8003324:	4630      	mov	r0, r6
 8003326:	f7ff fe55 	bl	8002fd4 <IT6802SwitchVideoState>
            it6802HPDCtrl(ucport,1);    // set ucport's HPD = 1
 800332a:	4629      	mov	r1, r5
 800332c:	4620      	mov	r0, r4
}
 800332e:	e8bd 40f8 	ldmia.w	sp!, {r3, r4, r5, r6, r7, lr}
            it6802HPDCtrl(ucport,1);    // set ucport's HPD = 1
 8003332:	f7fe bb7b 	b.w	8001a2c <it6802HPDCtrl>
            IT6802_DEBUG_INT_PRINTF(("#### Power 5V OFF ####\n"));
 8003336:	480f      	ldr	r0, [pc, #60]	@ (8003374 <hdmirx_INT_5V_Pwr_Chg+0xa0>)
 8003338:	f002 f902 	bl	8005540 <puts>
            it6802HPDCtrl(ucport,0);    // clear ucport's HPD = 0
 800333c:	4639      	mov	r1, r7
 800333e:	4620      	mov	r0, r4
 8003340:	f7fe fb74 	bl	8001a2c <it6802HPDCtrl>
            IT6802SwitchVideoState(it6802,VSTATE_SWReset);
 8003344:	4630      	mov	r0, r6
}
 8003346:	e8bd 40f8 	ldmia.w	sp!, {r3, r4, r5, r6, r7, lr}
            IT6802SwitchVideoState(it6802,VSTATE_SWReset);
 800334a:	2105      	movs	r1, #5
 800334c:	f7ff be42 	b.w	8002fd4 <IT6802SwitchVideoState>
        if(CheckPlg5VPwr(ucport)==FALSE)
 8003350:	4628      	mov	r0, r5
 8003352:	f7fd feea 	bl	800112a <CheckPlg5VPwr>
 8003356:	4604      	mov	r4, r0
 8003358:	b928      	cbnz	r0, 8003366 <hdmirx_INT_5V_Pwr_Chg+0x92>
            DisableOverWriteRS(ucport);
 800335a:	4628      	mov	r0, r5
 800335c:	f7fd fafe 	bl	800095c <DisableOverWriteRS>
            it6802HPDCtrl(ucport,0);    // clear ucport's HPD = 0
 8003360:	4621      	mov	r1, r4
            it6802HPDCtrl(ucport,1);    // set ucport's HPD = 1
 8003362:	4628      	mov	r0, r5
 8003364:	e7e3      	b.n	800332e <hdmirx_INT_5V_Pwr_Chg+0x5a>
 8003366:	2101      	movs	r1, #1
 8003368:	e7fb      	b.n	8003362 <hdmirx_INT_5V_Pwr_Chg+0x8e>
 800336a:	bf00      	nop
 800336c:	200003a0 	.word	0x200003a0
 8003370:	080077b9 	.word	0x080077b9
 8003374:	080077cf 	.word	0x080077cf

08003378 <hdmirx_INT_SCDT_Chg>:
{
 8003378:	b510      	push	{r4, lr}
 800337a:	4604      	mov	r4, r0
    if(CheckSCDT(it6802) == TRUE){
 800337c:	f7fd face 	bl	800091c <CheckSCDT>
 8003380:	2801      	cmp	r0, #1
 8003382:	d108      	bne.n	8003396 <hdmirx_INT_SCDT_Chg+0x1e>
        IT6802_DEBUG_INT_PRINTF(("#### SCDT ON ####\n"));
 8003384:	480a      	ldr	r0, [pc, #40]	@ (80033b0 <hdmirx_INT_SCDT_Chg+0x38>)
 8003386:	f002 f8db 	bl	8005540 <puts>
        IT6802SwitchVideoState(it6802,VSTATE_SyncChecking);
 800338a:	4620      	mov	r0, r4
}
 800338c:	e8bd 4010 	ldmia.w	sp!, {r4, lr}
        IT6802SwitchVideoState(it6802,VSTATE_SyncChecking);
 8003390:	2106      	movs	r1, #6
 8003392:	f7ff be1f 	b.w	8002fd4 <IT6802SwitchVideoState>
        IT6802_DEBUG_INT_PRINTF(("#### SCDT OFF ####\n"));
 8003396:	4807      	ldr	r0, [pc, #28]	@ (80033b4 <hdmirx_INT_SCDT_Chg+0x3c>)
 8003398:	f002 f8d2 	bl	8005540 <puts>
        IT6802SwitchVideoState(it6802,VSTATE_SyncWait);
 800339c:	4620      	mov	r0, r4
 800339e:	2104      	movs	r1, #4
 80033a0:	f7ff fe18 	bl	8002fd4 <IT6802SwitchVideoState>
        IT6802SwitchAudioState(it6802,ASTATE_AudioOff);
 80033a4:	4620      	mov	r0, r4
}
 80033a6:	e8bd 4010 	ldmia.w	sp!, {r4, lr}
        IT6802SwitchAudioState(it6802,ASTATE_AudioOff);
 80033aa:	2100      	movs	r1, #0
 80033ac:	f7fe bc39 	b.w	8001c22 <IT6802SwitchAudioState>
 80033b0:	080077e6 	.word	0x080077e6
 80033b4:	080077f8 	.word	0x080077f8

080033b8 <Dump3DReg>:
//pccmd w 9f 22 94
//pccmd w 0f 00 94
//pccmd w 66 58 94

void Dump3DReg(void)
{
 80033b8:	b510      	push	{r4, lr}
                VSDB_DEBUG_PRINTF((" :"));
        }
    }
   VSDB_DEBUG_PRINTF(("\n"));

    chgbank(1);
 80033ba:	2001      	movs	r0, #1
 80033bc:	f7fd fa80 	bl	80008c0 <chgbank>
 80033c0:	2480      	movs	r4, #128	@ 0x80
    for(i = 0x80; i < 0xa0; i+=16)
    {
        VSDB_DEBUG_PRINTF(("[%03X]  ",i));
        for(j = 0; j < 16; j++)
        {
            ucData = hdmirxrd((BYTE)((i+j)&0xFF));
 80033c2:	4620      	mov	r0, r4
        for(j = 0; j < 16; j++)
 80033c4:	3401      	adds	r4, #1
 80033c6:	b2e4      	uxtb	r4, r4
            ucData = hdmirxrd((BYTE)((i+j)&0xFF));
 80033c8:	f7fd f906 	bl	80005d8 <hdmirxrd>
        for(j = 0; j < 16; j++)
 80033cc:	2c90      	cmp	r4, #144	@ 0x90
 80033ce:	d1f8      	bne.n	80033c2 <Dump3DReg+0xa>
            ucData = hdmirxrd((BYTE)((i+j)&0xFF));
 80033d0:	4620      	mov	r0, r4
        for(j = 0; j < 16; j++)
 80033d2:	3401      	adds	r4, #1
 80033d4:	b2e4      	uxtb	r4, r4
            ucData = hdmirxrd((BYTE)((i+j)&0xFF));
 80033d6:	f7fd f8ff 	bl	80005d8 <hdmirxrd>
        for(j = 0; j < 16; j++)
 80033da:	2ca0      	cmp	r4, #160	@ 0xa0
 80033dc:	d1f8      	bne.n	80033d0 <Dump3DReg+0x18>

    }

   VSDB_DEBUG_PRINTF(("\n        =====================================================\n"));

    chgbank(0);
 80033de:	2000      	movs	r0, #0
}
 80033e0:	e8bd 4010 	ldmia.w	sp!, {r4, lr}
    chgbank(0);
 80033e4:	f7fd ba6c 	b.w	80008c0 <chgbank>

080033e8 <IT6802_DE3DFrame>:
    //dbmsg_trace(DBM_DPATH,"IT680x - HDMI_DE3DFrame\n");
    #endif

    struct it6802_dev_data *it6802data = get_it6802_dev_data();

    if(ena_de3d  == TRUE)
 80033e8:	2801      	cmp	r0, #1
{
 80033ea:	e92d 47f0 	stmdb	sp!, {r4, r5, r6, r7, r8, r9, sl, lr}
    if(ena_de3d  == TRUE)
 80033ee:	f040 81af 	bne.w	8003750 <IT6802_DE3DFrame+0x368>
    {

         chgbank(2);
 80033f2:	2002      	movs	r0, #2
 80033f4:	f7fd fa64 	bl	80008c0 <chgbank>
            uc=hdmirxrd(REG_RX_224);
 80033f8:	2024      	movs	r0, #36	@ 0x24
 80033fa:	f7fd f8ed 	bl	80005d8 <hdmirxrd>
 80033fe:	4604      	mov	r4, r0
        uc1=hdmirxrd(REG_RX_228);
 8003400:	2028      	movs	r0, #40	@ 0x28
 8003402:	f7fd f8e9 	bl	80005d8 <hdmirxrd>
 8003406:	4607      	mov	r7, r0
        uc2=hdmirxrd(REG_RX_229);
 8003408:	2029      	movs	r0, #41	@ 0x29
 800340a:	f7fd f8e5 	bl	80005d8 <hdmirxrd>
 800340e:	4680      	mov	r8, r0
        uc3=hdmirxrd(REG_RX_22A);
 8003410:	202a      	movs	r0, #42	@ 0x2a
 8003412:	f7fd f8e1 	bl	80005d8 <hdmirxrd>
 8003416:	4605      	mov	r5, r0
         chgbank(0);
 8003418:	2000      	movs	r0, #0
 800341a:	f7fd fa51 	bl	80008c0 <chgbank>
        if((uc == 0x81)&&(uc1==0x03)&&(uc2==0x0C)&&(uc3==0x00))//ITE_150420  check  IEEE OUI
 800341e:	2c81      	cmp	r4, #129	@ 0x81
 8003420:	4cc6      	ldr	r4, [pc, #792]	@ (800373c <IT6802_DE3DFrame+0x354>)
 8003422:	f040 8180 	bne.w	8003726 <IT6802_DE3DFrame+0x33e>
 8003426:	2f03      	cmp	r7, #3
 8003428:	f040 817d 	bne.w	8003726 <IT6802_DE3DFrame+0x33e>
 800342c:	f1b8 0f0c 	cmp.w	r8, #12
 8003430:	f040 8179 	bne.w	8003726 <IT6802_DE3DFrame+0x33e>
 8003434:	2d00      	cmp	r5, #0
 8003436:	f040 8176 	bne.w	8003726 <IT6802_DE3DFrame+0x33e>
            // 3D InfoFrame Packet Type is valid
        {
             chgbank(2);
 800343a:	2002      	movs	r0, #2
 800343c:	f7fd fa40 	bl	80008c0 <chgbank>
            it6802data->s_Current3DFr.VIC=hdmirxrd(REG_RX_218);    //AVI INFO PB4
 8003440:	2018      	movs	r0, #24
 8003442:	f7fd f8c9 	bl	80005d8 <hdmirxrd>
 8003446:	f884 0030 	strb.w	r0, [r4, #48]	@ 0x30
            it6802data->s_Current3DFr.HB0=hdmirxrd(REG_RX_224);    // General Packet Header Byte 0
 800344a:	2024      	movs	r0, #36	@ 0x24
 800344c:	f7fd f8c4 	bl	80005d8 <hdmirxrd>
 8003450:	f884 0031 	strb.w	r0, [r4, #49]	@ 0x31
            it6802data->s_Current3DFr.HB1=hdmirxrd(REG_RX_225);
 8003454:	2025      	movs	r0, #37	@ 0x25
 8003456:	f7fd f8bf 	bl	80005d8 <hdmirxrd>
 800345a:	f884 0032 	strb.w	r0, [r4, #50]	@ 0x32
            it6802data->s_Current3DFr.HB2=hdmirxrd(REG_RX_226);
 800345e:	2026      	movs	r0, #38	@ 0x26
 8003460:	f7fd f8ba 	bl	80005d8 <hdmirxrd>
 8003464:	f884 0033 	strb.w	r0, [r4, #51]	@ 0x33
                it6802data->s_Current3DFr.PB0=hdmirxrd(REG_RX_227);    // General Packet Data Byte 0
 8003468:	2027      	movs	r0, #39	@ 0x27
 800346a:	f7fd f8b5 	bl	80005d8 <hdmirxrd>
 800346e:	f884 0034 	strb.w	r0, [r4, #52]	@ 0x34
            it6802data->s_Current3DFr.PB1=hdmirxrd(REG_RX_228);
 8003472:	2028      	movs	r0, #40	@ 0x28
 8003474:	f7fd f8b0 	bl	80005d8 <hdmirxrd>
 8003478:	f884 0035 	strb.w	r0, [r4, #53]	@ 0x35
            it6802data->s_Current3DFr.PB2=hdmirxrd(REG_RX_229);
 800347c:	2029      	movs	r0, #41	@ 0x29
 800347e:	f7fd f8ab 	bl	80005d8 <hdmirxrd>
 8003482:	f884 0036 	strb.w	r0, [r4, #54]	@ 0x36
            it6802data->s_Current3DFr.PB3=hdmirxrd(REG_RX_22A);
 8003486:	202a      	movs	r0, #42	@ 0x2a
 8003488:	f7fd f8a6 	bl	80005d8 <hdmirxrd>
 800348c:	f884 0037 	strb.w	r0, [r4, #55]	@ 0x37
            it6802data->s_Current3DFr.PB4=hdmirxrd(REG_RX_22B);
 8003490:	202b      	movs	r0, #43	@ 0x2b
 8003492:	f7fd f8a1 	bl	80005d8 <hdmirxrd>
 8003496:	f884 0038 	strb.w	r0, [r4, #56]	@ 0x38
            it6802data->s_Current3DFr.PB5=hdmirxrd(REG_RX_22C);
 800349a:	202c      	movs	r0, #44	@ 0x2c
 800349c:	f7fd f89c 	bl	80005d8 <hdmirxrd>
 80034a0:	f884 0039 	strb.w	r0, [r4, #57]	@ 0x39
            it6802data->s_Current3DFr.PB6=hdmirxrd(REG_RX_22D);
 80034a4:	202d      	movs	r0, #45	@ 0x2d
 80034a6:	f7fd f897 	bl	80005d8 <hdmirxrd>
 80034aa:	f884 003a 	strb.w	r0, [r4, #58]	@ 0x3a
            it6802data->s_Current3DFr.PB7=hdmirxrd(REG_RX_22E);
 80034ae:	202e      	movs	r0, #46	@ 0x2e
 80034b0:	f7fd f892 	bl	80005d8 <hdmirxrd>
 80034b4:	f884 003b 	strb.w	r0, [r4, #59]	@ 0x3b
             chgbank(0);
 80034b8:	4628      	mov	r0, r5
 80034ba:	f7fd fa01 	bl	80008c0 <chgbank>



            /******************************  3D integration  *************************************/

            it6802data->de3dframe_config.LR_Reference             =  2; // Source of the 3D L/R reference.
 80034be:	2302      	movs	r3, #2
 80034c0:	7763      	strb	r3, [r4, #29]
            it6802data->de3dframe_config.FrameDominance           =  0; // Left or Right Eye is first in L/R image pair.
 80034c2:	f44f 7380 	mov.w	r3, #256	@ 0x100
            it6802data->de3dframe_config.TB_Reference             =  2; // Top/Bottom reference for vertically sub-sampled sources
            it6802data->de3dframe_config.OE_Reference             =  2; // Odd/Even reference for horizontally sub-sampled sources

            it6802data->de3dframe_config.NumActiveBlankLines      =  0; // Number of lines separating vertically packed L/R data to be removed (cropped)before being displayed
            it6802data->de3dframe_config.NumberOfEncodedLines     =  0; // Number of encoded lines in one L/R eye frame of the display data to be blanked out with "Blanking Color".
            it6802data->de3dframe_config.LeftEncodedLineLocation  = -1; // Active line number of 1st encoded line in one Left eye frame of the display data (-1=unknown).
 80034c6:	f240 2002 	movw	r0, #514	@ 0x202
            it6802data->de3dframe_config.FrameDominance           =  0; // Left or Right Eye is first in L/R image pair.
 80034ca:	83e3      	strh	r3, [r4, #30]
            it6802data->de3dframe_config.LeftEncodedLineLocation  = -1; // Active line number of 1st encoded line in one Left eye frame of the display data (-1=unknown).
 80034cc:	f04f 33ff 	mov.w	r3, #4294967295
 80034d0:	e9c4 0308 	strd	r0, r3, [r4, #32]
            it6802data->de3dframe_config.RightEncodedLineLocation = -1; // Active line number of 1st encoded line in one Right eye frame of the display data (-1=unknown).
 80034d4:	62a3      	str	r3, [r4, #40]	@ 0x28
            it6802data->de3dframe_config.BlankingColor            =  7; // Color to use when blanking (or masking off) any embedded L/R encoding
 80034d6:	2307      	movs	r3, #7
 80034d8:	f884 302c 	strb.w	r3, [r4, #44]	@ 0x2c

            if(((it6802data->s_Current3DFr.PB4&0xE0) == HDMI_3DFORMAT_PRESENT) && ((it6802data->s_Current3DFr.PB5&0xF0) == FRAME_PACKING))
 80034dc:	f894 3038 	ldrb.w	r3, [r4, #56]	@ 0x38
 80034e0:	f003 03e0 	and.w	r3, r3, #224	@ 0xe0
 80034e4:	2b40      	cmp	r3, #64	@ 0x40
 80034e6:	d17f      	bne.n	80035e8 <IT6802_DE3DFrame+0x200>
 80034e8:	f894 3039 	ldrb.w	r3, [r4, #57]	@ 0x39
 80034ec:	2b0f      	cmp	r3, #15
 80034ee:	d87b      	bhi.n	80035e8 <IT6802_DE3DFrame+0x200>
            {
                i =0;

                while(t_3d_syncgen[i].Vic != 0xFF)
 80034f0:	2018      	movs	r0, #24
                {
                    if(t_3d_syncgen[i].Vic == it6802data->s_Current3DFr.VIC)
 80034f2:	f894 6030 	ldrb.w	r6, [r4, #48]	@ 0x30
                while(t_3d_syncgen[i].Vic != 0xFF)
 80034f6:	4b92      	ldr	r3, [pc, #584]	@ (8003740 <IT6802_DE3DFrame+0x358>)
 80034f8:	b2ea      	uxtb	r2, r5
 80034fa:	fb00 f102 	mul.w	r1, r0, r2
 80034fe:	5c59      	ldrb	r1, [r3, r1]
 8003500:	29ff      	cmp	r1, #255	@ 0xff
 8003502:	d003      	beq.n	800350c <IT6802_DE3DFrame+0x124>
                    if(t_3d_syncgen[i].Vic == it6802data->s_Current3DFr.VIC)
 8003504:	428e      	cmp	r6, r1
 8003506:	f105 0501 	add.w	r5, r5, #1
 800350a:	d1f5      	bne.n	80034f8 <IT6802_DE3DFrame+0x110>
                    {
                        break;
                    }
                    i++;
                }
        v_total     = t_3d_syncgen[i].V_total;
 800350c:	2118      	movs	r1, #24
 800350e:	fb01 3302 	mla	r3, r1, r2, r3
        v_act_start = t_3d_syncgen[i].V_act_start;
        v_act_end   = t_3d_syncgen[i].V_act_end;
        v_sync_end  = t_3d_syncgen[i].V_sync_end;
        v_2d_Vtotal = t_3d_syncgen[i].V_2D_active_total;
        chgbank(1);
 8003512:	2001      	movs	r0, #1
        v_act_start = t_3d_syncgen[i].V_act_start;
 8003514:	e9d3 8601 	ldrd	r8, r6, [r3, #4]
        v_sync_end  = t_3d_syncgen[i].V_sync_end;
 8003518:	e9d3 9a03 	ldrd	r9, sl, [r3, #12]
        v_2d_Vtotal = t_3d_syncgen[i].V_2D_active_total;
 800351c:	695d      	ldr	r5, [r3, #20]
        chgbank(1);
 800351e:	f7fd f9cf 	bl	80008c0 <chgbank>
        hdmirxset(Reg_PGVTotal_19D, 0xFF, (unsigned char) ((v_total & 0xFF0)>>4));             //pccmd w 9d 2e
 8003522:	f3c8 1207 	ubfx	r2, r8, #4, #8
 8003526:	21ff      	movs	r1, #255	@ 0xff
 8003528:	209d      	movs	r0, #157	@ 0x9d
 800352a:	f7fd f87d 	bl	8000628 <hdmirxset>
        hdmirxset(Reg_PGVTotal_19C, 0xF0, (unsigned char) ((v_total & 0x00F)<<4));            //pccmd w 9c d0
 800352e:	ea4f 1208 	mov.w	r2, r8, lsl #4
 8003532:	21f0      	movs	r1, #240	@ 0xf0
 8003534:	f002 02f0 	and.w	r2, r2, #240	@ 0xf0
 8003538:	209c      	movs	r0, #156	@ 0x9c
 800353a:	f7fd f875 	bl	8000628 <hdmirxset>
        hdmirxset(Reg_PGVActSt_192, 0xFF, (unsigned char) ((v_act_start & 0x0FF)));            //pccmd w 92 06
 800353e:	b2f2      	uxtb	r2, r6
 8003540:	21ff      	movs	r1, #255	@ 0xff
 8003542:	2092      	movs	r0, #146	@ 0x92
 8003544:	f7fd f870 	bl	8000628 <hdmirxset>
        hdmirxset(Reg_PGVActSt_193, 0x0F, (unsigned char) ((v_act_start & 0xF00)>>8));        //pccmd w 93 83
 8003548:	f3c6 2203 	ubfx	r2, r6, #8, #4
 800354c:	210f      	movs	r1, #15
 800354e:	2093      	movs	r0, #147	@ 0x93
 8003550:	f7fd f86a 	bl	8000628 <hdmirxset>
        hdmirxset(Reg_PGVActEd_193, 0xF0, (unsigned char) ((v_act_end & 0x00F)<<4));        //pccmd w 93 83
 8003554:	ea4f 1209 	mov.w	r2, r9, lsl #4
 8003558:	21f0      	movs	r1, #240	@ 0xf0
 800355a:	f002 02f0 	and.w	r2, r2, #240	@ 0xf0
 800355e:	2093      	movs	r0, #147	@ 0x93
 8003560:	f7fd f862 	bl	8000628 <hdmirxset>
        hdmirxset(Reg_PGVActEd_194, 0xFF, (unsigned char) ((v_act_end & 0xFF0)>>4));        //pccmd w 94 2E
 8003564:	21ff      	movs	r1, #255	@ 0xff
 8003566:	f3c9 1207 	ubfx	r2, r9, #4, #8
 800356a:	2094      	movs	r0, #148	@ 0x94
 800356c:	f7fd f85c 	bl	8000628 <hdmirxset>
        hdmirxset(Reg_PGVSyncEd_19F, 0xF0, (unsigned char) ((v_sync_end & 0x00F)<<4));    //pccmd w 9f 22
 8003570:	ea4f 120a 	mov.w	r2, sl, lsl #4


#if 1
        LR_3D_Start = (v_act_start - (v_2d_Vtotal/2));
 8003574:	eba6 0855 	sub.w	r8, r6, r5, lsr #1
        hdmirxset(Reg_PGVSyncEd_19F, 0xF0, (unsigned char) ((v_sync_end & 0x00F)<<4));    //pccmd w 9f 22
 8003578:	21f0      	movs	r1, #240	@ 0xf0
 800357a:	f002 02f0 	and.w	r2, r2, #240	@ 0xf0
 800357e:	209f      	movs	r0, #159	@ 0x9f
 8003580:	f7fd f852 	bl	8000628 <hdmirxset>
#else
        LR_3D_Start = ((v_total/2));
        LR_3D_End =(LR_3D_Start*3);
#endif

        hdmirxset(Reg_PG3DRSt_18F, 0xFF, (unsigned char) ((LR_3D_Start & 0x0FF)));
 8003584:	21ff      	movs	r1, #255	@ 0xff
 8003586:	fa5f f288 	uxtb.w	r2, r8
 800358a:	208f      	movs	r0, #143	@ 0x8f
 800358c:	f7fd f84c 	bl	8000628 <hdmirxset>
        LR_3D_End =(v_act_start + (v_2d_Vtotal/2));
 8003590:	eb06 0555 	add.w	r5, r6, r5, lsr #1
        hdmirxset(Reg_PG3DRStEd_190, 0x0F, (unsigned char) ((LR_3D_Start & 0xF00)>>8));
 8003594:	210f      	movs	r1, #15
 8003596:	f3c8 2203 	ubfx	r2, r8, #8, #4
 800359a:	2090      	movs	r0, #144	@ 0x90
 800359c:	f7fd f844 	bl	8000628 <hdmirxset>
        hdmirxset(Reg_PG3DRStEd_190, 0xF0, (unsigned char) ((LR_3D_End & 0x00F)<<4));
 80035a0:	012a      	lsls	r2, r5, #4
 80035a2:	21f0      	movs	r1, #240	@ 0xf0
 80035a4:	f002 02f0 	and.w	r2, r2, #240	@ 0xf0
 80035a8:	2090      	movs	r0, #144	@ 0x90
 80035aa:	f7fd f83d 	bl	8000628 <hdmirxset>
        hdmirxset(Reg_PG3DREd_191, 0xFF, (unsigned char) ((LR_3D_End & 0xFF0)>>4));
 80035ae:	21ff      	movs	r1, #255	@ 0xff
 80035b0:	f3c5 1207 	ubfx	r2, r5, #4, #8
 80035b4:	2091      	movs	r0, #145	@ 0x91
 80035b6:	f7fd f837 	bl	8000628 <hdmirxset>
        VSDB_DEBUG_PRINTF(("v_act_end = %X or %d\n",(int)  (v_act_end),(int)  (v_act_end)));
        VSDB_DEBUG_PRINTF(("v_sync_end = %X or %d\n",(int)  (v_sync_end),(int)  (v_sync_end)));
        VSDB_DEBUG_PRINTF(("LR_3D_Start = %X or %d\n",(int)  (LR_3D_Start),(int)  (LR_3D_Start)));
        VSDB_DEBUG_PRINTF(("LR_3D_End = %X or %d\n",(int)  (LR_3D_End),(int)  (LR_3D_End)));

        chgbank(0);
 80035ba:	2000      	movs	r0, #0
 80035bc:	f7fd f980 	bl	80008c0 <chgbank>
        hdmirxset(REG_RX_066_4_DE3DFrame, 0x10, 0x10);        // Reg66[4] = 1 for enable 3D FP2FS
 80035c0:	2210      	movs	r2, #16
 80035c2:	2066      	movs	r0, #102	@ 0x66
 80035c4:	4611      	mov	r1, r2
 80035c6:	f7fd f82f 	bl	8000628 <hdmirxset>
        hdmirxset(REG_RX_085_5_En3DROut, 0x20, 0x20);            // Reg85[5] = 1 for enable 3DR output
 80035ca:	2220      	movs	r2, #32
 80035cc:	2085      	movs	r0, #133	@ 0x85
 80035ce:	4611      	mov	r1, r2
 80035d0:	f7fd f82a 	bl	8000628 <hdmirxset>


        Dump3DReg();
 80035d4:	f7ff fef0 	bl	80033b8 <Dump3DReg>


        // enable output
        HActive  = ((hdmirxrd(0x9F)&0x3F)<<8) + hdmirxrd(0x9E);
 80035d8:	209f      	movs	r0, #159	@ 0x9f
 80035da:	f7fc fffd 	bl	80005d8 <hdmirxrd>
 80035de:	209e      	movs	r0, #158	@ 0x9e
 80035e0:	f7fc fffa 	bl	80005d8 <hdmirxrd>
        //ChangePicoResolution(HActive,v_2d_Vtotal);
                v_act_bspace = v_act_start - v_act_end;
 80035e4:	eba6 0609 	sub.w	r6, r6, r9
            }

            if(((it6802data->s_Current3DFr.PB4&0xE0) == HDMI_3DFORMAT_PRESENT) && (!it6802data->DE3DFormat_HDMIFlag))
 80035e8:	f894 2038 	ldrb.w	r2, [r4, #56]	@ 0x38
 80035ec:	f894 306a 	ldrb.w	r3, [r4, #106]	@ 0x6a
 80035f0:	f002 02e0 	and.w	r2, r2, #224	@ 0xe0
 80035f4:	2a40      	cmp	r2, #64	@ 0x40
 80035f6:	f040 8096 	bne.w	8003726 <IT6802_DE3DFrame+0x33e>
 80035fa:	07d9      	lsls	r1, r3, #31
            {
                it6802data->DE3DFormat_HDMIFlag = TRUE;
 80035fc:	bf5c      	itt	pl
 80035fe:	f043 0301 	orrpl.w	r3, r3, #1
 8003602:	f884 306a 	strbpl.w	r3, [r4, #106]	@ 0x6a
            }

            if(((it6802data->s_Current3DFr.PB4&0xE0) == HDMI_3DFORMAT_PRESENT) && (it6802data->DE3DFormat_HDMIFlag))
 8003606:	f894 306a 	ldrb.w	r3, [r4, #106]	@ 0x6a
 800360a:	f013 0001 	ands.w	r0, r3, #1
 800360e:	d102      	bne.n	8003616 <IT6802_DE3DFrame+0x22e>
    hdmirxwr(REG_RX_06A, 0x82);
    hdmirxset(REG_RX_066_4_DE3DFrame, 0x10, 0x00);        // Reg66[4] = 0 for disable 3D FP2FS
    hdmirxset(REG_RX_085_5_En3DROut, 0x20, 0x00);            // Reg85[5] = 0 for disable 3DR output

    }
    return FALSE;
 8003610:	2000      	movs	r0, #0
}
 8003612:	e8bd 87f0 	ldmia.w	sp!, {r4, r5, r6, r7, r8, r9, sl, pc}
                if(((it6802data->s_Current3DFr.PB5&0xF0) == FRAME_PACKING) && (!it6802data->FramePacking_Flag))
 8003616:	f894 2039 	ldrb.w	r2, [r4, #57]	@ 0x39
 800361a:	2a0f      	cmp	r2, #15
 800361c:	d81c      	bhi.n	8003658 <IT6802_DE3DFrame+0x270>
 800361e:	f013 0202 	ands.w	r2, r3, #2
 8003622:	d107      	bne.n	8003634 <IT6802_DE3DFrame+0x24c>
                    it6802data->FramePacking_Flag   = TRUE;
 8003624:	f023 030e 	bic.w	r3, r3, #14
 8003628:	f043 0302 	orr.w	r3, r3, #2
 800362c:	f884 306a 	strb.w	r3, [r4, #106]	@ 0x6a
                    it6802data->oldVIC              = 0;
 8003630:	f884 203c 	strb.w	r2, [r4, #60]	@ 0x3c
                    it6802data->newVIC = it6802data->s_Current3DFr.VIC;
 8003634:	f894 3030 	ldrb.w	r3, [r4, #48]	@ 0x30
                    if(it6802data->newVIC != it6802data->oldVIC)
 8003638:	f894 203c 	ldrb.w	r2, [r4, #60]	@ 0x3c
                    it6802data->newVIC = it6802data->s_Current3DFr.VIC;
 800363c:	f884 303d 	strb.w	r3, [r4, #61]	@ 0x3d
                    if(it6802data->newVIC != it6802data->oldVIC)
 8003640:	429a      	cmp	r2, r3
 8003642:	d0e6      	beq.n	8003612 <IT6802_DE3DFrame+0x22a>
                        if((it6802data->s_Current3DFr.VIC == 0x3c) || (it6802data->s_Current3DFr.VIC ==0x3e) || (it6802data->s_Current3DFr.VIC == 0x13) ||
 8003644:	2b3e      	cmp	r3, #62	@ 0x3e
 8003646:	d805      	bhi.n	8003654 <IT6802_DE3DFrame+0x26c>
 8003648:	2b1f      	cmp	r3, #31
 800364a:	d815      	bhi.n	8003678 <IT6802_DE3DFrame+0x290>
 800364c:	2b04      	cmp	r3, #4
 800364e:	d01a      	beq.n	8003686 <IT6802_DE3DFrame+0x29e>
 8003650:	2b13      	cmp	r3, #19
 8003652:	d018      	beq.n	8003686 <IT6802_DE3DFrame+0x29e>
                    if(it6802data->newVIC != it6802data->oldVIC)
 8003654:	2706      	movs	r7, #6
 8003656:	e018      	b.n	800368a <IT6802_DE3DFrame+0x2a2>
 8003658:	f002 02f0 	and.w	r2, r2, #240	@ 0xf0
                if(((it6802data->s_Current3DFr.PB5&0xF0) == TOP_AND_BOTTOM) && (!it6802data->TopAndBottom_Flag))
 800365c:	2a60      	cmp	r2, #96	@ 0x60
 800365e:	d018      	beq.n	8003692 <IT6802_DE3DFrame+0x2aa>
                if(((it6802data->s_Current3DFr.PB5&0xF0) == SIDE_BY_SIDE) && (!it6802data->SideBySide_Flag))
 8003660:	2a80      	cmp	r2, #128	@ 0x80
 8003662:	d1d6      	bne.n	8003612 <IT6802_DE3DFrame+0x22a>
 8003664:	0719      	lsls	r1, r3, #28
 8003666:	d4d4      	bmi.n	8003612 <IT6802_DE3DFrame+0x22a>
                    if((it6802data->s_Current3DFr.VIC == 0x3c) || (it6802data->s_Current3DFr.VIC ==0x3e) || (it6802data->s_Current3DFr.VIC == 0x13) || (it6802data->s_Current3DFr.VIC == 0x04) || (it6802data->s_Current3DFr.VIC == 0x05) ||
 8003668:	f894 3030 	ldrb.w	r3, [r4, #48]	@ 0x30
 800366c:	2b20      	cmp	r3, #32
 800366e:	d846      	bhi.n	80036fe <IT6802_DE3DFrame+0x316>
 8003670:	2b03      	cmp	r3, #3
 8003672:	d839      	bhi.n	80036e8 <IT6802_DE3DFrame+0x300>
 8003674:	2306      	movs	r3, #6
 8003676:	e04e      	b.n	8003716 <IT6802_DE3DFrame+0x32e>
 8003678:	4a32      	ldr	r2, [pc, #200]	@ (8003744 <IT6802_DE3DFrame+0x35c>)
 800367a:	f1a3 0120 	sub.w	r1, r3, #32
 800367e:	b2c9      	uxtb	r1, r1
 8003680:	40ca      	lsrs	r2, r1
 8003682:	07d2      	lsls	r2, r2, #31
 8003684:	d5e6      	bpl.n	8003654 <IT6802_DE3DFrame+0x26c>
                            it6802data->de3dframe_config.NumActiveBlankLines  =  (unsigned char)v_act_bspace;
 8003686:	f884 6022 	strb.w	r6, [r4, #34]	@ 0x22
                            it6802data->de3dframe_config.Format = VERT_PACKED_FULL; // Type of 3D source format is FRAME_PACKING(VERT_PACKED_FULL)
 800368a:	7727      	strb	r7, [r4, #28]
                        it6802data->oldVIC = it6802data->newVIC;
 800368c:	f884 303c 	strb.w	r3, [r4, #60]	@ 0x3c
                if(((it6802data->s_Current3DFr.PB5&0xF0) == TOP_AND_BOTTOM) && (!it6802data->TopAndBottom_Flag))
 8003690:	e7bf      	b.n	8003612 <IT6802_DE3DFrame+0x22a>
 8003692:	075d      	lsls	r5, r3, #29
 8003694:	d4bd      	bmi.n	8003612 <IT6802_DE3DFrame+0x22a>
                    if((it6802data->s_Current3DFr.VIC == 0x3c) || (it6802data->s_Current3DFr.VIC ==0x3e) || (it6802data->s_Current3DFr.VIC == 0x13) || (it6802data->s_Current3DFr.VIC == 0x04) || (it6802data->s_Current3DFr.VIC == 0x05) ||
 8003696:	f894 3030 	ldrb.w	r3, [r4, #48]	@ 0x30
 800369a:	2b20      	cmp	r3, #32
 800369c:	d80e      	bhi.n	80036bc <IT6802_DE3DFrame+0x2d4>
 800369e:	2b03      	cmp	r3, #3
 80036a0:	d801      	bhi.n	80036a6 <IT6802_DE3DFrame+0x2be>
 80036a2:	2306      	movs	r3, #6
 80036a4:	e016      	b.n	80036d4 <IT6802_DE3DFrame+0x2ec>
 80036a6:	4a28      	ldr	r2, [pc, #160]	@ (8003748 <IT6802_DE3DFrame+0x360>)
 80036a8:	3b04      	subs	r3, #4
 80036aa:	b2db      	uxtb	r3, r3
 80036ac:	fa22 f303 	lsr.w	r3, r2, r3
 80036b0:	f013 0f01 	tst.w	r3, #1
 80036b4:	bf0c      	ite	eq
 80036b6:	2306      	moveq	r3, #6
 80036b8:	2302      	movne	r3, #2
 80036ba:	e00b      	b.n	80036d4 <IT6802_DE3DFrame+0x2ec>
 80036bc:	3b22      	subs	r3, #34	@ 0x22
 80036be:	b2db      	uxtb	r3, r3
 80036c0:	2b1c      	cmp	r3, #28
 80036c2:	d8ee      	bhi.n	80036a2 <IT6802_DE3DFrame+0x2ba>
 80036c4:	4a21      	ldr	r2, [pc, #132]	@ (800374c <IT6802_DE3DFrame+0x364>)
 80036c6:	fa22 f303 	lsr.w	r3, r2, r3
 80036ca:	f013 0f01 	tst.w	r3, #1
 80036ce:	bf14      	ite	ne
 80036d0:	2302      	movne	r3, #2
 80036d2:	2306      	moveq	r3, #6
                        it6802data->de3dframe_config.Format   =  VERT_PACKED_HALF; // Type of 3D source format is TOP_AND_BOTTOM(VERT_PACKED_HALF)
 80036d4:	7723      	strb	r3, [r4, #28]
                    it6802data->FramePacking_Flag   = FALSE;
 80036d6:	f894 306a 	ldrb.w	r3, [r4, #106]	@ 0x6a
 80036da:	f023 030e 	bic.w	r3, r3, #14
 80036de:	f043 0304 	orr.w	r3, r3, #4
                    it6802data->FramePacking_Flag   = FALSE;
 80036e2:	f884 306a 	strb.w	r3, [r4, #106]	@ 0x6a
 80036e6:	e794      	b.n	8003612 <IT6802_DE3DFrame+0x22a>
 80036e8:	4a17      	ldr	r2, [pc, #92]	@ (8003748 <IT6802_DE3DFrame+0x360>)
 80036ea:	3b04      	subs	r3, #4
 80036ec:	b2db      	uxtb	r3, r3
 80036ee:	fa22 f303 	lsr.w	r3, r2, r3
                    if((it6802data->s_Current3DFr.VIC == 0x3c) || (it6802data->s_Current3DFr.VIC ==0x3e) || (it6802data->s_Current3DFr.VIC == 0x13) || (it6802data->s_Current3DFr.VIC == 0x04) || (it6802data->s_Current3DFr.VIC == 0x05) ||
 80036f2:	f013 0f01 	tst.w	r3, #1
 80036f6:	bf0c      	ite	eq
 80036f8:	2306      	moveq	r3, #6
 80036fa:	2304      	movne	r3, #4
 80036fc:	e00b      	b.n	8003716 <IT6802_DE3DFrame+0x32e>
 80036fe:	3b22      	subs	r3, #34	@ 0x22
 8003700:	b2db      	uxtb	r3, r3
 8003702:	2b1c      	cmp	r3, #28
 8003704:	d8b6      	bhi.n	8003674 <IT6802_DE3DFrame+0x28c>
 8003706:	4a11      	ldr	r2, [pc, #68]	@ (800374c <IT6802_DE3DFrame+0x364>)
 8003708:	fa22 f303 	lsr.w	r3, r2, r3
 800370c:	f013 0f01 	tst.w	r3, #1
 8003710:	bf14      	ite	ne
 8003712:	2304      	movne	r3, #4
 8003714:	2306      	moveq	r3, #6
                        it6802data->de3dframe_config.Format   =  HORIZ_PACKED_HALF; // Type of 3D source format is SIDE_BY_SIDE(HORIZ_PACKED_HALF)
 8003716:	7723      	strb	r3, [r4, #28]
                    it6802data->FramePacking_Flag   = FALSE;
 8003718:	f894 306a 	ldrb.w	r3, [r4, #106]	@ 0x6a
 800371c:	f023 030e 	bic.w	r3, r3, #14
 8003720:	f043 0308 	orr.w	r3, r3, #8
 8003724:	e7dd      	b.n	80036e2 <IT6802_DE3DFrame+0x2fa>
        if(it6802data->DE3DFormat_HDMIFlag)// 3D InfoFrame Packet Type is not valid
 8003726:	f894 306a 	ldrb.w	r3, [r4, #106]	@ 0x6a
 800372a:	07da      	lsls	r2, r3, #31
 800372c:	f57f af70 	bpl.w	8003610 <IT6802_DE3DFrame+0x228>
            it6802data->DE3DFormat_HDMIFlag = FALSE;
 8003730:	f023 030f 	bic.w	r3, r3, #15
 8003734:	f884 306a 	strb.w	r3, [r4, #106]	@ 0x6a
 8003738:	e76a      	b.n	8003610 <IT6802_DE3DFrame+0x228>
 800373a:	bf00      	nop
 800373c:	200003a8 	.word	0x200003a8
 8003740:	20000004 	.word	0x20000004
 8003744:	50000005 	.word	0x50000005
 8003748:	18019003 	.word	0x18019003
 800374c:	14000001 	.word	0x14000001
    hdmirxwr(REG_RX_06A, 0x82);
 8003750:	2182      	movs	r1, #130	@ 0x82
 8003752:	206a      	movs	r0, #106	@ 0x6a
 8003754:	f7fc ff52 	bl	80005fc <hdmirxwr>
    hdmirxset(REG_RX_066_4_DE3DFrame, 0x10, 0x00);        // Reg66[4] = 0 for disable 3D FP2FS
 8003758:	2200      	movs	r2, #0
 800375a:	2110      	movs	r1, #16
 800375c:	2066      	movs	r0, #102	@ 0x66
 800375e:	f7fc ff63 	bl	8000628 <hdmirxset>
    hdmirxset(REG_RX_085_5_En3DROut, 0x20, 0x00);            // Reg85[5] = 0 for disable 3DR output
 8003762:	2200      	movs	r2, #0
 8003764:	2120      	movs	r1, #32
 8003766:	2085      	movs	r0, #133	@ 0x85
 8003768:	f7fc ff5e 	bl	8000628 <hdmirxset>
 800376c:	e750      	b.n	8003610 <IT6802_DE3DFrame+0x228>
 800376e:	bf00      	nop

08003770 <IT6802HDMIInterruptHandler>:
{
 8003770:	e92d 4ff7 	stmdb	sp!, {r0, r1, r2, r4, r5, r6, r7, r8, r9, sl, fp, lr}
    if( it6802->m_VState == VSTATE_Off )
 8003774:	7803      	ldrb	r3, [r0, #0]
{
 8003776:	4604      	mov	r4, r0
    if( it6802->m_VState == VSTATE_Off )
 8003778:	2b00      	cmp	r3, #0
 800377a:	f000 8354 	beq.w	8003e26 <IT6802HDMIInterruptHandler+0x6b6>
    chgbank(0);
 800377e:	2000      	movs	r0, #0
 8003780:	f7fd f89e 	bl	80008c0 <chgbank>
    Reg05h = hdmirxrd(REG_RX_005);
 8003784:	2005      	movs	r0, #5
 8003786:	f7fc ff27 	bl	80005d8 <hdmirxrd>
 800378a:	4606      	mov	r6, r0
    Reg06h = hdmirxrd(REG_RX_006);
 800378c:	2006      	movs	r0, #6
 800378e:	f7fc ff23 	bl	80005d8 <hdmirxrd>
 8003792:	4605      	mov	r5, r0
    Reg07h = hdmirxrd(REG_RX_007);
 8003794:	2007      	movs	r0, #7
 8003796:	f7fc ff1f 	bl	80005d8 <hdmirxrd>
 800379a:	4681      	mov	r9, r0
    Reg08h = hdmirxrd(REG_RX_008);
 800379c:	2008      	movs	r0, #8
 800379e:	f7fc ff1b 	bl	80005d8 <hdmirxrd>
 80037a2:	4682      	mov	sl, r0
    Reg09h = hdmirxrd(REG_RX_009);
 80037a4:	2009      	movs	r0, #9
 80037a6:	f7fc ff17 	bl	80005d8 <hdmirxrd>
 80037aa:	4680      	mov	r8, r0
    Reg0Ah = hdmirxrd(REG_RX_P0_SYS_STATUS);
 80037ac:	200a      	movs	r0, #10
 80037ae:	f7fc ff13 	bl	80005d8 <hdmirxrd>
 80037b2:	9001      	str	r0, [sp, #4]
    RegD0h = hdmirxrd(REG_RX_0D0);
 80037b4:	20d0      	movs	r0, #208	@ 0xd0
 80037b6:	f7fc ff0f 	bl	80005d8 <hdmirxrd>
 80037ba:	4607      	mov	r7, r0
    hdmirxwr(REG_RX_005, Reg05h);
 80037bc:	4631      	mov	r1, r6
 80037be:	2005      	movs	r0, #5
 80037c0:	f7fc ff1c 	bl	80005fc <hdmirxwr>
    hdmirxwr(REG_RX_006, Reg06h);
 80037c4:	4629      	mov	r1, r5
 80037c6:	2006      	movs	r0, #6
 80037c8:	f7fc ff18 	bl	80005fc <hdmirxwr>
    hdmirxwr(REG_RX_007, Reg07h);
 80037cc:	4649      	mov	r1, r9
 80037ce:	2007      	movs	r0, #7
 80037d0:	f7fc ff14 	bl	80005fc <hdmirxwr>
    hdmirxwr(REG_RX_008, Reg08h);
 80037d4:	4651      	mov	r1, sl
 80037d6:	2008      	movs	r0, #8
 80037d8:	f7fc ff10 	bl	80005fc <hdmirxwr>
    hdmirxwr(REG_RX_009, Reg09h);
 80037dc:	4641      	mov	r1, r8
 80037de:	2009      	movs	r0, #9
 80037e0:	f7fc ff0c 	bl	80005fc <hdmirxwr>
    hdmirxwr(REG_RX_0D0, RegD0h&0x0F);
 80037e4:	20d0      	movs	r0, #208	@ 0xd0
 80037e6:	f007 010f 	and.w	r1, r7, #15
 80037ea:	f7fc ff07 	bl	80005fc <hdmirxwr>
     if( Reg05h!=0x00 )
 80037ee:	2e00      	cmp	r6, #0
 80037f0:	f000 80aa 	beq.w	8003948 <IT6802HDMIInterruptHandler+0x1d8>
        IT6802_DEBUG_INT_PRINTF(("Reg05 = %X\n",(int) Reg05h));
 80037f4:	4631      	mov	r1, r6
 80037f6:	48bd      	ldr	r0, [pc, #756]	@ (8003aec <IT6802HDMIInterruptHandler+0x37c>)
 80037f8:	f001 fe3a 	bl	8005470 <iprintf>
         if( Reg05h&0x80 ) {
 80037fc:	0632      	lsls	r2, r6, #24
 80037fe:	d504      	bpl.n	800380a <IT6802HDMIInterruptHandler+0x9a>
             IT6802_DEBUG_INT_PRINTF(("#### Port 0 HDCP Off Detected ###\n"));
 8003800:	48bb      	ldr	r0, [pc, #748]	@ (8003af0 <IT6802HDMIInterruptHandler+0x380>)
 8003802:	f001 fe9d 	bl	8005540 <puts>
            it6802->m_ucEccCount_P0=0;
 8003806:	2300      	movs	r3, #0
 8003808:	75a3      	strb	r3, [r4, #22]
         if( Reg05h&0x40 ) {
 800380a:	0673      	lsls	r3, r6, #25
 800380c:	d506      	bpl.n	800381c <IT6802HDMIInterruptHandler+0xac>
             IT6802_DEBUG_INT_PRINTF(("#### Port 0 ECC Error %X ####\n",(int) (it6802->m_ucEccCount_P0)));
 800380e:	7da1      	ldrb	r1, [r4, #22]
 8003810:	48b8      	ldr	r0, [pc, #736]	@ (8003af4 <IT6802HDMIInterruptHandler+0x384>)
 8003812:	f001 fe2d 	bl	8005470 <iprintf>
            hdmirx_INT_P0_ECC(it6802);
 8003816:	4620      	mov	r0, r4
 8003818:	f7fe fb60 	bl	8001edc <hdmirx_INT_P0_ECC>
         if( Reg05h&0x20 ) {
 800381c:	06b0      	lsls	r0, r6, #26
 800381e:	d50a      	bpl.n	8003836 <IT6802HDMIInterruptHandler+0xc6>
             IT6802_DEBUG_INT_PRINTF(("#### Port 0 HDMI/DVI Mode change ####\n"));
 8003820:	48b5      	ldr	r0, [pc, #724]	@ (8003af8 <IT6802HDMIInterruptHandler+0x388>)
 8003822:	f001 fe8d 	bl	8005540 <puts>
            if(CLKCheck(0))
 8003826:	2000      	movs	r0, #0
 8003828:	f7fd f88a 	bl	8000940 <CLKCheck>
 800382c:	b118      	cbz	r0, 8003836 <IT6802HDMIInterruptHandler+0xc6>
            hdmirx_INT_HDMIMode_Chg(it6802,0);
 800382e:	2100      	movs	r1, #0
 8003830:	4620      	mov	r0, r4
 8003832:	f7fe fbbf 	bl	8001fb4 <hdmirx_INT_HDMIMode_Chg>
         if( Reg05h&0x08 )
 8003836:	0731      	lsls	r1, r6, #28
 8003838:	d527      	bpl.n	800388a <IT6802HDMIInterruptHandler+0x11a>
            IT6802_DEBUG_INT_PRINTF3(("#### Port 0 HDCP Authentication Start ####\n"));
 800383a:	48b0      	ldr	r0, [pc, #704]	@ (8003afc <IT6802HDMIInterruptHandler+0x38c>)
 800383c:	f001 fe80 	bl	8005540 <puts>
            it6802->m_ucEccCount_P0=0;
 8003840:	2300      	movs	r3, #0
 8003842:	75a3      	strb	r3, [r4, #22]
                if( ucPortAMPOverWrite[F_PORT_SEL_0] == 0)
 8003844:	4bae      	ldr	r3, [pc, #696]	@ (8003b00 <IT6802HDMIInterruptHandler+0x390>)
 8003846:	781a      	ldrb	r2, [r3, #0]
 8003848:	f894 305c 	ldrb.w	r3, [r4, #92]	@ 0x5c
 800384c:	2a00      	cmp	r2, #0
 800384e:	f040 8279 	bne.w	8003d44 <IT6802HDMIInterruptHandler+0x5d4>
                    if((it6802->HDMIIntEvent & (B_PORT0_Waiting))==0)
 8003852:	f013 0101 	ands.w	r1, r3, #1
 8003856:	f040 8275 	bne.w	8003d44 <IT6802HDMIInterruptHandler+0x5d4>
                        hdmirxwr(REG_RX_022, 0x00);    // power down auto EQ
 800385a:	2022      	movs	r0, #34	@ 0x22
 800385c:	f7fc fece 	bl	80005fc <hdmirxwr>
                        it6802->HDMIIntEvent |= (B_PORT0_TMDSEvent);
 8003860:	f894 305c 	ldrb.w	r3, [r4, #92]	@ 0x5c
 8003864:	f043 0303 	orr.w	r3, r3, #3
 8003868:	f884 305c 	strb.w	r3, [r4, #92]	@ 0x5c
                        it6802->HDMIWaitNo[0]=MAX_TMDS_WAITNO;
 800386c:	2303      	movs	r3, #3
                        it6802->HDMIWaitNo[0] += MAX_HDCP_WAITNO;
 800386e:	f884 305d 	strb.w	r3, [r4, #93]	@ 0x5d
            if( (Reg0Ah&0x40))
 8003872:	9b01      	ldr	r3, [sp, #4]
 8003874:	0658      	lsls	r0, r3, #25
 8003876:	d508      	bpl.n	800388a <IT6802HDMIInterruptHandler+0x11a>
                it6802->CsigBusIntEvent |= (B_MSC_Waiting);
 8003878:	f894 3058 	ldrb.w	r3, [r4, #88]	@ 0x58
 800387c:	f043 0310 	orr.w	r3, r3, #16
 8003880:	f884 3058 	strb.w	r3, [r4, #88]	@ 0x58
                it6802->CsigBusWaitNo=MAX_CsigBus_WAITNO;
 8003884:	2303      	movs	r3, #3
 8003886:	f884 305a 	strb.w	r3, [r4, #90]	@ 0x5a
         if( Reg05h&0x10 ) {
 800388a:	06f1      	lsls	r1, r6, #27
 800388c:	d51b      	bpl.n	80038c6 <IT6802HDMIInterruptHandler+0x156>
             IT6802_DEBUG_INT_PRINTF3(("#### Port 0 HDCP Authentication Done ####\n"));
 800388e:	489d      	ldr	r0, [pc, #628]	@ (8003b04 <IT6802HDMIInterruptHandler+0x394>)
 8003890:	f001 fe56 	bl	8005540 <puts>
            if( (Reg0Ah&0x40))
 8003894:	9b01      	ldr	r3, [sp, #4]
 8003896:	065a      	lsls	r2, r3, #25
 8003898:	d508      	bpl.n	80038ac <IT6802HDMIInterruptHandler+0x13c>
                it6802->CsigBusIntEvent |= (B_MSC_Waiting);
 800389a:	f894 3058 	ldrb.w	r3, [r4, #88]	@ 0x58
 800389e:	f043 0310 	orr.w	r3, r3, #16
 80038a2:	f884 3058 	strb.w	r3, [r4, #88]	@ 0x58
                it6802->CsigBusWaitNo=MAX_CsigBus_WAITNO;
 80038a6:	2303      	movs	r3, #3
 80038a8:	f884 305a 	strb.w	r3, [r4, #90]	@ 0x5a
                    if(ucPortAMPOverWrite[0]==0)    // 2013-0801
 80038ac:	4b94      	ldr	r3, [pc, #592]	@ (8003b00 <IT6802HDMIInterruptHandler+0x390>)
 80038ae:	781a      	ldrb	r2, [r3, #0]
 80038b0:	b94a      	cbnz	r2, 80038c6 <IT6802HDMIInterruptHandler+0x156>
                        it6802->HDMIIntEvent &= ~(B_PORT0_Waiting);
 80038b2:	f894 305c 	ldrb.w	r3, [r4, #92]	@ 0x5c
                        it6802->HDMIWaitNo[0]= 0;
 80038b6:	f884 205d 	strb.w	r2, [r4, #93]	@ 0x5d
                        it6802->HDMIIntEvent &= ~(B_PORT0_Waiting);
 80038ba:	f003 03fe 	and.w	r3, r3, #254	@ 0xfe
                        it6802->HDMIIntEvent |= B_PORT0_TMDSEvent;
 80038be:	f043 0302 	orr.w	r3, r3, #2
 80038c2:	f884 305c 	strb.w	r3, [r4, #92]	@ 0x5c
         if( Reg05h&0x04 )
 80038c6:	0773      	lsls	r3, r6, #29
 80038c8:	d516      	bpl.n	80038f8 <IT6802HDMIInterruptHandler+0x188>
             IT6802_DEBUG_INT_PRINTF(("#### Port 0 Input Clock Change Detect ####\n"));
 80038ca:	488f      	ldr	r0, [pc, #572]	@ (8003b08 <IT6802HDMIInterruptHandler+0x398>)
 80038cc:	f001 fe38 	bl	8005540 <puts>
             if((hdmirxrd(0x0C)&0x40) == 0x00)//P0 clock not stable  ite180509
 80038d0:	200c      	movs	r0, #12
 80038d2:	f7fc fe81 	bl	80005d8 <hdmirxrd>
 80038d6:	f010 0b40 	ands.w	fp, r0, #64	@ 0x40
 80038da:	d10d      	bne.n	80038f8 <IT6802HDMIInterruptHandler+0x188>
                chgbank(1);
 80038dc:	2001      	movs	r0, #1
 80038de:	f7fc ffef 	bl	80008c0 <chgbank>
                hdmirxset(0xB1, 0x60, 0x00);
 80038e2:	465a      	mov	r2, fp
 80038e4:	2160      	movs	r1, #96	@ 0x60
 80038e6:	20b1      	movs	r0, #177	@ 0xb1
 80038e8:	f7fc fe9e 	bl	8000628 <hdmirxset>
                chgbank(0);
 80038ec:	4658      	mov	r0, fp
 80038ee:	f7fc ffe7 	bl	80008c0 <chgbank>
                CLKStbChkCnt=0;
 80038f2:	4b86      	ldr	r3, [pc, #536]	@ (8003b0c <IT6802HDMIInterruptHandler+0x39c>)
 80038f4:	f883 b000 	strb.w	fp, [r3]
         if( Reg05h&0x02 )
 80038f8:	07b0      	lsls	r0, r6, #30
 80038fa:	d51c      	bpl.n	8003936 <IT6802HDMIInterruptHandler+0x1c6>
            it6802->m_ucEccCount_P0=0;
 80038fc:	f04f 0b00 	mov.w	fp, #0
            IT6802_DEBUG_INT_PRINTF(("#### Port 0 Rx CKOn Detect ####\n"));
 8003900:	4883      	ldr	r0, [pc, #524]	@ (8003b10 <IT6802HDMIInterruptHandler+0x3a0>)
            it6802->m_ucEccCount_P0=0;
 8003902:	f884 b016 	strb.w	fp, [r4, #22]
            it6802->m_ucDeskew_P0=0;
 8003906:	f884 b018 	strb.w	fp, [r4, #24]
            IT6802_DEBUG_INT_PRINTF(("#### Port 0 Rx CKOn Detect ####\n"));
 800390a:	f001 fe19 	bl	8005540 <puts>
            hdmirxset(0x13,0x07,0x07);
 800390e:	2207      	movs	r2, #7
 8003910:	2013      	movs	r0, #19
 8003912:	4611      	mov	r1, r2
 8003914:	f7fc fe88 	bl	8000628 <hdmirxset>
            delay1ms(5);
 8003918:	2005      	movs	r0, #5
 800391a:	f7fc fe4b 	bl	80005b4 <delay1ms>
            hdmirxset(0x13,0x07,0x00);
 800391e:	465a      	mov	r2, fp
 8003920:	2107      	movs	r1, #7
 8003922:	2013      	movs	r0, #19
 8003924:	f7fc fe80 	bl	8000628 <hdmirxset>
            if(CLKCheck(F_PORT_SEL_0))
 8003928:	4658      	mov	r0, fp
 800392a:	f7fd f809 	bl	8000940 <CLKCheck>
 800392e:	b110      	cbz	r0, 8003936 <IT6802HDMIInterruptHandler+0x1c6>
                    TMDSCheck(F_PORT_SEL_0);
 8003930:	4658      	mov	r0, fp
 8003932:	f7fd f8d1 	bl	8000ad8 <TMDSCheck>
         if( Reg05h&0x01 ) {
 8003936:	07f1      	lsls	r1, r6, #31
 8003938:	d506      	bpl.n	8003948 <IT6802HDMIInterruptHandler+0x1d8>
            IT6802_DEBUG_INT_PRINTF(("#### Port 0 Power 5V change ####\n"));
 800393a:	4876      	ldr	r0, [pc, #472]	@ (8003b14 <IT6802HDMIInterruptHandler+0x3a4>)
 800393c:	f001 fe00 	bl	8005540 <puts>
            hdmirx_INT_5V_Pwr_Chg(it6802,0);
 8003940:	2100      	movs	r1, #0
 8003942:	4620      	mov	r0, r4
 8003944:	f7ff fcc6 	bl	80032d4 <hdmirx_INT_5V_Pwr_Chg>
     if( Reg06h!=0x00 )
 8003948:	2d00      	cmp	r5, #0
 800394a:	f000 809c 	beq.w	8003a86 <IT6802HDMIInterruptHandler+0x316>
         if( Reg06h&0x80 ) {
 800394e:	062a      	lsls	r2, r5, #24
 8003950:	d504      	bpl.n	800395c <IT6802HDMIInterruptHandler+0x1ec>
            IT6802_DEBUG_INT_PRINTF(("#### Port 1 HDCP Off Detected ###\n"));
 8003952:	4871      	ldr	r0, [pc, #452]	@ (8003b18 <IT6802HDMIInterruptHandler+0x3a8>)
 8003954:	f001 fdf4 	bl	8005540 <puts>
            it6802->m_ucEccCount_P1=0;
 8003958:	2300      	movs	r3, #0
 800395a:	75e3      	strb	r3, [r4, #23]
         if( Reg06h&0x40 ) {
 800395c:	066b      	lsls	r3, r5, #25
 800395e:	d505      	bpl.n	800396c <IT6802HDMIInterruptHandler+0x1fc>
             IT6802_DEBUG_INT_PRINTF(("#### Port 1 ECC Error ####\n"));
 8003960:	486e      	ldr	r0, [pc, #440]	@ (8003b1c <IT6802HDMIInterruptHandler+0x3ac>)
 8003962:	f001 fded 	bl	8005540 <puts>
            hdmirx_INT_P1_ECC(it6802);
 8003966:	4620      	mov	r0, r4
 8003968:	f7fe fad0 	bl	8001f0c <hdmirx_INT_P1_ECC>
         if( Reg06h&0x20 )
 800396c:	06ae      	lsls	r6, r5, #26
 800396e:	d50a      	bpl.n	8003986 <IT6802HDMIInterruptHandler+0x216>
             IT6802_DEBUG_INT_PRINTF(("#### Port 1 HDMI/DVI Mode change ####\n"));
 8003970:	486b      	ldr	r0, [pc, #428]	@ (8003b20 <IT6802HDMIInterruptHandler+0x3b0>)
 8003972:	f001 fde5 	bl	8005540 <puts>
            if(CLKCheck(1))
 8003976:	2001      	movs	r0, #1
 8003978:	f7fc ffe2 	bl	8000940 <CLKCheck>
 800397c:	b118      	cbz	r0, 8003986 <IT6802HDMIInterruptHandler+0x216>
            hdmirx_INT_HDMIMode_Chg(it6802,1);
 800397e:	2101      	movs	r1, #1
 8003980:	4620      	mov	r0, r4
 8003982:	f7fe fb17 	bl	8001fb4 <hdmirx_INT_HDMIMode_Chg>
         if( Reg06h&0x08 )
 8003986:	0728      	lsls	r0, r5, #28
 8003988:	d51f      	bpl.n	80039ca <IT6802HDMIInterruptHandler+0x25a>
             IT6802_DEBUG_INT_PRINTF(("#### Port 1 HDCP Authentication Start ####\n"));
 800398a:	4866      	ldr	r0, [pc, #408]	@ (8003b24 <IT6802HDMIInterruptHandler+0x3b4>)
 800398c:	f001 fdd8 	bl	8005540 <puts>
            it6802->m_ucEccCount_P1=0;
 8003990:	2300      	movs	r3, #0
 8003992:	75e3      	strb	r3, [r4, #23]
            if( ucPortAMPOverWrite[F_PORT_SEL_1] == 0)
 8003994:	4b5a      	ldr	r3, [pc, #360]	@ (8003b00 <IT6802HDMIInterruptHandler+0x390>)
 8003996:	785a      	ldrb	r2, [r3, #1]
 8003998:	f894 305c 	ldrb.w	r3, [r4, #92]	@ 0x5c
 800399c:	2a00      	cmp	r2, #0
 800399e:	f040 81dc 	bne.w	8003d5a <IT6802HDMIInterruptHandler+0x5ea>
                if((it6802->HDMIIntEvent & (B_PORT1_Waiting))==0)
 80039a2:	f013 0610 	ands.w	r6, r3, #16
 80039a6:	f040 81d8 	bne.w	8003d5a <IT6802HDMIInterruptHandler+0x5ea>
                    IT6802_DEBUG_INT_PRINTF((" power down auto EQ of PORT 1\n"));
 80039aa:	485f      	ldr	r0, [pc, #380]	@ (8003b28 <IT6802HDMIInterruptHandler+0x3b8>)
 80039ac:	f001 fdc8 	bl	8005540 <puts>
                    hdmirxwr(REG_RX_03A, 0x00);    // power down auto EQ
 80039b0:	4631      	mov	r1, r6
 80039b2:	203a      	movs	r0, #58	@ 0x3a
 80039b4:	f7fc fe22 	bl	80005fc <hdmirxwr>
                    it6802->HDMIIntEvent |= (B_PORT1_TMDSEvent);
 80039b8:	f894 305c 	ldrb.w	r3, [r4, #92]	@ 0x5c
 80039bc:	f043 0330 	orr.w	r3, r3, #48	@ 0x30
 80039c0:	f884 305c 	strb.w	r3, [r4, #92]	@ 0x5c
                    it6802->HDMIWaitNo[1]=MAX_TMDS_WAITNO;
 80039c4:	2303      	movs	r3, #3
                    it6802->HDMIWaitNo[1] += MAX_HDCP_WAITNO;
 80039c6:	f884 305e 	strb.w	r3, [r4, #94]	@ 0x5e
         if( Reg06h&0x10 )
 80039ca:	f015 0610 	ands.w	r6, r5, #16
 80039ce:	d014      	beq.n	80039fa <IT6802HDMIInterruptHandler+0x28a>
             IT6802_DEBUG_INT_PRINTF(("#### Port 1 HDCP Authentication Done ####\n"));
 80039d0:	4856      	ldr	r0, [pc, #344]	@ (8003b2c <IT6802HDMIInterruptHandler+0x3bc>)
 80039d2:	f001 fdb5 	bl	8005540 <puts>
            if((it6802->HDMIIntEvent & (B_PORT1_Waiting)))
 80039d6:	f894 305c 	ldrb.w	r3, [r4, #92]	@ 0x5c
 80039da:	06da      	lsls	r2, r3, #27
                it6802->HDMIWaitNo[1] = 0;
 80039dc:	bf44      	itt	mi
 80039de:	2200      	movmi	r2, #0
 80039e0:	f884 205e 	strbmi.w	r2, [r4, #94]	@ 0x5e
            if(ucPortAMPOverWrite[1]==0)    // 2013-0801
 80039e4:	4a46      	ldr	r2, [pc, #280]	@ (8003b00 <IT6802HDMIInterruptHandler+0x390>)
 80039e6:	7852      	ldrb	r2, [r2, #1]
 80039e8:	b93a      	cbnz	r2, 80039fa <IT6802HDMIInterruptHandler+0x28a>
                it6802->HDMIIntEvent &= ~(B_PORT1_Waiting);
 80039ea:	f023 0310 	bic.w	r3, r3, #16
                it6802->HDMIIntEvent |= B_PORT1_TMDSEvent;
 80039ee:	f043 0320 	orr.w	r3, r3, #32
                it6802->HDMIWaitNo[1]= 0;
 80039f2:	f884 205e 	strb.w	r2, [r4, #94]	@ 0x5e
                it6802->HDMIIntEvent |= B_PORT1_TMDSEvent;
 80039f6:	f884 305c 	strb.w	r3, [r4, #92]	@ 0x5c
         if( Reg06h&0x04 )
 80039fa:	076b      	lsls	r3, r5, #29
 80039fc:	d515      	bpl.n	8003a2a <IT6802HDMIInterruptHandler+0x2ba>
             IT6802_DEBUG_INT_PRINTF(("#### Port 1 Input Clock Change Detect ####\n"));
 80039fe:	484c      	ldr	r0, [pc, #304]	@ (8003b30 <IT6802HDMIInterruptHandler+0x3c0>)
 8003a00:	f001 fd9e 	bl	8005540 <puts>
              if((hdmirxrd(0x0C)&0x80) == 0x00)//P1 clock not stable  ite180509
 8003a04:	200c      	movs	r0, #12
 8003a06:	f7fc fde7 	bl	80005d8 <hdmirxrd>
 8003a0a:	0600      	lsls	r0, r0, #24
 8003a0c:	d40d      	bmi.n	8003a2a <IT6802HDMIInterruptHandler+0x2ba>
                chgbank(1);
 8003a0e:	2001      	movs	r0, #1
 8003a10:	f7fc ff56 	bl	80008c0 <chgbank>
                hdmirxset(0xC1, 0x60, 0x00);
 8003a14:	2200      	movs	r2, #0
 8003a16:	2160      	movs	r1, #96	@ 0x60
 8003a18:	20c1      	movs	r0, #193	@ 0xc1
 8003a1a:	f7fc fe05 	bl	8000628 <hdmirxset>
                chgbank(0);
 8003a1e:	2000      	movs	r0, #0
 8003a20:	f7fc ff4e 	bl	80008c0 <chgbank>
                CLKStbChkCnt=0;
 8003a24:	2200      	movs	r2, #0
 8003a26:	4b39      	ldr	r3, [pc, #228]	@ (8003b0c <IT6802HDMIInterruptHandler+0x39c>)
 8003a28:	701a      	strb	r2, [r3, #0]
         if( Reg06h&0x02 )
 8003a2a:	07a9      	lsls	r1, r5, #30
 8003a2c:	d522      	bpl.n	8003a74 <IT6802HDMIInterruptHandler+0x304>
            IT6802_DEBUG_INT_PRINTF(("#### Port 1 Rx CKOn Detect ####\n"));
 8003a2e:	4841      	ldr	r0, [pc, #260]	@ (8003b34 <IT6802HDMIInterruptHandler+0x3c4>)
 8003a30:	f001 fd86 	bl	8005540 <puts>
            hdmirxset(0x1A,0x07,0x07);
 8003a34:	2207      	movs	r2, #7
 8003a36:	201a      	movs	r0, #26
 8003a38:	4611      	mov	r1, r2
 8003a3a:	f7fc fdf5 	bl	8000628 <hdmirxset>
            delay1ms(5);
 8003a3e:	2005      	movs	r0, #5
 8003a40:	f7fc fdb8 	bl	80005b4 <delay1ms>
            hdmirxset(0x1A,0x07,0x00);
 8003a44:	2200      	movs	r2, #0
 8003a46:	2107      	movs	r1, #7
 8003a48:	201a      	movs	r0, #26
 8003a4a:	f7fc fded 	bl	8000628 <hdmirxset>
            it6802->m_ucDeskew_P1=0;
 8003a4e:	2300      	movs	r3, #0
            if(( Reg06h&0x08 )==0 && ( Reg06h&0x04 )==0  &&  (it6802->HDMIIntEvent & (B_PORT1_TMDSEvent))==0)
 8003a50:	f015 0f0c 	tst.w	r5, #12
            it6802->m_ucDeskew_P1=0;
 8003a54:	7663      	strb	r3, [r4, #25]
            it6802->m_ucEccCount_P1=0;
 8003a56:	75e3      	strb	r3, [r4, #23]
            if(( Reg06h&0x08 )==0 && ( Reg06h&0x04 )==0  &&  (it6802->HDMIIntEvent & (B_PORT1_TMDSEvent))==0)
 8003a58:	f040 818a 	bne.w	8003d70 <IT6802HDMIInterruptHandler+0x600>
 8003a5c:	f894 305c 	ldrb.w	r3, [r4, #92]	@ 0x5c
 8003a60:	069a      	lsls	r2, r3, #26
 8003a62:	f100 8185 	bmi.w	8003d70 <IT6802HDMIInterruptHandler+0x600>
                    if(CLKCheck(F_PORT_SEL_1))
 8003a66:	2001      	movs	r0, #1
 8003a68:	f7fc ff6a 	bl	8000940 <CLKCheck>
 8003a6c:	b110      	cbz	r0, 8003a74 <IT6802HDMIInterruptHandler+0x304>
                        TMDSCheck(F_PORT_SEL_1);
 8003a6e:	2001      	movs	r0, #1
 8003a70:	f7fd f832 	bl	8000ad8 <TMDSCheck>
         if( Reg06h&0x01 )
 8003a74:	07ed      	lsls	r5, r5, #31
 8003a76:	d506      	bpl.n	8003a86 <IT6802HDMIInterruptHandler+0x316>
            IT6802_DEBUG_INT_PRINTF(("#### Port 1 Power 5V change ####\n"));
 8003a78:	482f      	ldr	r0, [pc, #188]	@ (8003b38 <IT6802HDMIInterruptHandler+0x3c8>)
 8003a7a:	f001 fd61 	bl	8005540 <puts>
            hdmirx_INT_5V_Pwr_Chg(it6802,1);
 8003a7e:	2101      	movs	r1, #1
 8003a80:	4620      	mov	r0, r4
 8003a82:	f7ff fc27 	bl	80032d4 <hdmirx_INT_5V_Pwr_Chg>
     if( Reg07h!=0x00)
 8003a86:	f1b9 0f00 	cmp.w	r9, #0
 8003a8a:	f000 80a3 	beq.w	8003bd4 <IT6802HDMIInterruptHandler+0x464>
        if( Reg07h&0x40 )
 8003a8e:	f019 0f40 	tst.w	r9, #64	@ 0x40
 8003a92:	d006      	beq.n	8003aa2 <IT6802HDMIInterruptHandler+0x332>
            IT6802_DEBUG_INT_PRINTF(("#### Audio Auto Mute ####\n"));
 8003a94:	4829      	ldr	r0, [pc, #164]	@ (8003b3c <IT6802HDMIInterruptHandler+0x3cc>)
 8003a96:	f001 fd53 	bl	8005540 <puts>
            hdmirx_SetHWMuteClr();
 8003a9a:	f7fe f891 	bl	8001bc0 <hdmirx_SetHWMuteClr>
            hdmirx_ClearHWMuteClr();
 8003a9e:	f7fe f894 	bl	8001bca <hdmirx_ClearHWMuteClr>
        if( Reg07h&0x80 )
 8003aa2:	f019 0f80 	tst.w	r9, #128	@ 0x80
 8003aa6:	d00d      	beq.n	8003ac4 <IT6802HDMIInterruptHandler+0x354>
            IT6802_DEBUG_INT_PRINTF(("#### Audio FIFO Error ####\n"));
 8003aa8:	4825      	ldr	r0, [pc, #148]	@ (8003b40 <IT6802HDMIInterruptHandler+0x3d0>)
 8003aaa:	f001 fd49 	bl	8005540 <puts>
            hdmirxset(REG_RX_07A, 0x80, 0x00);
 8003aae:	2200      	movs	r2, #0
 8003ab0:	2180      	movs	r1, #128	@ 0x80
 8003ab2:	207a      	movs	r0, #122	@ 0x7a
 8003ab4:	f7fc fdb8 	bl	8000628 <hdmirxset>
            hdmirx_SetHWMuteClr();
 8003ab8:	f7fe f882 	bl	8001bc0 <hdmirx_SetHWMuteClr>
            hdmirx_ClearHWMuteClr();
 8003abc:	f7fe f885 	bl	8001bca <hdmirx_ClearHWMuteClr>
            aud_fiforst();
 8003ac0:	f7fe f84a 	bl	8001b58 <aud_fiforst>
         if( Reg07h&0x20 ) {
 8003ac4:	f019 0f20 	tst.w	r9, #32
 8003ac8:	d006      	beq.n	8003ad8 <IT6802HDMIInterruptHandler+0x368>
             IT6802_DEBUG_INT_PRINTF(("#### Packet Left Mute ####\n"));
 8003aca:	481e      	ldr	r0, [pc, #120]	@ (8003b44 <IT6802HDMIInterruptHandler+0x3d4>)
 8003acc:	f001 fd38 	bl	8005540 <puts>
             IT6802_SetVideoMute(it6802,OFF);
 8003ad0:	2100      	movs	r1, #0
 8003ad2:	4620      	mov	r0, r4
 8003ad4:	f7fe f998 	bl	8001e08 <IT6802_SetVideoMute>
         if( Reg07h&0x10 ) {
 8003ad8:	f019 0f10 	tst.w	r9, #16
 8003adc:	d038      	beq.n	8003b50 <IT6802HDMIInterruptHandler+0x3e0>
             IT6802_DEBUG_INT_PRINTF(("#### Set Mute Packet Received ####\n"));
 8003ade:	481a      	ldr	r0, [pc, #104]	@ (8003b48 <IT6802HDMIInterruptHandler+0x3d8>)
 8003ae0:	f001 fd2e 	bl	8005540 <puts>
             IT6802_SetVideoMute(it6802,ON);
 8003ae4:	2101      	movs	r1, #1
 8003ae6:	4620      	mov	r0, r4
 8003ae8:	e030      	b.n	8003b4c <IT6802HDMIInterruptHandler+0x3dc>
 8003aea:	bf00      	nop
 8003aec:	0800780b 	.word	0x0800780b
 8003af0:	08007817 	.word	0x08007817
 8003af4:	08007839 	.word	0x08007839
 8003af8:	08007858 	.word	0x08007858
 8003afc:	0800787e 	.word	0x0800787e
 8003b00:	2000039a 	.word	0x2000039a
 8003b04:	080078a9 	.word	0x080078a9
 8003b08:	080078d3 	.word	0x080078d3
 8003b0c:	200003a0 	.word	0x200003a0
 8003b10:	080078fe 	.word	0x080078fe
 8003b14:	0800791e 	.word	0x0800791e
 8003b18:	0800793f 	.word	0x0800793f
 8003b1c:	08007961 	.word	0x08007961
 8003b20:	0800797c 	.word	0x0800797c
 8003b24:	080079a2 	.word	0x080079a2
 8003b28:	080079cd 	.word	0x080079cd
 8003b2c:	080079eb 	.word	0x080079eb
 8003b30:	08007a15 	.word	0x08007a15
 8003b34:	08007a40 	.word	0x08007a40
 8003b38:	08007a60 	.word	0x08007a60
 8003b3c:	08007a81 	.word	0x08007a81
 8003b40:	08007a9b 	.word	0x08007a9b
 8003b44:	08007ab6 	.word	0x08007ab6
 8003b48:	08007ad1 	.word	0x08007ad1
 8003b4c:	f7fe f95c 	bl	8001e08 <IT6802_SetVideoMute>
         if( Reg07h&0x08 ) {
 8003b50:	f019 0f08 	tst.w	r9, #8
 8003b54:	d002      	beq.n	8003b5c <IT6802HDMIInterruptHandler+0x3ec>
             IT6802_DEBUG_INT_PRINTF(("#### Timer Counter Tntterrupt ####\n"));
 8003b56:	48b5      	ldr	r0, [pc, #724]	@ (8003e2c <IT6802HDMIInterruptHandler+0x6bc>)
 8003b58:	f001 fcf2 	bl	8005540 <puts>
         if( Reg07h&0x04 ) {
 8003b5c:	f019 0f04 	tst.w	r9, #4
 8003b60:	d002      	beq.n	8003b68 <IT6802HDMIInterruptHandler+0x3f8>
             IT6802_DEBUG_INT_PRINTF(("#### Video Mode Changed ####\n"));
 8003b62:	48b3      	ldr	r0, [pc, #716]	@ (8003e30 <IT6802HDMIInterruptHandler+0x6c0>)
 8003b64:	f001 fcec 	bl	8005540 <puts>
         if( Reg07h&0x02 ) {
 8003b68:	f019 0f02 	tst.w	r9, #2
 8003b6c:	d002      	beq.n	8003b74 <IT6802HDMIInterruptHandler+0x404>
            hdmirx_INT_SCDT_Chg(it6802);
 8003b6e:	4620      	mov	r0, r4
 8003b70:	f7ff fc02 	bl	8003378 <hdmirx_INT_SCDT_Chg>
         if( Reg07h&0x01 ) {
 8003b74:	f019 0f01 	tst.w	r9, #1
 8003b78:	d02c      	beq.n	8003bd4 <IT6802HDMIInterruptHandler+0x464>
             if( (Reg0Ah&0x40)>>6 )
 8003b7a:	9b01      	ldr	r3, [sp, #4]
 8003b7c:	4dad      	ldr	r5, [pc, #692]	@ (8003e34 <IT6802HDMIInterruptHandler+0x6c4>)
 8003b7e:	f013 0640 	ands.w	r6, r3, #64	@ 0x40
 8003b82:	f000 810b 	beq.w	8003d9c <IT6802HDMIInterruptHandler+0x62c>
                 IT6802_DEBUG_INT_PRINTF(("#### Port 0 Bus Mode : MxL ####\n"));
 8003b86:	48ac      	ldr	r0, [pc, #688]	@ (8003e38 <IT6802HDMIInterruptHandler+0x6c8>)
 8003b88:	f001 fcda 	bl	8005540 <puts>
                if(HdmiI2cAddr==IT6802A0_HDMI_ADDR)
 8003b8c:	782b      	ldrb	r3, [r5, #0]
 8003b8e:	2b94      	cmp	r3, #148	@ 0x94
 8003b90:	d120      	bne.n	8003bd4 <IT6802HDMIInterruptHandler+0x464>
                    chgbank(1);
 8003b92:	2001      	movs	r0, #1
 8003b94:	f7fc fe94 	bl	80008c0 <chgbank>
                    hdmirxset(REG_RX_1B6,0x07,0x00);
 8003b98:	2200      	movs	r2, #0
 8003b9a:	2107      	movs	r1, #7
 8003b9c:	20b6      	movs	r0, #182	@ 0xb6
 8003b9e:	f7fc fd43 	bl	8000628 <hdmirxset>
                    hdmirxset(REG_RX_1B1,0x20,0x20);//Reg1b1[5] = 1 for enable over-write
 8003ba2:	2220      	movs	r2, #32
 8003ba4:	20b1      	movs	r0, #177	@ 0xb1
 8003ba6:	4611      	mov	r1, r2
 8003ba8:	f7fc fd3e 	bl	8000628 <hdmirxset>
                    hdmirxset(REG_RX_1B2,0x07,0x01);    // default 0x04 , change to 0x01
 8003bac:	2201      	movs	r2, #1
 8003bae:	2107      	movs	r1, #7
 8003bb0:	20b2      	movs	r0, #178	@ 0xb2
 8003bb2:	f7fc fd39 	bl	8000628 <hdmirxset>
                    IT6802_DEBUG_INT_PRINTF((" Port 0 Bus Mode Reg1B1  = %X ,Reg1B2  = %X\n",(int) hdmirxrd(REG_RX_1B1),(int) hdmirxrd(REG_RX_1B2)));
 8003bb6:	20b1      	movs	r0, #177	@ 0xb1
 8003bb8:	f7fc fd0e 	bl	80005d8 <hdmirxrd>
 8003bbc:	4605      	mov	r5, r0
 8003bbe:	20b2      	movs	r0, #178	@ 0xb2
 8003bc0:	f7fc fd0a 	bl	80005d8 <hdmirxrd>
 8003bc4:	4629      	mov	r1, r5
 8003bc6:	4602      	mov	r2, r0
 8003bc8:	489c      	ldr	r0, [pc, #624]	@ (8003e3c <IT6802HDMIInterruptHandler+0x6cc>)
 8003bca:	f001 fc51 	bl	8005470 <iprintf>
                    chgbank(0);
 8003bce:	2000      	movs	r0, #0
                        chgbank(0);
 8003bd0:	f7fc fe76 	bl	80008c0 <chgbank>
     if( Reg08h!=0x00)
 8003bd4:	f1ba 0f00 	cmp.w	sl, #0
 8003bd8:	d02b      	beq.n	8003c32 <IT6802HDMIInterruptHandler+0x4c2>
         if( Reg08h&0x20 ) {
 8003bda:	f01a 0f20 	tst.w	sl, #32
 8003bde:	d002      	beq.n	8003be6 <IT6802HDMIInterruptHandler+0x476>
             IT6802_DEBUG_INT_PRINTF(("#### No Audio InfoFrame Received ####\n"));
 8003be0:	4897      	ldr	r0, [pc, #604]	@ (8003e40 <IT6802HDMIInterruptHandler+0x6d0>)
 8003be2:	f001 fcad 	bl	8005540 <puts>
         if( Reg08h&0x10) {
 8003be6:	f01a 0f10 	tst.w	sl, #16
 8003bea:	d002      	beq.n	8003bf2 <IT6802HDMIInterruptHandler+0x482>
             IT6802_DEBUG_INT_PRINTF(("#### No AVI InfoFrame Received ####\n"));
 8003bec:	4895      	ldr	r0, [pc, #596]	@ (8003e44 <IT6802HDMIInterruptHandler+0x6d4>)
 8003bee:	f001 fca7 	bl	8005540 <puts>
         if( Reg08h&0x08 ) {
 8003bf2:	f01a 0f08 	tst.w	sl, #8
 8003bf6:	d002      	beq.n	8003bfe <IT6802HDMIInterruptHandler+0x48e>
             IT6802_DEBUG_INT_PRINTF(("#### CD Detect ####\n"));
 8003bf8:	4893      	ldr	r0, [pc, #588]	@ (8003e48 <IT6802HDMIInterruptHandler+0x6d8>)
 8003bfa:	f001 fca1 	bl	8005540 <puts>
         if( Reg08h&0x04 ) {
 8003bfe:	f01a 0f04 	tst.w	sl, #4
 8003c02:	d00a      	beq.n	8003c1a <IT6802HDMIInterruptHandler+0x4aa>
             IT6802_DEBUG_INT_PRINTF(("#### 3D InfoFrame Detect ####\n"));
 8003c04:	4891      	ldr	r0, [pc, #580]	@ (8003e4c <IT6802HDMIInterruptHandler+0x6dc>)
 8003c06:	f001 fc9b 	bl	8005540 <puts>
                    if(it6802->f_de3dframe_hdmi == FALSE)
 8003c0a:	f894 303e 	ldrb.w	r3, [r4, #62]	@ 0x3e
 8003c0e:	b923      	cbnz	r3, 8003c1a <IT6802HDMIInterruptHandler+0x4aa>
                    it6802->f_de3dframe_hdmi = IT6802_DE3DFrame(TRUE);
 8003c10:	2001      	movs	r0, #1
 8003c12:	f7ff fbe9 	bl	80033e8 <IT6802_DE3DFrame>
 8003c16:	f884 003e 	strb.w	r0, [r4, #62]	@ 0x3e
         if( Reg08h&0x02 ) {
 8003c1a:	f01a 0f02 	tst.w	sl, #2
 8003c1e:	d002      	beq.n	8003c26 <IT6802HDMIInterruptHandler+0x4b6>
             IT6802_DEBUG_INT_PRINTF(("#### ISRC2 Detect ####\n"));
 8003c20:	488b      	ldr	r0, [pc, #556]	@ (8003e50 <IT6802HDMIInterruptHandler+0x6e0>)
 8003c22:	f001 fc8d 	bl	8005540 <puts>
         if( Reg08h&0x01 ) {
 8003c26:	f01a 0f01 	tst.w	sl, #1
 8003c2a:	d002      	beq.n	8003c32 <IT6802HDMIInterruptHandler+0x4c2>
             IT6802_DEBUG_INT_PRINTF(("#### ISRC1 Detect ####\n"));
 8003c2c:	4889      	ldr	r0, [pc, #548]	@ (8003e54 <IT6802HDMIInterruptHandler+0x6e4>)
 8003c2e:	f001 fc87 	bl	8005540 <puts>
    if( Reg09h!=0x00 )
 8003c32:	f1b8 0f00 	cmp.w	r8, #0
 8003c36:	d062      	beq.n	8003cfe <IT6802HDMIInterruptHandler+0x58e>
        if( Reg09h&0x80 )
 8003c38:	f018 0f80 	tst.w	r8, #128	@ 0x80
 8003c3c:	d002      	beq.n	8003c44 <IT6802HDMIInterruptHandler+0x4d4>
            IT6802_DEBUG_INT_PRINTF(("#### H2V Buffer Skew Fail ####\n"));
 8003c3e:	4886      	ldr	r0, [pc, #536]	@ (8003e58 <IT6802HDMIInterruptHandler+0x6e8>)
 8003c40:	f001 fc7e 	bl	8005540 <puts>
        if( Reg09h&0x40 )
 8003c44:	f018 0f40 	tst.w	r8, #64	@ 0x40
 8003c48:	d00e      	beq.n	8003c68 <IT6802HDMIInterruptHandler+0x4f8>
            if(HdmiI2cAddr==IT6802A0_HDMI_ADDR)
 8003c4a:	4b7a      	ldr	r3, [pc, #488]	@ (8003e34 <IT6802HDMIInterruptHandler+0x6c4>)
                hdmirxwr(0x09, 0x40);
 8003c4c:	2009      	movs	r0, #9
            if(HdmiI2cAddr==IT6802A0_HDMI_ADDR)
 8003c4e:	781b      	ldrb	r3, [r3, #0]
 8003c50:	2b94      	cmp	r3, #148	@ 0x94
                hdmirxwr(0x09, 0x20); //bug ~ need to update by Andrew
 8003c52:	bf0c      	ite	eq
 8003c54:	2120      	moveq	r1, #32
                hdmirxwr(0x09, 0x40);
 8003c56:	2140      	movne	r1, #64	@ 0x40
 8003c58:	f7fc fcd0 	bl	80005fc <hdmirxwr>
            IT6802_DEBUG_INT_PRINTF(("#### Port 1 Deskew Error ####\n"));
 8003c5c:	487f      	ldr	r0, [pc, #508]	@ (8003e5c <IT6802HDMIInterruptHandler+0x6ec>)
 8003c5e:	f001 fc6f 	bl	8005540 <puts>
            hdmirx_INT_P1_Deskew(it6802);
 8003c62:	4620      	mov	r0, r4
 8003c64:	f7fe f988 	bl	8001f78 <hdmirx_INT_P1_Deskew>
        if( Reg09h&0x20 ) {
 8003c68:	f018 0f20 	tst.w	r8, #32
 8003c6c:	d009      	beq.n	8003c82 <IT6802HDMIInterruptHandler+0x512>
            hdmirxwr(0x09, 0x20);
 8003c6e:	2120      	movs	r1, #32
 8003c70:	2009      	movs	r0, #9
 8003c72:	f7fc fcc3 	bl	80005fc <hdmirxwr>
            IT6802_DEBUG_INT_PRINTF(("#### Port 0 Deskew Error ####\n"));
 8003c76:	487a      	ldr	r0, [pc, #488]	@ (8003e60 <IT6802HDMIInterruptHandler+0x6f0>)
 8003c78:	f001 fc62 	bl	8005540 <puts>
            hdmirx_INT_P0_Deskew(it6802);
 8003c7c:	4620      	mov	r0, r4
 8003c7e:	f7fe f95d 	bl	8001f3c <hdmirx_INT_P0_Deskew>
        if( Reg09h&0x10 ) {
 8003c82:	f018 0f10 	tst.w	r8, #16
 8003c86:	d002      	beq.n	8003c8e <IT6802HDMIInterruptHandler+0x51e>
            IT6802_DEBUG_INT_PRINTF(("#### New Audio Packet Received ####\n"));
 8003c88:	4876      	ldr	r0, [pc, #472]	@ (8003e64 <IT6802HDMIInterruptHandler+0x6f4>)
 8003c8a:	f001 fc59 	bl	8005540 <puts>
        if( Reg09h&0x08 ) {
 8003c8e:	f018 0f08 	tst.w	r8, #8
 8003c92:	d002      	beq.n	8003c9a <IT6802HDMIInterruptHandler+0x52a>
            IT6802_DEBUG_INT_PRINTF(("#### New ACP Packet Received ####\n"));
 8003c94:	4874      	ldr	r0, [pc, #464]	@ (8003e68 <IT6802HDMIInterruptHandler+0x6f8>)
 8003c96:	f001 fc53 	bl	8005540 <puts>
        if( Reg09h&0x04 ) {
 8003c9a:	f018 0f04 	tst.w	r8, #4
 8003c9e:	d002      	beq.n	8003ca6 <IT6802HDMIInterruptHandler+0x536>
            IT6802_DEBUG_INT_PRINTF(("#### New SPD Packet Received ####\n"));
 8003ca0:	4872      	ldr	r0, [pc, #456]	@ (8003e6c <IT6802HDMIInterruptHandler+0x6fc>)
 8003ca2:	f001 fc4d 	bl	8005540 <puts>
        if( Reg09h&0x02) {
 8003ca6:	f018 0f02 	tst.w	r8, #2
 8003caa:	d002      	beq.n	8003cb2 <IT6802HDMIInterruptHandler+0x542>
            IT6802_DEBUG_INT_PRINTF(("#### New MPEG InfoFrame Received ####\n"));
 8003cac:	4870      	ldr	r0, [pc, #448]	@ (8003e70 <IT6802HDMIInterruptHandler+0x700>)
 8003cae:	f001 fc47 	bl	8005540 <puts>
        if( Reg09h&0x01) {
 8003cb2:	f018 0f01 	tst.w	r8, #1
 8003cb6:	d022      	beq.n	8003cfe <IT6802HDMIInterruptHandler+0x58e>
            IT6802_DEBUG_INT_PRINTF(("#### New AVI InfoFrame Received ####\n"));
 8003cb8:	486e      	ldr	r0, [pc, #440]	@ (8003e74 <IT6802HDMIInterruptHandler+0x704>)
 8003cba:	f001 fc41 	bl	8005540 <puts>
            chgbank(2) ;
 8003cbe:	2002      	movs	r0, #2
 8003cc0:	f7fc fdfe 	bl	80008c0 <chgbank>
            AVIDB[0] = hdmirxrd(REG_RX_AVI_DB0) ;
 8003cc4:	2014      	movs	r0, #20
 8003cc6:	f7fc fc87 	bl	80005d8 <hdmirxrd>
 8003cca:	4606      	mov	r6, r0
            AVIDB[1] = hdmirxrd(REG_RX_AVI_DB1) ;
 8003ccc:	2015      	movs	r0, #21
 8003cce:	f7fc fc83 	bl	80005d8 <hdmirxrd>
 8003cd2:	4605      	mov	r5, r0
            chgbank(0) ;
 8003cd4:	2000      	movs	r0, #0
 8003cd6:	f7fc fdf3 	bl	80008c0 <chgbank>
            if( (AVIDB[0] != it6802->prevAVIDB[0])||
 8003cda:	f894 306b 	ldrb.w	r3, [r4, #107]	@ 0x6b
 8003cde:	42b3      	cmp	r3, r6
 8003ce0:	d103      	bne.n	8003cea <IT6802HDMIInterruptHandler+0x57a>
 8003ce2:	f894 306c 	ldrb.w	r3, [r4, #108]	@ 0x6c
 8003ce6:	42ab      	cmp	r3, r5
 8003ce8:	d005      	beq.n	8003cf6 <IT6802HDMIInterruptHandler+0x586>
                it6802->m_NewAVIInfoFrameF=TRUE;
 8003cea:	f894 30ab 	ldrb.w	r3, [r4, #171]	@ 0xab
 8003cee:	f043 0380 	orr.w	r3, r3, #128	@ 0x80
 8003cf2:	f884 30ab 	strb.w	r3, [r4, #171]	@ 0xab
            it6802->prevAVIDB[0] = AVIDB[0] ;
 8003cf6:	f884 606b 	strb.w	r6, [r4, #107]	@ 0x6b
            it6802->prevAVIDB[1] = AVIDB[1] ;
 8003cfa:	f884 506c 	strb.w	r5, [r4, #108]	@ 0x6c
    if( RegD0h!=0x00 )
 8003cfe:	2f00      	cmp	r7, #0
 8003d00:	f000 8091 	beq.w	8003e26 <IT6802HDMIInterruptHandler+0x6b6>
     if( RegD0h&0x10 )
 8003d04:	06f8      	lsls	r0, r7, #27
 8003d06:	d570      	bpl.n	8003dea <IT6802HDMIInterruptHandler+0x67a>
        hdmirxwr(0xD0, 0x30);
 8003d08:	2130      	movs	r1, #48	@ 0x30
 8003d0a:	20d0      	movs	r0, #208	@ 0xd0
 8003d0c:	f7fc fc76 	bl	80005fc <hdmirxwr>
         EQ_PORT0_PRINTF(("#### Port 0 EQ done interrupt ####\n"));
 8003d10:	4859      	ldr	r0, [pc, #356]	@ (8003e78 <IT6802HDMIInterruptHandler+0x708>)
 8003d12:	f001 fc15 	bl	8005540 <puts>
        AmpValidCheck(0);    //2013-0801
 8003d16:	2000      	movs	r0, #0
 8003d18:	f7fe fd72 	bl	8002800 <AmpValidCheck>
    HDMIStartEQDetect(&(it6802->EQPort[F_PORT_SEL_0]));
 8003d1c:	f104 003f 	add.w	r0, r4, #63	@ 0x3f
        RegD0h&=0x30;
 8003d20:	f007 0730 	and.w	r7, r7, #48	@ 0x30
    HDMIStartEQDetect(&(it6802->EQPort[F_PORT_SEL_0]));
 8003d24:	f7fe fd48 	bl	80027b8 <HDMIStartEQDetect>
    if( RegD0h&0x20)
 8003d28:	06ba      	lsls	r2, r7, #26
 8003d2a:	d56c      	bpl.n	8003e06 <IT6802HDMIInterruptHandler+0x696>
    hdmirxwr(0xD0, 0x20);
 8003d2c:	2120      	movs	r1, #32
 8003d2e:	20d0      	movs	r0, #208	@ 0xd0
 8003d30:	f7fc fc64 	bl	80005fc <hdmirxwr>
    EQ_PORT0_PRINTF(("#### Port 0 EQ Fail Interrupt ####\n"));
 8003d34:	4851      	ldr	r0, [pc, #324]	@ (8003e7c <IT6802HDMIInterruptHandler+0x70c>)
 8003d36:	f001 fc03 	bl	8005540 <puts>
    hdmirx_INT_EQ_FAIL(it6802,F_PORT_SEL_0);
 8003d3a:	2100      	movs	r1, #0
 8003d3c:	4620      	mov	r0, r4
 8003d3e:	f7fe fe4d 	bl	80029dc <hdmirx_INT_EQ_FAIL>
 8003d42:	e060      	b.n	8003e06 <IT6802HDMIInterruptHandler+0x696>
                    if((it6802->HDMIIntEvent & (B_PORT0_TMDSEvent)))
 8003d44:	079a      	lsls	r2, r3, #30
 8003d46:	f57f ad94 	bpl.w	8003872 <IT6802HDMIInterruptHandler+0x102>
                        it6802->HDMIIntEvent |= (B_PORT0_Waiting);
 8003d4a:	f043 0301 	orr.w	r3, r3, #1
 8003d4e:	f884 305c 	strb.w	r3, [r4, #92]	@ 0x5c
                        it6802->HDMIWaitNo[0] += MAX_HDCP_WAITNO;
 8003d52:	f894 305d 	ldrb.w	r3, [r4, #93]	@ 0x5d
 8003d56:	3301      	adds	r3, #1
 8003d58:	e589      	b.n	800386e <IT6802HDMIInterruptHandler+0xfe>
                if((it6802->HDMIIntEvent & (B_PORT1_TMDSEvent)))
 8003d5a:	0699      	lsls	r1, r3, #26
 8003d5c:	f57f ae35 	bpl.w	80039ca <IT6802HDMIInterruptHandler+0x25a>
                    it6802->HDMIIntEvent |= (B_PORT1_Waiting);
 8003d60:	f043 0310 	orr.w	r3, r3, #16
 8003d64:	f884 305c 	strb.w	r3, [r4, #92]	@ 0x5c
                    it6802->HDMIWaitNo[1] += MAX_HDCP_WAITNO;
 8003d68:	f894 305e 	ldrb.w	r3, [r4, #94]	@ 0x5e
 8003d6c:	3301      	adds	r3, #1
 8003d6e:	e62a      	b.n	80039c6 <IT6802HDMIInterruptHandler+0x256>
                if(( Reg06h&0x10 ) == 0)
 8003d70:	2e00      	cmp	r6, #0
 8003d72:	f47f ae78 	bne.w	8003a66 <IT6802HDMIInterruptHandler+0x2f6>
                    if((it6802->HDMIIntEvent & (B_PORT1_Waiting))==0)
 8003d76:	f894 305c 	ldrb.w	r3, [r4, #92]	@ 0x5c
 8003d7a:	06db      	lsls	r3, r3, #27
 8003d7c:	f53f ae7a 	bmi.w	8003a74 <IT6802HDMIInterruptHandler+0x304>
                        hdmirxwr(REG_RX_03A, 0x00);    // power down auto EQ
 8003d80:	4631      	mov	r1, r6
 8003d82:	203a      	movs	r0, #58	@ 0x3a
 8003d84:	f7fc fc3a 	bl	80005fc <hdmirxwr>
                        it6802->HDMIIntEvent |= (B_PORT1_TMDSEvent);
 8003d88:	f894 305c 	ldrb.w	r3, [r4, #92]	@ 0x5c
 8003d8c:	f043 0330 	orr.w	r3, r3, #48	@ 0x30
 8003d90:	f884 305c 	strb.w	r3, [r4, #92]	@ 0x5c
                        it6802->HDMIWaitNo[1]=MAX_TMDS_WAITNO;
 8003d94:	2303      	movs	r3, #3
 8003d96:	f884 305e 	strb.w	r3, [r4, #94]	@ 0x5e
 8003d9a:	e66b      	b.n	8003a74 <IT6802HDMIInterruptHandler+0x304>
                IT6802_DEBUG_INT_PRINTF(("#### Port 0 Bus Mode : HDMI ####\n"));
 8003d9c:	4838      	ldr	r0, [pc, #224]	@ (8003e80 <IT6802HDMIInterruptHandler+0x710>)
 8003d9e:	f001 fbcf 	bl	8005540 <puts>
                    if(HdmiI2cAddr==IT6802A0_HDMI_ADDR)
 8003da2:	782b      	ldrb	r3, [r5, #0]
 8003da4:	2b94      	cmp	r3, #148	@ 0x94
 8003da6:	f47f af15 	bne.w	8003bd4 <IT6802HDMIInterruptHandler+0x464>
                        chgbank(1);
 8003daa:	2001      	movs	r0, #1
 8003dac:	f7fc fd88 	bl	80008c0 <chgbank>
                        hdmirxset(REG_RX_1B6,0x07,0x03);
 8003db0:	2203      	movs	r2, #3
 8003db2:	2107      	movs	r1, #7
 8003db4:	20b6      	movs	r0, #182	@ 0xb6
 8003db6:	f7fc fc37 	bl	8000628 <hdmirxset>
                        hdmirxset(REG_RX_1B1,0x20,0x00);//Reg1b1[5] = 0 for disable over-write
 8003dba:	4632      	mov	r2, r6
 8003dbc:	2120      	movs	r1, #32
 8003dbe:	20b1      	movs	r0, #177	@ 0xb1
 8003dc0:	f7fc fc32 	bl	8000628 <hdmirxset>
                        hdmirxset(REG_RX_1B2,0x07,0x04);    // default 0x04 , change to 0x01
 8003dc4:	2204      	movs	r2, #4
 8003dc6:	2107      	movs	r1, #7
 8003dc8:	20b2      	movs	r0, #178	@ 0xb2
 8003dca:	f7fc fc2d 	bl	8000628 <hdmirxset>
                        EQ_PORT0_PRINTF((" Port 0 Bus Mode Reg1B1  = %X ,Reg1B2  = %X\n",(int) hdmirxrd(REG_RX_1B1),(int) hdmirxrd(REG_RX_1B2)));
 8003dce:	20b1      	movs	r0, #177	@ 0xb1
 8003dd0:	f7fc fc02 	bl	80005d8 <hdmirxrd>
 8003dd4:	4605      	mov	r5, r0
 8003dd6:	20b2      	movs	r0, #178	@ 0xb2
 8003dd8:	f7fc fbfe 	bl	80005d8 <hdmirxrd>
 8003ddc:	4629      	mov	r1, r5
 8003dde:	4602      	mov	r2, r0
 8003de0:	4816      	ldr	r0, [pc, #88]	@ (8003e3c <IT6802HDMIInterruptHandler+0x6cc>)
 8003de2:	f001 fb45 	bl	8005470 <iprintf>
                        chgbank(0);
 8003de6:	4630      	mov	r0, r6
 8003de8:	e6f2      	b.n	8003bd0 <IT6802HDMIInterruptHandler+0x460>
     if( RegD0h&0x40 )
 8003dea:	0679      	lsls	r1, r7, #25
 8003dec:	d59c      	bpl.n	8003d28 <IT6802HDMIInterruptHandler+0x5b8>
    hdmirxwr(0xD0, 0xC0);
 8003dee:	21c0      	movs	r1, #192	@ 0xc0
 8003df0:	20d0      	movs	r0, #208	@ 0xd0
 8003df2:	f7fc fc03 	bl	80005fc <hdmirxwr>
     EQ_PORT1_PRINTF(("#### Port 1 EQ done interrupt ####\n"));
 8003df6:	4823      	ldr	r0, [pc, #140]	@ (8003e84 <IT6802HDMIInterruptHandler+0x714>)
 8003df8:	f001 fba2 	bl	8005540 <puts>
    AmpValidCheck(1);    //2013-0801
 8003dfc:	2001      	movs	r0, #1
    RegD0h&=0xC0;
 8003dfe:	f007 07c0 	and.w	r7, r7, #192	@ 0xc0
    AmpValidCheck(1);    //2013-0801
 8003e02:	f7fe fcfd 	bl	8002800 <AmpValidCheck>
    if( RegD0h&0x80)
 8003e06:	063b      	lsls	r3, r7, #24
 8003e08:	d50d      	bpl.n	8003e26 <IT6802HDMIInterruptHandler+0x6b6>
    hdmirxwr(0xD0, 0x80);
 8003e0a:	2180      	movs	r1, #128	@ 0x80
 8003e0c:	20d0      	movs	r0, #208	@ 0xd0
 8003e0e:	f7fc fbf5 	bl	80005fc <hdmirxwr>
    EQ_PORT1_PRINTF(("#### Port 1 EQ Fail Interrupt ####\n"));
 8003e12:	481d      	ldr	r0, [pc, #116]	@ (8003e88 <IT6802HDMIInterruptHandler+0x718>)
 8003e14:	f001 fb94 	bl	8005540 <puts>
    hdmirx_INT_EQ_FAIL(it6802,F_PORT_SEL_1);
 8003e18:	2101      	movs	r1, #1
 8003e1a:	4620      	mov	r0, r4
}
 8003e1c:	b003      	add	sp, #12
 8003e1e:	e8bd 4ff0 	ldmia.w	sp!, {r4, r5, r6, r7, r8, r9, sl, fp, lr}
    hdmirx_INT_EQ_FAIL(it6802,F_PORT_SEL_1);
 8003e22:	f7fe bddb 	b.w	80029dc <hdmirx_INT_EQ_FAIL>
}
 8003e26:	b003      	add	sp, #12
 8003e28:	e8bd 8ff0 	ldmia.w	sp!, {r4, r5, r6, r7, r8, r9, sl, fp, pc}
 8003e2c:	08007af4 	.word	0x08007af4
 8003e30:	08007b17 	.word	0x08007b17
 8003e34:	200001cc 	.word	0x200001cc
 8003e38:	08007b34 	.word	0x08007b34
 8003e3c:	08007b54 	.word	0x08007b54
 8003e40:	08007ba2 	.word	0x08007ba2
 8003e44:	08007bc8 	.word	0x08007bc8
 8003e48:	08007bec 	.word	0x08007bec
 8003e4c:	08007c00 	.word	0x08007c00
 8003e50:	08007c1e 	.word	0x08007c1e
 8003e54:	08007c35 	.word	0x08007c35
 8003e58:	08007c4c 	.word	0x08007c4c
 8003e5c:	08007c6b 	.word	0x08007c6b
 8003e60:	08007c89 	.word	0x08007c89
 8003e64:	08007ca7 	.word	0x08007ca7
 8003e68:	08007ccb 	.word	0x08007ccb
 8003e6c:	08007ced 	.word	0x08007ced
 8003e70:	08007d0f 	.word	0x08007d0f
 8003e74:	08007d35 	.word	0x08007d35
 8003e78:	08007d5a 	.word	0x08007d5a
 8003e7c:	08007da0 	.word	0x08007da0
 8003e80:	08007b81 	.word	0x08007b81
 8003e84:	08007d7d 	.word	0x08007d7d
 8003e88:	08007dc3 	.word	0x08007dc3

08003e8c <IT6802_fsm>:
{
 8003e8c:	b510      	push	{r4, lr}
    IT6802HDMIInterruptHandler(it6802data);
 8003e8e:	4c0f      	ldr	r4, [pc, #60]	@ (8003ecc <IT6802_fsm+0x40>)
 8003e90:	4620      	mov	r0, r4
 8003e92:	f7ff fc6d 	bl	8003770 <IT6802HDMIInterruptHandler>
    IT6802VideoHandler(it6802data);
 8003e96:	4620      	mov	r0, r4
 8003e98:	f7ff f9dc 	bl	8003254 <IT6802VideoHandler>
    IT6802AudioHandler(it6802data);
 8003e9c:	4620      	mov	r0, r4
 8003e9e:	f7fd fee7 	bl	8001c70 <IT6802AudioHandler>
        if(it6802data->EQPort[F_PORT_SEL_0].f_manualEQadjust==TRUE)
 8003ea2:	f894 3045 	ldrb.w	r3, [r4, #69]	@ 0x45
 8003ea6:	2b01      	cmp	r3, #1
 8003ea8:	d103      	bne.n	8003eb2 <IT6802_fsm+0x26>
            HDMIAdjustEQ(&(it6802data->EQPort[F_PORT_SEL_0]));    // for port 0
 8003eaa:	f104 003f 	add.w	r0, r4, #63	@ 0x3f
 8003eae:	f7fe fc41 	bl	8002734 <HDMIAdjustEQ>
        if(it6802data->EQPort[F_PORT_SEL_1].f_manualEQadjust==TRUE)
 8003eb2:	f894 304f 	ldrb.w	r3, [r4, #79]	@ 0x4f
 8003eb6:	2b01      	cmp	r3, #1
 8003eb8:	d102      	bne.n	8003ec0 <IT6802_fsm+0x34>
            HDMIAdjustEQ(&(it6802data->EQPort[F_PORT_SEL_1]));    // for port 1
 8003eba:	4805      	ldr	r0, [pc, #20]	@ (8003ed0 <IT6802_fsm+0x44>)
 8003ebc:	f7fe fc3a 	bl	8002734 <HDMIAdjustEQ>
}
 8003ec0:	e8bd 4010 	ldmia.w	sp!, {r4, lr}
    IT6802HDMIEventManager(it6802data);
 8003ec4:	4801      	ldr	r0, [pc, #4]	@ (8003ecc <IT6802_fsm+0x40>)
 8003ec6:	f7fe be57 	b.w	8002b78 <IT6802HDMIEventManager>
 8003eca:	bf00      	nop
 8003ecc:	200003a8 	.word	0x200003a8
 8003ed0:	200003f1 	.word	0x200003f1

08003ed4 <InitMessage>:
//
//
////////////////////////////////////////////////////////

void InitMessage()
{
 8003ed4:	b508      	push	{r3, lr}
#ifdef Debug_message
    init_printf();
 8003ed6:	f7fc fb5f 	bl	8000598 <init_printf>
    printf("!!!!!!!!!!!!!!!!!!!!!!!!!!!!!!!!!!!!!!!!!!!!!!!!!!!!\n");
 8003eda:	4807      	ldr	r0, [pc, #28]	@ (8003ef8 <InitMessage+0x24>)
 8003edc:	f001 fb30 	bl	8005540 <puts>
    printf("           %s\n",VERSION_STRING);
 8003ee0:	4906      	ldr	r1, [pc, #24]	@ (8003efc <InitMessage+0x28>)
 8003ee2:	4807      	ldr	r0, [pc, #28]	@ (8003f00 <InitMessage+0x2c>)
 8003ee4:	f001 fac4 	bl	8005470 <iprintf>
#if defined(_IT6802_)
    printf("           IT6802\n");
 8003ee8:	4806      	ldr	r0, [pc, #24]	@ (8003f04 <InitMessage+0x30>)
 8003eea:	f001 fb29 	bl	8005540 <puts>
#else
    printf("           IT6801\n");
#endif
    printf("!!!!!!!!!!!!!!!!!!!!!!!!!!!!!!!!!!!!!!!!!!!!!!!!!!!!\n\n");
#endif
}
 8003eee:	e8bd 4008 	ldmia.w	sp!, {r3, lr}
    printf("!!!!!!!!!!!!!!!!!!!!!!!!!!!!!!!!!!!!!!!!!!!!!!!!!!!!\n\n");
 8003ef2:	4805      	ldr	r0, [pc, #20]	@ (8003f08 <InitMessage+0x34>)
 8003ef4:	f001 bb24 	b.w	8005540 <puts>
 8003ef8:	08008080 	.word	0x08008080
 8003efc:	080080b5 	.word	0x080080b5
 8003f00:	080080c6 	.word	0x080080c6
 8003f04:	080080d5 	.word	0x080080d5
 8003f08:	080080e7 	.word	0x080080e7

08003f0c <it68013CX_main>:
//
////////////////////////////////////////////////////////
// extern void Reset_ITE(void);

void it68013CX_main( void )
{
 8003f0c:	b538      	push	{r3, r4, r5, lr}
    static BYTE it68013CX_initialized = 0; //yjh2026
    static USHORT loopinterval = 0; //yjh2026
    //yjh2026 - init once, removed while(1) for non-blocking
    if(!it68013CX_initialized)
 8003f0e:	4c14      	ldr	r4, [pc, #80]	@ (8003f60 <it68013CX_main+0x54>)
 8003f10:	7825      	ldrb	r5, [r4, #0]
 8003f12:	b9a5      	cbnz	r5, 8003f3e <it68013CX_main+0x32>
        #ifdef Enable_IR
            initial_INT1();
            initialTimer0();
        #endif

        initialTimer1();
 8003f14:	f7fc fb41 	bl	800059a <initialTimer1>
        InitMessage();
 8003f18:	f7ff ffdc 	bl	8003ed4 <InitMessage>

        it6802HPDCtrl(1,0);    // HDMI port , set HPD = 0
 8003f1c:	4629      	mov	r1, r5
 8003f1e:	2001      	movs	r0, #1
 8003f20:	f7fd fd84 	bl	8001a2c <it6802HPDCtrl>

        delay1ms(1000);    //for power sequence
 8003f24:	f44f 707a 	mov.w	r0, #1000	@ 0x3e8
 8003f28:	f7fc fb44 	bl	80005b4 <delay1ms>
        IT6802_fsm_init();
 8003f2c:	f7ff f974 	bl	8003218 <IT6802_fsm_init>

        it6802HPDCtrl(1,1);    // HDMI port , set HPD = 1
 8003f30:	2101      	movs	r1, #1
 8003f32:	4608      	mov	r0, r1
 8003f34:	f7fd fd7a 	bl	8001a2c <it6802HPDCtrl>

        it68013CX_initialized = 1;
 8003f38:	2301      	movs	r3, #1
 8003f3a:	7023      	strb	r3, [r4, #0]
    if( loopinterval >=MS_LOOP) //execute once each 50m second
    {
        loopinterval =0;
        IT6802_fsm();
    }
}
 8003f3c:	bd38      	pop	{r3, r4, r5, pc}
    loopinterval += getloopTicCount();
 8003f3e:	f7fc fb2d 	bl	800059c <getloopTicCount>
 8003f42:	4b08      	ldr	r3, [pc, #32]	@ (8003f64 <it68013CX_main+0x58>)
 8003f44:	881a      	ldrh	r2, [r3, #0]
 8003f46:	4410      	add	r0, r2
 8003f48:	b280      	uxth	r0, r0
    if( loopinterval >=MS_LOOP) //execute once each 50m second
 8003f4a:	2863      	cmp	r0, #99	@ 0x63
 8003f4c:	d801      	bhi.n	8003f52 <it68013CX_main+0x46>
    loopinterval += getloopTicCount();
 8003f4e:	8018      	strh	r0, [r3, #0]
 8003f50:	e7f4      	b.n	8003f3c <it68013CX_main+0x30>
        loopinterval =0;
 8003f52:	2200      	movs	r2, #0
 8003f54:	801a      	strh	r2, [r3, #0]
}
 8003f56:	e8bd 4038 	ldmia.w	sp!, {r3, r4, r5, lr}
        IT6802_fsm();
 8003f5a:	f7ff bf97 	b.w	8003e8c <IT6802_fsm>
 8003f5e:	bf00      	nop
 8003f60:	2000045a 	.word	0x2000045a
 8003f64:	20000458 	.word	0x20000458

08003f68 <Reset_Handler>:
  .weak Reset_Handler
  .type Reset_Handler, %function
Reset_Handler:

/* Call the clock system initialization function.*/
    bl  SystemInit
 8003f68:	f7fc fad8 	bl	800051c <SystemInit>

/* Copy the data segment initializers from flash to SRAM */
  ldr r0, =_sdata
 8003f6c:	480b      	ldr	r0, [pc, #44]	@ (8003f9c <LoopFillZerobss+0xe>)
  ldr r1, =_edata
 8003f6e:	490c      	ldr	r1, [pc, #48]	@ (8003fa0 <LoopFillZerobss+0x12>)
  ldr r2, =_sidata
 8003f70:	4a0c      	ldr	r2, [pc, #48]	@ (8003fa4 <LoopFillZerobss+0x16>)
  movs r3, #0
 8003f72:	2300      	movs	r3, #0
  b LoopCopyDataInit
 8003f74:	e002      	b.n	8003f7c <LoopCopyDataInit>

08003f76 <CopyDataInit>:

CopyDataInit:
  ldr r4, [r2, r3]
 8003f76:	58d4      	ldr	r4, [r2, r3]
  str r4, [r0, r3]
 8003f78:	50c4      	str	r4, [r0, r3]
  adds r3, r3, #4
 8003f7a:	3304      	adds	r3, #4

08003f7c <LoopCopyDataInit>:

LoopCopyDataInit:
  adds r4, r0, r3
 8003f7c:	18c4      	adds	r4, r0, r3
  cmp r4, r1
 8003f7e:	428c      	cmp	r4, r1
  bcc CopyDataInit
 8003f80:	d3f9      	bcc.n	8003f76 <CopyDataInit>
  
/* Zero fill the bss segment. */
  ldr r2, =_sbss
 8003f82:	4a09      	ldr	r2, [pc, #36]	@ (8003fa8 <LoopFillZerobss+0x1a>)
  ldr r4, =_ebss
 8003f84:	4c09      	ldr	r4, [pc, #36]	@ (8003fac <LoopFillZerobss+0x1e>)
  movs r3, #0
 8003f86:	2300      	movs	r3, #0
  b LoopFillZerobss
 8003f88:	e001      	b.n	8003f8e <LoopFillZerobss>

08003f8a <FillZerobss>:

FillZerobss:
  str  r3, [r2]
 8003f8a:	6013      	str	r3, [r2, #0]
  adds r2, r2, #4
 8003f8c:	3204      	adds	r2, #4

08003f8e <LoopFillZerobss>:

LoopFillZerobss:
  cmp r2, r4
 8003f8e:	42a2      	cmp	r2, r4
  bcc FillZerobss
 8003f90:	d3fb      	bcc.n	8003f8a <FillZerobss>

/* Call static constructors */
    bl __libc_init_array
 8003f92:	f001 fc09 	bl	80057a8 <__libc_init_array>
/* Call the application's entry point.*/
  bl main
 8003f96:	f7fc f939 	bl	800020c <main>
  bx lr
 8003f9a:	4770      	bx	lr
  ldr r0, =_sdata
 8003f9c:	20000000 	.word	0x20000000
  ldr r1, =_edata
 8003fa0:	20000234 	.word	0x20000234
  ldr r2, =_sidata
 8003fa4:	08008368 	.word	0x08008368
  ldr r2, =_sbss
 8003fa8:	20000234 	.word	0x20000234
  ldr r4, =_ebss
 8003fac:	200005ac 	.word	0x200005ac

08003fb0 <ADC1_2_IRQHandler>:
 * @retval : None
*/
    .section .text.Default_Handler,"ax",%progbits
Default_Handler:
Infinite_Loop:
  b Infinite_Loop
 8003fb0:	e7fe      	b.n	8003fb0 <ADC1_2_IRQHandler>
	...

08003fb4 <HAL_InitTick>:
  *       implementation  in user file.
  * @param TickPriority Tick interrupt priority.
  * @retval HAL status
  */
__weak HAL_StatusTypeDef HAL_InitTick(uint32_t TickPriority)
{
 8003fb4:	b538      	push	{r3, r4, r5, lr}
  /* Configure the SysTick to have interrupt in 1ms time basis*/
  if (HAL_SYSTICK_Config(SystemCoreClock / (1000U / uwTickFreq)) > 0U)
 8003fb6:	4b0e      	ldr	r3, [pc, #56]	@ (8003ff0 <HAL_InitTick+0x3c>)
{
 8003fb8:	4605      	mov	r5, r0
  if (HAL_SYSTICK_Config(SystemCoreClock / (1000U / uwTickFreq)) > 0U)
 8003fba:	781a      	ldrb	r2, [r3, #0]
 8003fbc:	f44f 737a 	mov.w	r3, #1000	@ 0x3e8
 8003fc0:	fbb3 f3f2 	udiv	r3, r3, r2
 8003fc4:	4a0b      	ldr	r2, [pc, #44]	@ (8003ff4 <HAL_InitTick+0x40>)
 8003fc6:	6810      	ldr	r0, [r2, #0]
 8003fc8:	fbb0 f0f3 	udiv	r0, r0, r3
 8003fcc:	f000 f88e 	bl	80040ec <HAL_SYSTICK_Config>
 8003fd0:	4604      	mov	r4, r0
 8003fd2:	b958      	cbnz	r0, 8003fec <HAL_InitTick+0x38>
  {
    return HAL_ERROR;
  }

  /* Configure the SysTick IRQ priority */
  if (TickPriority < (1UL << __NVIC_PRIO_BITS))
 8003fd4:	2d0f      	cmp	r5, #15
 8003fd6:	d809      	bhi.n	8003fec <HAL_InitTick+0x38>
  {
    HAL_NVIC_SetPriority(SysTick_IRQn, TickPriority, 0U);
 8003fd8:	4602      	mov	r2, r0
 8003fda:	4629      	mov	r1, r5
 8003fdc:	f04f 30ff 	mov.w	r0, #4294967295
 8003fe0:	f000 f854 	bl	800408c <HAL_NVIC_SetPriority>
    uwTickPrio = TickPriority;
 8003fe4:	4620      	mov	r0, r4
 8003fe6:	4b04      	ldr	r3, [pc, #16]	@ (8003ff8 <HAL_InitTick+0x44>)
 8003fe8:	601d      	str	r5, [r3, #0]
    return HAL_ERROR;
  }

  /* Return function status */
  return HAL_OK;
}
 8003fea:	bd38      	pop	{r3, r4, r5, pc}
    return HAL_ERROR;
 8003fec:	2001      	movs	r0, #1
 8003fee:	e7fc      	b.n	8003fea <HAL_InitTick+0x36>
 8003ff0:	200001d0 	.word	0x200001d0
 8003ff4:	20000000 	.word	0x20000000
 8003ff8:	200001d4 	.word	0x200001d4

08003ffc <HAL_Init>:
  __HAL_FLASH_PREFETCH_BUFFER_ENABLE();
 8003ffc:	4a07      	ldr	r2, [pc, #28]	@ (800401c <HAL_Init+0x20>)
{
 8003ffe:	b508      	push	{r3, lr}
  __HAL_FLASH_PREFETCH_BUFFER_ENABLE();
 8004000:	6813      	ldr	r3, [r2, #0]
  HAL_NVIC_SetPriorityGrouping(NVIC_PRIORITYGROUP_4);
 8004002:	2003      	movs	r0, #3
  __HAL_FLASH_PREFETCH_BUFFER_ENABLE();
 8004004:	f043 0310 	orr.w	r3, r3, #16
 8004008:	6013      	str	r3, [r2, #0]
  HAL_NVIC_SetPriorityGrouping(NVIC_PRIORITYGROUP_4);
 800400a:	f000 f82d 	bl	8004068 <HAL_NVIC_SetPriorityGrouping>
  HAL_InitTick(TICK_INT_PRIORITY);
 800400e:	200f      	movs	r0, #15
 8004010:	f7ff ffd0 	bl	8003fb4 <HAL_InitTick>
  HAL_MspInit();
 8004014:	f7fc f992 	bl	800033c <HAL_MspInit>
}
 8004018:	2000      	movs	r0, #0
 800401a:	bd08      	pop	{r3, pc}
 800401c:	40022000 	.word	0x40022000

08004020 <HAL_IncTick>:
  *      implementations in user file.
  * @retval None
  */
__weak void HAL_IncTick(void)
{
  uwTick += uwTickFreq;
 8004020:	4a03      	ldr	r2, [pc, #12]	@ (8004030 <HAL_IncTick+0x10>)
 8004022:	4b04      	ldr	r3, [pc, #16]	@ (8004034 <HAL_IncTick+0x14>)
 8004024:	6811      	ldr	r1, [r2, #0]
 8004026:	781b      	ldrb	r3, [r3, #0]
 8004028:	440b      	add	r3, r1
 800402a:	6013      	str	r3, [r2, #0]
}
 800402c:	4770      	bx	lr
 800402e:	bf00      	nop
 8004030:	2000045c 	.word	0x2000045c
 8004034:	200001d0 	.word	0x200001d0

08004038 <HAL_GetTick>:
  *       implementations in user file.
  * @retval tick value
  */
__weak uint32_t HAL_GetTick(void)
{
  return uwTick;
 8004038:	4b01      	ldr	r3, [pc, #4]	@ (8004040 <HAL_GetTick+0x8>)
 800403a:	6818      	ldr	r0, [r3, #0]
}
 800403c:	4770      	bx	lr
 800403e:	bf00      	nop
 8004040:	2000045c 	.word	0x2000045c

08004044 <HAL_Delay>:
  *       implementations in user file.
  * @param Delay specifies the delay time length, in milliseconds.
  * @retval None
  */
__weak void HAL_Delay(uint32_t Delay)
{
 8004044:	b538      	push	{r3, r4, r5, lr}
 8004046:	4604      	mov	r4, r0
  uint32_t tickstart = HAL_GetTick();
 8004048:	f7ff fff6 	bl	8004038 <HAL_GetTick>
 800404c:	4605      	mov	r5, r0
  uint32_t wait = Delay;

  /* Add a freq to guarantee minimum wait */
  if (wait < HAL_MAX_DELAY)
 800404e:	1c63      	adds	r3, r4, #1
  {
    wait += (uint32_t)(uwTickFreq);
 8004050:	bf1e      	ittt	ne
 8004052:	4b04      	ldrne	r3, [pc, #16]	@ (8004064 <HAL_Delay+0x20>)
 8004054:	781b      	ldrbne	r3, [r3, #0]
 8004056:	18e4      	addne	r4, r4, r3
  }

  while ((HAL_GetTick() - tickstart) < wait)
 8004058:	f7ff ffee 	bl	8004038 <HAL_GetTick>
 800405c:	1b43      	subs	r3, r0, r5
 800405e:	42a3      	cmp	r3, r4
 8004060:	d3fa      	bcc.n	8004058 <HAL_Delay+0x14>
  {
  }
}
 8004062:	bd38      	pop	{r3, r4, r5, pc}
 8004064:	200001d0 	.word	0x200001d0

08004068 <HAL_NVIC_SetPriorityGrouping>:
__STATIC_INLINE void __NVIC_SetPriorityGrouping(uint32_t PriorityGroup)
{
  uint32_t reg_value;
  uint32_t PriorityGroupTmp = (PriorityGroup & (uint32_t)0x07UL);             /* only values 0..7 are used          */

  reg_value  =  SCB->AIRCR;                                                   /* read old register configuration    */
 8004068:	4907      	ldr	r1, [pc, #28]	@ (8004088 <HAL_NVIC_SetPriorityGrouping+0x20>)
  reg_value &= ~((uint32_t)(SCB_AIRCR_VECTKEY_Msk | SCB_AIRCR_PRIGROUP_Msk)); /* clear bits to change               */
  reg_value  =  (reg_value                                   |
                ((uint32_t)0x5FAUL << SCB_AIRCR_VECTKEY_Pos) |
                (PriorityGroupTmp << SCB_AIRCR_PRIGROUP_Pos) );               /* Insert write key and priority group */
 800406a:	0203      	lsls	r3, r0, #8
  reg_value  =  SCB->AIRCR;                                                   /* read old register configuration    */
 800406c:	68ca      	ldr	r2, [r1, #12]
                (PriorityGroupTmp << SCB_AIRCR_PRIGROUP_Pos) );               /* Insert write key and priority group */
 800406e:	f403 63e0 	and.w	r3, r3, #1792	@ 0x700
  reg_value &= ~((uint32_t)(SCB_AIRCR_VECTKEY_Msk | SCB_AIRCR_PRIGROUP_Msk)); /* clear bits to change               */
 8004072:	f422 62e0 	bic.w	r2, r2, #1792	@ 0x700
 8004076:	0412      	lsls	r2, r2, #16
 8004078:	0c12      	lsrs	r2, r2, #16
                ((uint32_t)0x5FAUL << SCB_AIRCR_VECTKEY_Pos) |
 800407a:	4313      	orrs	r3, r2
  reg_value  =  (reg_value                                   |
 800407c:	f043 63bf 	orr.w	r3, r3, #100139008	@ 0x5f80000
 8004080:	f443 3300 	orr.w	r3, r3, #131072	@ 0x20000
  SCB->AIRCR =  reg_value;
 8004084:	60cb      	str	r3, [r1, #12]
  /* Check the parameters */
  assert_param(IS_NVIC_PRIORITY_GROUP(PriorityGroup));
  
  /* Set the PRIGROUP[10:8] bits according to the PriorityGroup parameter value */
  NVIC_SetPriorityGrouping(PriorityGroup);
}
 8004086:	4770      	bx	lr
 8004088:	e000ed00 	.word	0xe000ed00

0800408c <HAL_NVIC_SetPriority>:
  \details Reads the priority grouping field from the NVIC Interrupt Controller.
  \return                Priority grouping field (SCB->AIRCR [10:8] PRIGROUP field).
 */
__STATIC_INLINE uint32_t __NVIC_GetPriorityGrouping(void)
{
  return ((uint32_t)((SCB->AIRCR & SCB_AIRCR_PRIGROUP_Msk) >> SCB_AIRCR_PRIGROUP_Pos));
 800408c:	4b15      	ldr	r3, [pc, #84]	@ (80040e4 <HAL_NVIC_SetPriority+0x58>)
  *         This parameter can be a value between 0 and 15
  *         A lower priority value indicates a higher priority.          
  * @retval None
  */
void HAL_NVIC_SetPriority(IRQn_Type IRQn, uint32_t PreemptPriority, uint32_t SubPriority)
{ 
 800408e:	b530      	push	{r4, r5, lr}
 8004090:	68dc      	ldr	r4, [r3, #12]
 8004092:	f3c4 2402 	ubfx	r4, r4, #8, #3
{
  uint32_t PriorityGroupTmp = (PriorityGroup & (uint32_t)0x07UL);   /* only values 0..7 are used          */
  uint32_t PreemptPriorityBits;
  uint32_t SubPriorityBits;

  PreemptPriorityBits = ((7UL - PriorityGroupTmp) > (uint32_t)(__NVIC_PRIO_BITS)) ? (uint32_t)(__NVIC_PRIO_BITS) : (uint32_t)(7UL - PriorityGroupTmp);
 8004096:	f1c4 0307 	rsb	r3, r4, #7
  SubPriorityBits     = ((PriorityGroupTmp + (uint32_t)(__NVIC_PRIO_BITS)) < (uint32_t)7UL) ? (uint32_t)0UL : (uint32_t)((PriorityGroupTmp - 7UL) + (uint32_t)(__NVIC_PRIO_BITS));
 800409a:	1d25      	adds	r5, r4, #4
  PreemptPriorityBits = ((7UL - PriorityGroupTmp) > (uint32_t)(__NVIC_PRIO_BITS)) ? (uint32_t)(__NVIC_PRIO_BITS) : (uint32_t)(7UL - PriorityGroupTmp);
 800409c:	2b04      	cmp	r3, #4
 800409e:	bf28      	it	cs
 80040a0:	2304      	movcs	r3, #4
  SubPriorityBits     = ((PriorityGroupTmp + (uint32_t)(__NVIC_PRIO_BITS)) < (uint32_t)7UL) ? (uint32_t)0UL : (uint32_t)((PriorityGroupTmp - 7UL) + (uint32_t)(__NVIC_PRIO_BITS));
 80040a2:	2d06      	cmp	r5, #6

  return (
           ((PreemptPriority & (uint32_t)((1UL << (PreemptPriorityBits)) - 1UL)) << SubPriorityBits) |
 80040a4:	f04f 35ff 	mov.w	r5, #4294967295
  SubPriorityBits     = ((PriorityGroupTmp + (uint32_t)(__NVIC_PRIO_BITS)) < (uint32_t)7UL) ? (uint32_t)0UL : (uint32_t)((PriorityGroupTmp - 7UL) + (uint32_t)(__NVIC_PRIO_BITS));
 80040a8:	bf94      	ite	ls
 80040aa:	2400      	movls	r4, #0
 80040ac:	3c03      	subhi	r4, #3
           ((PreemptPriority & (uint32_t)((1UL << (PreemptPriorityBits)) - 1UL)) << SubPriorityBits) |
 80040ae:	fa05 f303 	lsl.w	r3, r5, r3
 80040b2:	ea21 0303 	bic.w	r3, r1, r3
           ((SubPriority     & (uint32_t)((1UL << (SubPriorityBits    )) - 1UL)))
 80040b6:	40a5      	lsls	r5, r4
 80040b8:	ea22 0205 	bic.w	r2, r2, r5
           ((PreemptPriority & (uint32_t)((1UL << (PreemptPriorityBits)) - 1UL)) << SubPriorityBits) |
 80040bc:	40a3      	lsls	r3, r4
  if ((int32_t)(IRQn) >= 0)
 80040be:	2800      	cmp	r0, #0
           ((PreemptPriority & (uint32_t)((1UL << (PreemptPriorityBits)) - 1UL)) << SubPriorityBits) |
 80040c0:	ea43 0302 	orr.w	r3, r3, r2
    NVIC->IP[((uint32_t)IRQn)]               = (uint8_t)((priority << (8U - __NVIC_PRIO_BITS)) & (uint32_t)0xFFUL);
 80040c4:	bfac      	ite	ge
 80040c6:	f100 4060 	addge.w	r0, r0, #3758096384	@ 0xe0000000
    SCB->SHP[(((uint32_t)IRQn) & 0xFUL)-4UL] = (uint8_t)((priority << (8U - __NVIC_PRIO_BITS)) & (uint32_t)0xFFUL);
 80040ca:	4a07      	ldrlt	r2, [pc, #28]	@ (80040e8 <HAL_NVIC_SetPriority+0x5c>)
    NVIC->IP[((uint32_t)IRQn)]               = (uint8_t)((priority << (8U - __NVIC_PRIO_BITS)) & (uint32_t)0xFFUL);
 80040cc:	ea4f 1303 	mov.w	r3, r3, lsl #4
 80040d0:	b2db      	uxtb	r3, r3
 80040d2:	bfab      	itete	ge
 80040d4:	f500 4061 	addge.w	r0, r0, #57600	@ 0xe100
    SCB->SHP[(((uint32_t)IRQn) & 0xFUL)-4UL] = (uint8_t)((priority << (8U - __NVIC_PRIO_BITS)) & (uint32_t)0xFFUL);
 80040d8:	f000 000f 	andlt.w	r0, r0, #15
    NVIC->IP[((uint32_t)IRQn)]               = (uint8_t)((priority << (8U - __NVIC_PRIO_BITS)) & (uint32_t)0xFFUL);
 80040dc:	f880 3300 	strbge.w	r3, [r0, #768]	@ 0x300
    SCB->SHP[(((uint32_t)IRQn) & 0xFUL)-4UL] = (uint8_t)((priority << (8U - __NVIC_PRIO_BITS)) & (uint32_t)0xFFUL);
 80040e0:	5413      	strblt	r3, [r2, r0]
  assert_param(IS_NVIC_PREEMPTION_PRIORITY(PreemptPriority));
  
  prioritygroup = NVIC_GetPriorityGrouping();
  
  NVIC_SetPriority(IRQn, NVIC_EncodePriority(prioritygroup, PreemptPriority, SubPriority));
}
 80040e2:	bd30      	pop	{r4, r5, pc}
 80040e4:	e000ed00 	.word	0xe000ed00
 80040e8:	e000ed14 	.word	0xe000ed14

080040ec <HAL_SYSTICK_Config>:
           function <b>SysTick_Config</b> is not included. In this case, the file <b><i>device</i>.h</b>
           must contain a vendor-specific implementation of this function.
 */
__STATIC_INLINE uint32_t SysTick_Config(uint32_t ticks)
{
  if ((ticks - 1UL) > SysTick_LOAD_RELOAD_Msk)
 80040ec:	3801      	subs	r0, #1
 80040ee:	f1b0 7f80 	cmp.w	r0, #16777216	@ 0x1000000
 80040f2:	d20b      	bcs.n	800410c <HAL_SYSTICK_Config+0x20>
  {
    return (1UL);                                                   /* Reload value impossible */
  }

  SysTick->LOAD  = (uint32_t)(ticks - 1UL);                         /* set reload register */
 80040f4:	f04f 23e0 	mov.w	r3, #3758153728	@ 0xe000e000
    SCB->SHP[(((uint32_t)IRQn) & 0xFUL)-4UL] = (uint8_t)((priority << (8U - __NVIC_PRIO_BITS)) & (uint32_t)0xFFUL);
 80040f8:	21f0      	movs	r1, #240	@ 0xf0
 80040fa:	4a05      	ldr	r2, [pc, #20]	@ (8004110 <HAL_SYSTICK_Config+0x24>)
  SysTick->LOAD  = (uint32_t)(ticks - 1UL);                         /* set reload register */
 80040fc:	6158      	str	r0, [r3, #20]
    SCB->SHP[(((uint32_t)IRQn) & 0xFUL)-4UL] = (uint8_t)((priority << (8U - __NVIC_PRIO_BITS)) & (uint32_t)0xFFUL);
 80040fe:	f882 1023 	strb.w	r1, [r2, #35]	@ 0x23
  NVIC_SetPriority (SysTick_IRQn, (1UL << __NVIC_PRIO_BITS) - 1UL); /* set Priority for Systick Interrupt */
  SysTick->VAL   = 0UL;                                             /* Load the SysTick Counter Value */
 8004102:	2000      	movs	r0, #0
  SysTick->CTRL  = SysTick_CTRL_CLKSOURCE_Msk |
 8004104:	2207      	movs	r2, #7
  SysTick->VAL   = 0UL;                                             /* Load the SysTick Counter Value */
 8004106:	6198      	str	r0, [r3, #24]
  SysTick->CTRL  = SysTick_CTRL_CLKSOURCE_Msk |
 8004108:	611a      	str	r2, [r3, #16]
                   SysTick_CTRL_TICKINT_Msk   |
                   SysTick_CTRL_ENABLE_Msk;                         /* Enable SysTick IRQ and SysTick Timer */
  return (0UL);                                                     /* Function successful */
 800410a:	4770      	bx	lr
    return (1UL);                                                   /* Reload value impossible */
 800410c:	2001      	movs	r0, #1
  *                  - 1  Function failed.
  */
uint32_t HAL_SYSTICK_Config(uint32_t TicksNumb)
{
   return SysTick_Config(TicksNumb);
}
 800410e:	4770      	bx	lr
 8004110:	e000ed00 	.word	0xe000ed00

08004114 <HAL_GPIO_Init>:
  * @param  GPIO_Init: pointer to a GPIO_InitTypeDef structure that contains
  *         the configuration information for the specified GPIO peripheral.
  * @retval None
  */
void HAL_GPIO_Init(GPIO_TypeDef  *GPIOx, GPIO_InitTypeDef *GPIO_Init)
{
 8004114:	e92d 4ff7 	stmdb	sp!, {r0, r1, r2, r4, r5, r6, r7, r8, r9, sl, fp, lr}
  uint32_t position = 0x00u;
  uint32_t ioposition;
  uint32_t iocurrent;
  uint32_t temp;
  uint32_t config = 0x00u;
 8004118:	2400      	movs	r4, #0
       in order to address CRH or CRL register*/
      configregister = (iocurrent < GPIO_PIN_8) ? &GPIOx->CRL     : &GPIOx->CRH;
      registeroffset = (iocurrent < GPIO_PIN_8) ? (position << 2u) : ((position - 8u) << 2u);

      /* Apply the new configuration of the pin to the register */
      MODIFY_REG((*configregister), ((GPIO_CRL_MODE0 | GPIO_CRL_CNF0) << registeroffset), (config << registeroffset));
 800411a:	f04f 0e0f 	mov.w	lr, #15
  uint32_t position = 0x00u;
 800411e:	4626      	mov	r6, r4
      /*--------------------- EXTI Mode Configuration ------------------------*/
      /* Configure the External Interrupt or event for the current IO */
      if ((GPIO_Init->Mode & EXTI_MODE) == EXTI_MODE)
      {
        /* Enable AFIO Clock */
        __HAL_RCC_AFIO_CLK_ENABLE();
 8004120:	f8df c184 	ldr.w	ip, [pc, #388]	@ 80042a8 <HAL_GPIO_Init+0x194>
 8004124:	4b61      	ldr	r3, [pc, #388]	@ (80042ac <HAL_GPIO_Init+0x198>)
      configregister = (iocurrent < GPIO_PIN_8) ? &GPIOx->CRL     : &GPIOx->CRH;
 8004126:	f100 0804 	add.w	r8, r0, #4
  while (((GPIO_Init->Pin) >> position) != 0x00u)
 800412a:	680a      	ldr	r2, [r1, #0]
 800412c:	fa32 f506 	lsrs.w	r5, r2, r6
 8004130:	d102      	bne.n	8004138 <HAL_GPIO_Init+0x24>
      }
    }

	position++;
  }
}
 8004132:	b003      	add	sp, #12
 8004134:	e8bd 8ff0 	ldmia.w	sp!, {r4, r5, r6, r7, r8, r9, sl, fp, pc}
    ioposition = (0x01uL << position);
 8004138:	2501      	movs	r5, #1
 800413a:	fa05 f706 	lsl.w	r7, r5, r6
    iocurrent = (uint32_t)(GPIO_Init->Pin) & ioposition;
 800413e:	ea02 0507 	and.w	r5, r2, r7
    if (iocurrent == ioposition)
 8004142:	ea37 0202 	bics.w	r2, r7, r2
 8004146:	d176      	bne.n	8004236 <HAL_GPIO_Init+0x122>
      switch (GPIO_Init->Mode)
 8004148:	684a      	ldr	r2, [r1, #4]
 800414a:	2a03      	cmp	r2, #3
 800414c:	d807      	bhi.n	800415e <HAL_GPIO_Init+0x4a>
 800414e:	3a01      	subs	r2, #1
 8004150:	2a02      	cmp	r2, #2
 8004152:	f200 8083 	bhi.w	800425c <HAL_GPIO_Init+0x148>
 8004156:	e8df f002 	tbb	[pc, r2]
 800415a:	9691      	.short	0x9691
 800415c:	9c          	.byte	0x9c
 800415d:	00          	.byte	0x00
 800415e:	2a12      	cmp	r2, #18
 8004160:	f000 8094 	beq.w	800428c <HAL_GPIO_Init+0x178>
 8004164:	d869      	bhi.n	800423a <HAL_GPIO_Init+0x126>
 8004166:	2a11      	cmp	r2, #17
 8004168:	f000 808a 	beq.w	8004280 <HAL_GPIO_Init+0x16c>
      configregister = (iocurrent < GPIO_PIN_8) ? &GPIOx->CRL     : &GPIOx->CRH;
 800416c:	2dff      	cmp	r5, #255	@ 0xff
 800416e:	bf94      	ite	ls
 8004170:	4681      	movls	r9, r0
 8004172:	46c1      	movhi	r9, r8
      registeroffset = (iocurrent < GPIO_PIN_8) ? (position << 2u) : ((position - 8u) << 2u);
 8004174:	ea4f 0286 	mov.w	r2, r6, lsl #2
      MODIFY_REG((*configregister), ((GPIO_CRL_MODE0 | GPIO_CRL_CNF0) << registeroffset), (config << registeroffset));
 8004178:	f8d9 7000 	ldr.w	r7, [r9]
      registeroffset = (iocurrent < GPIO_PIN_8) ? (position << 2u) : ((position - 8u) << 2u);
 800417c:	bf88      	it	hi
 800417e:	3a20      	subhi	r2, #32
      MODIFY_REG((*configregister), ((GPIO_CRL_MODE0 | GPIO_CRL_CNF0) << registeroffset), (config << registeroffset));
 8004180:	fa0e fa02 	lsl.w	sl, lr, r2
 8004184:	ea27 070a 	bic.w	r7, r7, sl
 8004188:	fa04 f202 	lsl.w	r2, r4, r2
 800418c:	4317      	orrs	r7, r2
 800418e:	f8c9 7000 	str.w	r7, [r9]
      if ((GPIO_Init->Mode & EXTI_MODE) == EXTI_MODE)
 8004192:	f8d1 9004 	ldr.w	r9, [r1, #4]
 8004196:	f019 5f80 	tst.w	r9, #268435456	@ 0x10000000
 800419a:	d04c      	beq.n	8004236 <HAL_GPIO_Init+0x122>
        __HAL_RCC_AFIO_CLK_ENABLE();
 800419c:	f8dc 2018 	ldr.w	r2, [ip, #24]
 80041a0:	f026 0703 	bic.w	r7, r6, #3
 80041a4:	f042 0201 	orr.w	r2, r2, #1
 80041a8:	f8cc 2018 	str.w	r2, [ip, #24]
 80041ac:	f8dc 2018 	ldr.w	r2, [ip, #24]
 80041b0:	f107 4780 	add.w	r7, r7, #1073741824	@ 0x40000000
 80041b4:	f002 0201 	and.w	r2, r2, #1
 80041b8:	9201      	str	r2, [sp, #4]
 80041ba:	f507 3780 	add.w	r7, r7, #65536	@ 0x10000
        CLEAR_BIT(temp, (0x0Fu) << (4u * (position & 0x03u)));
 80041be:	f006 0a03 	and.w	sl, r6, #3
        __HAL_RCC_AFIO_CLK_ENABLE();
 80041c2:	9a01      	ldr	r2, [sp, #4]
        CLEAR_BIT(temp, (0x0Fu) << (4u * (position & 0x03u)));
 80041c4:	ea4f 0a8a 	mov.w	sl, sl, lsl #2
        temp = AFIO->EXTICR[position >> 2u];
 80041c8:	68ba      	ldr	r2, [r7, #8]
        CLEAR_BIT(temp, (0x0Fu) << (4u * (position & 0x03u)));
 80041ca:	fa0e fb0a 	lsl.w	fp, lr, sl
 80041ce:	ea22 0b0b 	bic.w	fp, r2, fp
        SET_BIT(temp, (GPIO_GET_INDEX(GPIOx)) << (4u * (position & 0x03u)));
 80041d2:	4a37      	ldr	r2, [pc, #220]	@ (80042b0 <HAL_GPIO_Init+0x19c>)
 80041d4:	4290      	cmp	r0, r2
 80041d6:	d060      	beq.n	800429a <HAL_GPIO_Init+0x186>
 80041d8:	f502 6280 	add.w	r2, r2, #1024	@ 0x400
 80041dc:	4290      	cmp	r0, r2
 80041de:	d05e      	beq.n	800429e <HAL_GPIO_Init+0x18a>
 80041e0:	f502 6280 	add.w	r2, r2, #1024	@ 0x400
 80041e4:	4290      	cmp	r0, r2
 80041e6:	d05c      	beq.n	80042a2 <HAL_GPIO_Init+0x18e>
 80041e8:	f502 6280 	add.w	r2, r2, #1024	@ 0x400
 80041ec:	4290      	cmp	r0, r2
 80041ee:	bf14      	ite	ne
 80041f0:	2204      	movne	r2, #4
 80041f2:	2203      	moveq	r2, #3
 80041f4:	fa02 f20a 	lsl.w	r2, r2, sl
 80041f8:	ea42 020b 	orr.w	r2, r2, fp
        AFIO->EXTICR[position >> 2u] = temp;
 80041fc:	60ba      	str	r2, [r7, #8]
          SET_BIT(EXTI->RTSR, iocurrent);
 80041fe:	689a      	ldr	r2, [r3, #8]
        if ((GPIO_Init->Mode & RISING_EDGE) == RISING_EDGE)
 8004200:	f419 1f80 	tst.w	r9, #1048576	@ 0x100000
          SET_BIT(EXTI->RTSR, iocurrent);
 8004204:	bf14      	ite	ne
 8004206:	432a      	orrne	r2, r5
          CLEAR_BIT(EXTI->RTSR, iocurrent);
 8004208:	43aa      	biceq	r2, r5
 800420a:	609a      	str	r2, [r3, #8]
          SET_BIT(EXTI->FTSR, iocurrent);
 800420c:	68da      	ldr	r2, [r3, #12]
        if ((GPIO_Init->Mode & FALLING_EDGE) == FALLING_EDGE)
 800420e:	f419 1f00 	tst.w	r9, #2097152	@ 0x200000
          SET_BIT(EXTI->FTSR, iocurrent);
 8004212:	bf14      	ite	ne
 8004214:	432a      	orrne	r2, r5
          CLEAR_BIT(EXTI->FTSR, iocurrent);
 8004216:	43aa      	biceq	r2, r5
 8004218:	60da      	str	r2, [r3, #12]
          SET_BIT(EXTI->EMR, iocurrent);
 800421a:	685a      	ldr	r2, [r3, #4]
        if ((GPIO_Init->Mode & GPIO_MODE_EVT) == GPIO_MODE_EVT)
 800421c:	f419 3f00 	tst.w	r9, #131072	@ 0x20000
          SET_BIT(EXTI->EMR, iocurrent);
 8004220:	bf14      	ite	ne
 8004222:	432a      	orrne	r2, r5
          CLEAR_BIT(EXTI->EMR, iocurrent);
 8004224:	43aa      	biceq	r2, r5
 8004226:	605a      	str	r2, [r3, #4]
          SET_BIT(EXTI->IMR, iocurrent);
 8004228:	681a      	ldr	r2, [r3, #0]
        if ((GPIO_Init->Mode & GPIO_MODE_IT) == GPIO_MODE_IT)
 800422a:	f419 3f80 	tst.w	r9, #65536	@ 0x10000
          SET_BIT(EXTI->IMR, iocurrent);
 800422e:	bf14      	ite	ne
 8004230:	432a      	orrne	r2, r5
          CLEAR_BIT(EXTI->IMR, iocurrent);
 8004232:	43aa      	biceq	r2, r5
 8004234:	601a      	str	r2, [r3, #0]
	position++;
 8004236:	3601      	adds	r6, #1
 8004238:	e777      	b.n	800412a <HAL_GPIO_Init+0x16>
      switch (GPIO_Init->Mode)
 800423a:	f8df 9078 	ldr.w	r9, [pc, #120]	@ 80042b4 <HAL_GPIO_Init+0x1a0>
 800423e:	454a      	cmp	r2, r9
 8004240:	d00c      	beq.n	800425c <HAL_GPIO_Init+0x148>
 8004242:	d814      	bhi.n	800426e <HAL_GPIO_Init+0x15a>
 8004244:	f5a9 1980 	sub.w	r9, r9, #1048576	@ 0x100000
 8004248:	454a      	cmp	r2, r9
 800424a:	d007      	beq.n	800425c <HAL_GPIO_Init+0x148>
 800424c:	f509 2970 	add.w	r9, r9, #983040	@ 0xf0000
 8004250:	454a      	cmp	r2, r9
 8004252:	d003      	beq.n	800425c <HAL_GPIO_Init+0x148>
 8004254:	f5a9 1980 	sub.w	r9, r9, #1048576	@ 0x100000
 8004258:	454a      	cmp	r2, r9
 800425a:	d187      	bne.n	800416c <HAL_GPIO_Init+0x58>
          if (GPIO_Init->Pull == GPIO_NOPULL)
 800425c:	688a      	ldr	r2, [r1, #8]
 800425e:	b1d2      	cbz	r2, 8004296 <HAL_GPIO_Init+0x182>
          else if (GPIO_Init->Pull == GPIO_PULLUP)
 8004260:	2a01      	cmp	r2, #1
            config = GPIO_CR_MODE_INPUT + GPIO_CR_CNF_INPUT_PU_PD;
 8004262:	f04f 0408 	mov.w	r4, #8
            GPIOx->BSRR = ioposition;
 8004266:	bf0c      	ite	eq
 8004268:	6107      	streq	r7, [r0, #16]
            GPIOx->BRR = ioposition;
 800426a:	6147      	strne	r7, [r0, #20]
 800426c:	e77e      	b.n	800416c <HAL_GPIO_Init+0x58>
      switch (GPIO_Init->Mode)
 800426e:	f8df 9048 	ldr.w	r9, [pc, #72]	@ 80042b8 <HAL_GPIO_Init+0x1a4>
 8004272:	454a      	cmp	r2, r9
 8004274:	d0f2      	beq.n	800425c <HAL_GPIO_Init+0x148>
 8004276:	f509 3980 	add.w	r9, r9, #65536	@ 0x10000
 800427a:	e7ed      	b.n	8004258 <HAL_GPIO_Init+0x144>
          config = GPIO_Init->Speed + GPIO_CR_CNF_GP_OUTPUT_PP;
 800427c:	68cc      	ldr	r4, [r1, #12]
          break;
 800427e:	e775      	b.n	800416c <HAL_GPIO_Init+0x58>
          config = GPIO_Init->Speed + GPIO_CR_CNF_GP_OUTPUT_OD;
 8004280:	68cc      	ldr	r4, [r1, #12]
 8004282:	3404      	adds	r4, #4
          break;
 8004284:	e772      	b.n	800416c <HAL_GPIO_Init+0x58>
          config = GPIO_Init->Speed + GPIO_CR_CNF_AF_OUTPUT_PP;
 8004286:	68cc      	ldr	r4, [r1, #12]
 8004288:	3408      	adds	r4, #8
          break;
 800428a:	e76f      	b.n	800416c <HAL_GPIO_Init+0x58>
          config = GPIO_Init->Speed + GPIO_CR_CNF_AF_OUTPUT_OD;
 800428c:	68cc      	ldr	r4, [r1, #12]
 800428e:	340c      	adds	r4, #12
          break;
 8004290:	e76c      	b.n	800416c <HAL_GPIO_Init+0x58>
      switch (GPIO_Init->Mode)
 8004292:	2400      	movs	r4, #0
 8004294:	e76a      	b.n	800416c <HAL_GPIO_Init+0x58>
            config = GPIO_CR_MODE_INPUT + GPIO_CR_CNF_INPUT_FLOATING;
 8004296:	2404      	movs	r4, #4
 8004298:	e768      	b.n	800416c <HAL_GPIO_Init+0x58>
        SET_BIT(temp, (GPIO_GET_INDEX(GPIOx)) << (4u * (position & 0x03u)));
 800429a:	2200      	movs	r2, #0
 800429c:	e7aa      	b.n	80041f4 <HAL_GPIO_Init+0xe0>
 800429e:	2201      	movs	r2, #1
 80042a0:	e7a8      	b.n	80041f4 <HAL_GPIO_Init+0xe0>
 80042a2:	2202      	movs	r2, #2
 80042a4:	e7a6      	b.n	80041f4 <HAL_GPIO_Init+0xe0>
 80042a6:	bf00      	nop
 80042a8:	40021000 	.word	0x40021000
 80042ac:	40010400 	.word	0x40010400
 80042b0:	40010800 	.word	0x40010800
 80042b4:	10220000 	.word	0x10220000
 80042b8:	10310000 	.word	0x10310000

080042bc <HAL_GPIO_WritePin>:
{
  /* Check the parameters */
  assert_param(IS_GPIO_PIN(GPIO_Pin));
  assert_param(IS_GPIO_PIN_ACTION(PinState));

  if (PinState != GPIO_PIN_RESET)
 80042bc:	b10a      	cbz	r2, 80042c2 <HAL_GPIO_WritePin+0x6>
  {
    GPIOx->BSRR = GPIO_Pin;
  }
  else
  {
    GPIOx->BSRR = (uint32_t)GPIO_Pin << 16u;
 80042be:	6101      	str	r1, [r0, #16]
  }
}
 80042c0:	4770      	bx	lr
    GPIOx->BSRR = (uint32_t)GPIO_Pin << 16u;
 80042c2:	0409      	lsls	r1, r1, #16
 80042c4:	e7fb      	b.n	80042be <HAL_GPIO_WritePin+0x2>

080042c6 <I2C_IsAcknowledgeFailed>:
  *                the configuration information for the specified I2C.
  * @retval HAL status
  */
static HAL_StatusTypeDef I2C_IsAcknowledgeFailed(I2C_HandleTypeDef *hi2c)
{
  if (__HAL_I2C_GET_FLAG(hi2c, I2C_FLAG_AF) == SET)
 80042c6:	6801      	ldr	r1, [r0, #0]
 80042c8:	2200      	movs	r2, #0
 80042ca:	694b      	ldr	r3, [r1, #20]
 80042cc:	f413 6380 	ands.w	r3, r3, #1024	@ 0x400
 80042d0:	d010      	beq.n	80042f4 <I2C_IsAcknowledgeFailed+0x2e>
  {
    /* Clear NACKF Flag */
    __HAL_I2C_CLEAR_FLAG(hi2c, I2C_FLAG_AF);
 80042d2:	f46f 6380 	mvn.w	r3, #1024	@ 0x400
 80042d6:	614b      	str	r3, [r1, #20]

    hi2c->PreviousState       = I2C_STATE_NONE;
    hi2c->State               = HAL_I2C_STATE_READY;
 80042d8:	2320      	movs	r3, #32
    hi2c->PreviousState       = I2C_STATE_NONE;
 80042da:	6302      	str	r2, [r0, #48]	@ 0x30
    hi2c->State               = HAL_I2C_STATE_READY;
 80042dc:	f880 303d 	strb.w	r3, [r0, #61]	@ 0x3d
    hi2c->Mode                = HAL_I2C_MODE_NONE;
 80042e0:	f880 203e 	strb.w	r2, [r0, #62]	@ 0x3e
    hi2c->ErrorCode           |= HAL_I2C_ERROR_AF;
 80042e4:	6c03      	ldr	r3, [r0, #64]	@ 0x40

    /* Process Unlocked */
    __HAL_UNLOCK(hi2c);
 80042e6:	f880 203c 	strb.w	r2, [r0, #60]	@ 0x3c
    hi2c->ErrorCode           |= HAL_I2C_ERROR_AF;
 80042ea:	f043 0304 	orr.w	r3, r3, #4
 80042ee:	6403      	str	r3, [r0, #64]	@ 0x40

    return HAL_ERROR;
 80042f0:	2001      	movs	r0, #1
 80042f2:	4770      	bx	lr
  }
  return HAL_OK;
 80042f4:	4618      	mov	r0, r3
}
 80042f6:	4770      	bx	lr

080042f8 <I2C_WaitOnFlagUntilTimeout>:
{
 80042f8:	e92d 46f8 	stmdb	sp!, {r3, r4, r5, r6, r7, r9, sl, lr}
 80042fc:	4606      	mov	r6, r0
 80042fe:	460f      	mov	r7, r1
 8004300:	4691      	mov	r9, r2
 8004302:	461d      	mov	r5, r3
  while (__HAL_I2C_GET_FLAG(hi2c, Flag) == Status)
 8004304:	ea4f 4a11 	mov.w	sl, r1, lsr #16
 8004308:	6833      	ldr	r3, [r6, #0]
 800430a:	f1ba 0f01 	cmp.w	sl, #1
 800430e:	bf0c      	ite	eq
 8004310:	695c      	ldreq	r4, [r3, #20]
 8004312:	699c      	ldrne	r4, [r3, #24]
 8004314:	ea27 0404 	bic.w	r4, r7, r4
 8004318:	b2a4      	uxth	r4, r4
 800431a:	fab4 f484 	clz	r4, r4
 800431e:	0964      	lsrs	r4, r4, #5
 8004320:	45a1      	cmp	r9, r4
 8004322:	d001      	beq.n	8004328 <I2C_WaitOnFlagUntilTimeout+0x30>
  return HAL_OK;
 8004324:	2000      	movs	r0, #0
 8004326:	e025      	b.n	8004374 <I2C_WaitOnFlagUntilTimeout+0x7c>
    if (Timeout != HAL_MAX_DELAY)
 8004328:	1c6a      	adds	r2, r5, #1
 800432a:	d0ee      	beq.n	800430a <I2C_WaitOnFlagUntilTimeout+0x12>
      if (((HAL_GetTick() - Tickstart) > Timeout) || (Timeout == 0U))
 800432c:	f7ff fe84 	bl	8004038 <HAL_GetTick>
 8004330:	9b08      	ldr	r3, [sp, #32]
 8004332:	1ac0      	subs	r0, r0, r3
 8004334:	42a8      	cmp	r0, r5
 8004336:	d801      	bhi.n	800433c <I2C_WaitOnFlagUntilTimeout+0x44>
 8004338:	2d00      	cmp	r5, #0
 800433a:	d1e5      	bne.n	8004308 <I2C_WaitOnFlagUntilTimeout+0x10>
        if ((__HAL_I2C_GET_FLAG(hi2c, Flag) == Status))
 800433c:	6833      	ldr	r3, [r6, #0]
 800433e:	f1ba 0f01 	cmp.w	sl, #1
 8004342:	bf0c      	ite	eq
 8004344:	695b      	ldreq	r3, [r3, #20]
 8004346:	699b      	ldrne	r3, [r3, #24]
 8004348:	ea27 0303 	bic.w	r3, r7, r3
 800434c:	b29b      	uxth	r3, r3
 800434e:	fab3 f383 	clz	r3, r3
 8004352:	095b      	lsrs	r3, r3, #5
 8004354:	4599      	cmp	r9, r3
 8004356:	d1d7      	bne.n	8004308 <I2C_WaitOnFlagUntilTimeout+0x10>
          hi2c->PreviousState     = I2C_STATE_NONE;
 8004358:	2300      	movs	r3, #0
          hi2c->State             = HAL_I2C_STATE_READY;
 800435a:	2220      	movs	r2, #32
          return HAL_ERROR;
 800435c:	2001      	movs	r0, #1
          hi2c->PreviousState     = I2C_STATE_NONE;
 800435e:	6333      	str	r3, [r6, #48]	@ 0x30
          hi2c->State             = HAL_I2C_STATE_READY;
 8004360:	f886 203d 	strb.w	r2, [r6, #61]	@ 0x3d
          hi2c->Mode              = HAL_I2C_MODE_NONE;
 8004364:	f886 303e 	strb.w	r3, [r6, #62]	@ 0x3e
          hi2c->ErrorCode         |= HAL_I2C_ERROR_TIMEOUT;
 8004368:	6c32      	ldr	r2, [r6, #64]	@ 0x40
          __HAL_UNLOCK(hi2c);
 800436a:	f886 303c 	strb.w	r3, [r6, #60]	@ 0x3c
          hi2c->ErrorCode         |= HAL_I2C_ERROR_TIMEOUT;
 800436e:	f042 0220 	orr.w	r2, r2, #32
 8004372:	6432      	str	r2, [r6, #64]	@ 0x40
}
 8004374:	e8bd 86f8 	ldmia.w	sp!, {r3, r4, r5, r6, r7, r9, sl, pc}

08004378 <I2C_WaitOnMasterAddressFlagUntilTimeout>:
{
 8004378:	e92d 41f0 	stmdb	sp!, {r4, r5, r6, r7, r8, lr}
 800437c:	4604      	mov	r4, r0
 800437e:	460f      	mov	r7, r1
 8004380:	4616      	mov	r6, r2
 8004382:	4698      	mov	r8, r3
  while (__HAL_I2C_GET_FLAG(hi2c, Flag) == RESET)
 8004384:	6825      	ldr	r5, [r4, #0]
 8004386:	6968      	ldr	r0, [r5, #20]
 8004388:	ea27 0000 	bic.w	r0, r7, r0
 800438c:	b280      	uxth	r0, r0
 800438e:	b1c0      	cbz	r0, 80043c2 <I2C_WaitOnMasterAddressFlagUntilTimeout+0x4a>
    if (__HAL_I2C_GET_FLAG(hi2c, I2C_FLAG_AF) == SET)
 8004390:	696b      	ldr	r3, [r5, #20]
 8004392:	055a      	lsls	r2, r3, #21
 8004394:	d517      	bpl.n	80043c6 <I2C_WaitOnMasterAddressFlagUntilTimeout+0x4e>
      SET_BIT(hi2c->Instance->CR1, I2C_CR1_STOP);
 8004396:	682b      	ldr	r3, [r5, #0]
      hi2c->State               = HAL_I2C_STATE_READY;
 8004398:	2220      	movs	r2, #32
      SET_BIT(hi2c->Instance->CR1, I2C_CR1_STOP);
 800439a:	f443 7300 	orr.w	r3, r3, #512	@ 0x200
 800439e:	602b      	str	r3, [r5, #0]
      __HAL_I2C_CLEAR_FLAG(hi2c, I2C_FLAG_AF);
 80043a0:	f46f 6380 	mvn.w	r3, #1024	@ 0x400
 80043a4:	616b      	str	r3, [r5, #20]
      hi2c->PreviousState       = I2C_STATE_NONE;
 80043a6:	2300      	movs	r3, #0
 80043a8:	6323      	str	r3, [r4, #48]	@ 0x30
      hi2c->State               = HAL_I2C_STATE_READY;
 80043aa:	f884 203d 	strb.w	r2, [r4, #61]	@ 0x3d
      hi2c->Mode                = HAL_I2C_MODE_NONE;
 80043ae:	f884 303e 	strb.w	r3, [r4, #62]	@ 0x3e
      hi2c->ErrorCode           |= HAL_I2C_ERROR_AF;
 80043b2:	6c23      	ldr	r3, [r4, #64]	@ 0x40
 80043b4:	f043 0304 	orr.w	r3, r3, #4
          hi2c->ErrorCode           |= HAL_I2C_ERROR_TIMEOUT;
 80043b8:	6423      	str	r3, [r4, #64]	@ 0x40
          __HAL_UNLOCK(hi2c);
 80043ba:	2300      	movs	r3, #0
      return HAL_ERROR;
 80043bc:	2001      	movs	r0, #1
          __HAL_UNLOCK(hi2c);
 80043be:	f884 303c 	strb.w	r3, [r4, #60]	@ 0x3c
}
 80043c2:	e8bd 81f0 	ldmia.w	sp!, {r4, r5, r6, r7, r8, pc}
    if (Timeout != HAL_MAX_DELAY)
 80043c6:	1c73      	adds	r3, r6, #1
 80043c8:	d0dd      	beq.n	8004386 <I2C_WaitOnMasterAddressFlagUntilTimeout+0xe>
      if (((HAL_GetTick() - Tickstart) > Timeout) || (Timeout == 0U))
 80043ca:	f7ff fe35 	bl	8004038 <HAL_GetTick>
 80043ce:	eba0 0008 	sub.w	r0, r0, r8
 80043d2:	42b0      	cmp	r0, r6
 80043d4:	d801      	bhi.n	80043da <I2C_WaitOnMasterAddressFlagUntilTimeout+0x62>
 80043d6:	2e00      	cmp	r6, #0
 80043d8:	d1d4      	bne.n	8004384 <I2C_WaitOnMasterAddressFlagUntilTimeout+0xc>
        if ((__HAL_I2C_GET_FLAG(hi2c, Flag) == RESET))
 80043da:	6823      	ldr	r3, [r4, #0]
 80043dc:	695a      	ldr	r2, [r3, #20]
 80043de:	ea27 0202 	bic.w	r2, r7, r2
 80043e2:	b292      	uxth	r2, r2
 80043e4:	2a00      	cmp	r2, #0
 80043e6:	d0cd      	beq.n	8004384 <I2C_WaitOnMasterAddressFlagUntilTimeout+0xc>
          hi2c->PreviousState       = I2C_STATE_NONE;
 80043e8:	2300      	movs	r3, #0
          hi2c->State               = HAL_I2C_STATE_READY;
 80043ea:	2220      	movs	r2, #32
          hi2c->PreviousState       = I2C_STATE_NONE;
 80043ec:	6323      	str	r3, [r4, #48]	@ 0x30
          hi2c->State               = HAL_I2C_STATE_READY;
 80043ee:	f884 203d 	strb.w	r2, [r4, #61]	@ 0x3d
          hi2c->Mode                = HAL_I2C_MODE_NONE;
 80043f2:	f884 303e 	strb.w	r3, [r4, #62]	@ 0x3e
          hi2c->ErrorCode           |= HAL_I2C_ERROR_TIMEOUT;
 80043f6:	6c23      	ldr	r3, [r4, #64]	@ 0x40
 80043f8:	4313      	orrs	r3, r2
 80043fa:	e7dd      	b.n	80043b8 <I2C_WaitOnMasterAddressFlagUntilTimeout+0x40>

080043fc <I2C_WaitOnTXEFlagUntilTimeout>:
{
 80043fc:	b570      	push	{r4, r5, r6, lr}
 80043fe:	4604      	mov	r4, r0
 8004400:	460d      	mov	r5, r1
 8004402:	4616      	mov	r6, r2
  while (__HAL_I2C_GET_FLAG(hi2c, I2C_FLAG_TXE) == RESET)
 8004404:	6823      	ldr	r3, [r4, #0]
 8004406:	695b      	ldr	r3, [r3, #20]
 8004408:	061b      	lsls	r3, r3, #24
 800440a:	d501      	bpl.n	8004410 <I2C_WaitOnTXEFlagUntilTimeout+0x14>
  return HAL_OK;
 800440c:	2000      	movs	r0, #0
 800440e:	e01e      	b.n	800444e <I2C_WaitOnTXEFlagUntilTimeout+0x52>
    if (I2C_IsAcknowledgeFailed(hi2c) != HAL_OK)
 8004410:	4620      	mov	r0, r4
 8004412:	f7ff ff58 	bl	80042c6 <I2C_IsAcknowledgeFailed>
 8004416:	b9c8      	cbnz	r0, 800444c <I2C_WaitOnTXEFlagUntilTimeout+0x50>
    if (Timeout != HAL_MAX_DELAY)
 8004418:	1c6a      	adds	r2, r5, #1
 800441a:	d0f3      	beq.n	8004404 <I2C_WaitOnTXEFlagUntilTimeout+0x8>
      if (((HAL_GetTick() - Tickstart) > Timeout) || (Timeout == 0U))
 800441c:	f7ff fe0c 	bl	8004038 <HAL_GetTick>
 8004420:	1b80      	subs	r0, r0, r6
 8004422:	42a8      	cmp	r0, r5
 8004424:	d801      	bhi.n	800442a <I2C_WaitOnTXEFlagUntilTimeout+0x2e>
 8004426:	2d00      	cmp	r5, #0
 8004428:	d1ec      	bne.n	8004404 <I2C_WaitOnTXEFlagUntilTimeout+0x8>
        if ((__HAL_I2C_GET_FLAG(hi2c, I2C_FLAG_TXE) == RESET))
 800442a:	6823      	ldr	r3, [r4, #0]
 800442c:	695b      	ldr	r3, [r3, #20]
 800442e:	f013 0380 	ands.w	r3, r3, #128	@ 0x80
 8004432:	d1e7      	bne.n	8004404 <I2C_WaitOnTXEFlagUntilTimeout+0x8>
          hi2c->State               = HAL_I2C_STATE_READY;
 8004434:	2220      	movs	r2, #32
          hi2c->PreviousState       = I2C_STATE_NONE;
 8004436:	6323      	str	r3, [r4, #48]	@ 0x30
          hi2c->State               = HAL_I2C_STATE_READY;
 8004438:	f884 203d 	strb.w	r2, [r4, #61]	@ 0x3d
          hi2c->Mode                = HAL_I2C_MODE_NONE;
 800443c:	f884 303e 	strb.w	r3, [r4, #62]	@ 0x3e
          hi2c->ErrorCode           |= HAL_I2C_ERROR_TIMEOUT;
 8004440:	6c22      	ldr	r2, [r4, #64]	@ 0x40
          __HAL_UNLOCK(hi2c);
 8004442:	f884 303c 	strb.w	r3, [r4, #60]	@ 0x3c
          hi2c->ErrorCode           |= HAL_I2C_ERROR_TIMEOUT;
 8004446:	f042 0220 	orr.w	r2, r2, #32
 800444a:	6422      	str	r2, [r4, #64]	@ 0x40
      return HAL_ERROR;
 800444c:	2001      	movs	r0, #1
}
 800444e:	bd70      	pop	{r4, r5, r6, pc}

08004450 <I2C_RequestMemoryWrite>:
{
 8004450:	e92d 43f0 	stmdb	sp!, {r4, r5, r6, r7, r8, r9, lr}
 8004454:	4615      	mov	r5, r2
  SET_BIT(hi2c->Instance->CR1, I2C_CR1_START);
 8004456:	6802      	ldr	r2, [r0, #0]
{
 8004458:	4699      	mov	r9, r3
  SET_BIT(hi2c->Instance->CR1, I2C_CR1_START);
 800445a:	6813      	ldr	r3, [r2, #0]
{
 800445c:	b085      	sub	sp, #20
  SET_BIT(hi2c->Instance->CR1, I2C_CR1_START);
 800445e:	f443 7380 	orr.w	r3, r3, #256	@ 0x100
 8004462:	6013      	str	r3, [r2, #0]
{
 8004464:	e9dd 780c 	ldrd	r7, r8, [sp, #48]	@ 0x30
 8004468:	460e      	mov	r6, r1
  if (I2C_WaitOnFlagUntilTimeout(hi2c, I2C_FLAG_SB, RESET, Timeout, Tickstart) != HAL_OK)
 800446a:	463b      	mov	r3, r7
 800446c:	2200      	movs	r2, #0
 800446e:	f04f 1101 	mov.w	r1, #65537	@ 0x10001
 8004472:	f8cd 8000 	str.w	r8, [sp]
{
 8004476:	4604      	mov	r4, r0
  if (I2C_WaitOnFlagUntilTimeout(hi2c, I2C_FLAG_SB, RESET, Timeout, Tickstart) != HAL_OK)
 8004478:	f7ff ff3e 	bl	80042f8 <I2C_WaitOnFlagUntilTimeout>
 800447c:	6823      	ldr	r3, [r4, #0]
 800447e:	b138      	cbz	r0, 8004490 <I2C_RequestMemoryWrite+0x40>
    if (READ_BIT(hi2c->Instance->CR1, I2C_CR1_START) == I2C_CR1_START)
 8004480:	681b      	ldr	r3, [r3, #0]
 8004482:	05db      	lsls	r3, r3, #23
 8004484:	d502      	bpl.n	800448c <I2C_RequestMemoryWrite+0x3c>
      hi2c->ErrorCode = HAL_I2C_WRONG_START;
 8004486:	f44f 7300 	mov.w	r3, #512	@ 0x200
 800448a:	6423      	str	r3, [r4, #64]	@ 0x40
    return HAL_TIMEOUT;
 800448c:	2603      	movs	r6, #3
 800448e:	e020      	b.n	80044d2 <I2C_RequestMemoryWrite+0x82>
  hi2c->Instance->DR = I2C_7BIT_ADD_WRITE(DevAddress);
 8004490:	f006 06fe 	and.w	r6, r6, #254	@ 0xfe
 8004494:	611e      	str	r6, [r3, #16]
  if (I2C_WaitOnMasterAddressFlagUntilTimeout(hi2c, I2C_FLAG_ADDR, Timeout, Tickstart) != HAL_OK)
 8004496:	463a      	mov	r2, r7
 8004498:	4643      	mov	r3, r8
 800449a:	4620      	mov	r0, r4
 800449c:	4918      	ldr	r1, [pc, #96]	@ (8004500 <I2C_RequestMemoryWrite+0xb0>)
 800449e:	f7ff ff6b 	bl	8004378 <I2C_WaitOnMasterAddressFlagUntilTimeout>
 80044a2:	b9a8      	cbnz	r0, 80044d0 <I2C_RequestMemoryWrite+0x80>
  __HAL_I2C_CLEAR_ADDRFLAG(hi2c);
 80044a4:	6823      	ldr	r3, [r4, #0]
 80044a6:	9003      	str	r0, [sp, #12]
 80044a8:	695a      	ldr	r2, [r3, #20]
  if (I2C_WaitOnTXEFlagUntilTimeout(hi2c, Timeout, Tickstart) != HAL_OK)
 80044aa:	4639      	mov	r1, r7
  __HAL_I2C_CLEAR_ADDRFLAG(hi2c);
 80044ac:	9203      	str	r2, [sp, #12]
 80044ae:	699b      	ldr	r3, [r3, #24]
  if (I2C_WaitOnTXEFlagUntilTimeout(hi2c, Timeout, Tickstart) != HAL_OK)
 80044b0:	4642      	mov	r2, r8
  __HAL_I2C_CLEAR_ADDRFLAG(hi2c);
 80044b2:	9303      	str	r3, [sp, #12]
  if (I2C_WaitOnTXEFlagUntilTimeout(hi2c, Timeout, Tickstart) != HAL_OK)
 80044b4:	4620      	mov	r0, r4
  __HAL_I2C_CLEAR_ADDRFLAG(hi2c);
 80044b6:	9b03      	ldr	r3, [sp, #12]
  if (I2C_WaitOnTXEFlagUntilTimeout(hi2c, Timeout, Tickstart) != HAL_OK)
 80044b8:	f7ff ffa0 	bl	80043fc <I2C_WaitOnTXEFlagUntilTimeout>
 80044bc:	4606      	mov	r6, r0
 80044be:	b160      	cbz	r0, 80044da <I2C_RequestMemoryWrite+0x8a>
    if (hi2c->ErrorCode == HAL_I2C_ERROR_AF)
 80044c0:	6c23      	ldr	r3, [r4, #64]	@ 0x40
 80044c2:	2b04      	cmp	r3, #4
      SET_BIT(hi2c->Instance->CR1, I2C_CR1_STOP);
 80044c4:	bf01      	itttt	eq
 80044c6:	6822      	ldreq	r2, [r4, #0]
 80044c8:	6813      	ldreq	r3, [r2, #0]
 80044ca:	f443 7300 	orreq.w	r3, r3, #512	@ 0x200
 80044ce:	6013      	streq	r3, [r2, #0]
    return HAL_ERROR;
 80044d0:	2601      	movs	r6, #1
}
 80044d2:	4630      	mov	r0, r6
 80044d4:	b005      	add	sp, #20
 80044d6:	e8bd 83f0 	ldmia.w	sp!, {r4, r5, r6, r7, r8, r9, pc}
  if (MemAddSize == I2C_MEMADD_SIZE_8BIT)
 80044da:	f1b9 0f01 	cmp.w	r9, #1
      SET_BIT(hi2c->Instance->CR1, I2C_CR1_STOP);
 80044de:	6823      	ldr	r3, [r4, #0]
  if (MemAddSize == I2C_MEMADD_SIZE_8BIT)
 80044e0:	d102      	bne.n	80044e8 <I2C_RequestMemoryWrite+0x98>
    hi2c->Instance->DR = I2C_MEM_ADD_LSB(MemAddress);
 80044e2:	b2ed      	uxtb	r5, r5
 80044e4:	611d      	str	r5, [r3, #16]
 80044e6:	e7f4      	b.n	80044d2 <I2C_RequestMemoryWrite+0x82>
    hi2c->Instance->DR = I2C_MEM_ADD_MSB(MemAddress);
 80044e8:	0a2a      	lsrs	r2, r5, #8
 80044ea:	611a      	str	r2, [r3, #16]
    if (I2C_WaitOnTXEFlagUntilTimeout(hi2c, Timeout, Tickstart) != HAL_OK)
 80044ec:	4639      	mov	r1, r7
 80044ee:	4642      	mov	r2, r8
 80044f0:	4620      	mov	r0, r4
 80044f2:	f7ff ff83 	bl	80043fc <I2C_WaitOnTXEFlagUntilTimeout>
 80044f6:	2800      	cmp	r0, #0
 80044f8:	d1e2      	bne.n	80044c0 <I2C_RequestMemoryWrite+0x70>
    hi2c->Instance->DR = I2C_MEM_ADD_LSB(MemAddress);
 80044fa:	6823      	ldr	r3, [r4, #0]
 80044fc:	e7f1      	b.n	80044e2 <I2C_RequestMemoryWrite+0x92>
 80044fe:	bf00      	nop
 8004500:	00010002 	.word	0x00010002

08004504 <I2C_RequestMemoryRead>:
{
 8004504:	e92d 47ff 	stmdb	sp!, {r0, r1, r2, r3, r4, r5, r6, r7, r8, r9, sl, lr}
 8004508:	469a      	mov	sl, r3
 800450a:	e9dd 780c 	ldrd	r7, r8, [sp, #48]	@ 0x30
  SET_BIT(hi2c->Instance->CR1, I2C_CR1_ACK);
 800450e:	6803      	ldr	r3, [r0, #0]
{
 8004510:	4615      	mov	r5, r2
  SET_BIT(hi2c->Instance->CR1, I2C_CR1_ACK);
 8004512:	681a      	ldr	r2, [r3, #0]
{
 8004514:	460e      	mov	r6, r1
  SET_BIT(hi2c->Instance->CR1, I2C_CR1_ACK);
 8004516:	f442 6280 	orr.w	r2, r2, #1024	@ 0x400
 800451a:	601a      	str	r2, [r3, #0]
  SET_BIT(hi2c->Instance->CR1, I2C_CR1_START);
 800451c:	681a      	ldr	r2, [r3, #0]
  if (I2C_WaitOnFlagUntilTimeout(hi2c, I2C_FLAG_SB, RESET, Timeout, Tickstart) != HAL_OK)
 800451e:	f04f 1101 	mov.w	r1, #65537	@ 0x10001
  SET_BIT(hi2c->Instance->CR1, I2C_CR1_START);
 8004522:	f442 7280 	orr.w	r2, r2, #256	@ 0x100
 8004526:	601a      	str	r2, [r3, #0]
  if (I2C_WaitOnFlagUntilTimeout(hi2c, I2C_FLAG_SB, RESET, Timeout, Tickstart) != HAL_OK)
 8004528:	463b      	mov	r3, r7
 800452a:	2200      	movs	r2, #0
 800452c:	f8cd 8000 	str.w	r8, [sp]
{
 8004530:	4604      	mov	r4, r0
  if (I2C_WaitOnFlagUntilTimeout(hi2c, I2C_FLAG_SB, RESET, Timeout, Tickstart) != HAL_OK)
 8004532:	f7ff fee1 	bl	80042f8 <I2C_WaitOnFlagUntilTimeout>
 8004536:	6823      	ldr	r3, [r4, #0]
 8004538:	b148      	cbz	r0, 800454e <I2C_RequestMemoryRead+0x4a>
    if (READ_BIT(hi2c->Instance->CR1, I2C_CR1_START) == I2C_CR1_START)
 800453a:	681b      	ldr	r3, [r3, #0]
    if (READ_BIT(hi2c->Instance->CR1, I2C_CR1_START) == I2C_CR1_START)
 800453c:	05db      	lsls	r3, r3, #23
      hi2c->ErrorCode = HAL_I2C_WRONG_START;
 800453e:	bf48      	it	mi
 8004540:	f44f 7300 	movmi.w	r3, #512	@ 0x200
    return HAL_TIMEOUT;
 8004544:	f04f 0003 	mov.w	r0, #3
      hi2c->ErrorCode = HAL_I2C_WRONG_START;
 8004548:	bf48      	it	mi
 800454a:	6423      	strmi	r3, [r4, #64]	@ 0x40
 800454c:	e021      	b.n	8004592 <I2C_RequestMemoryRead+0x8e>
  hi2c->Instance->DR = I2C_7BIT_ADD_WRITE(DevAddress);
 800454e:	fa5f f986 	uxtb.w	r9, r6
 8004552:	f006 06fe 	and.w	r6, r6, #254	@ 0xfe
 8004556:	611e      	str	r6, [r3, #16]
  if (I2C_WaitOnMasterAddressFlagUntilTimeout(hi2c, I2C_FLAG_ADDR, Timeout, Tickstart) != HAL_OK)
 8004558:	463a      	mov	r2, r7
 800455a:	4643      	mov	r3, r8
 800455c:	4620      	mov	r0, r4
 800455e:	492a      	ldr	r1, [pc, #168]	@ (8004608 <I2C_RequestMemoryRead+0x104>)
 8004560:	f7ff ff0a 	bl	8004378 <I2C_WaitOnMasterAddressFlagUntilTimeout>
 8004564:	b9a0      	cbnz	r0, 8004590 <I2C_RequestMemoryRead+0x8c>
  __HAL_I2C_CLEAR_ADDRFLAG(hi2c);
 8004566:	6823      	ldr	r3, [r4, #0]
 8004568:	9003      	str	r0, [sp, #12]
 800456a:	695a      	ldr	r2, [r3, #20]
  if (I2C_WaitOnTXEFlagUntilTimeout(hi2c, Timeout, Tickstart) != HAL_OK)
 800456c:	4639      	mov	r1, r7
  __HAL_I2C_CLEAR_ADDRFLAG(hi2c);
 800456e:	9203      	str	r2, [sp, #12]
 8004570:	699b      	ldr	r3, [r3, #24]
  if (I2C_WaitOnTXEFlagUntilTimeout(hi2c, Timeout, Tickstart) != HAL_OK)
 8004572:	4642      	mov	r2, r8
  __HAL_I2C_CLEAR_ADDRFLAG(hi2c);
 8004574:	9303      	str	r3, [sp, #12]
  if (I2C_WaitOnTXEFlagUntilTimeout(hi2c, Timeout, Tickstart) != HAL_OK)
 8004576:	4620      	mov	r0, r4
  __HAL_I2C_CLEAR_ADDRFLAG(hi2c);
 8004578:	9b03      	ldr	r3, [sp, #12]
  if (I2C_WaitOnTXEFlagUntilTimeout(hi2c, Timeout, Tickstart) != HAL_OK)
 800457a:	f7ff ff3f 	bl	80043fc <I2C_WaitOnTXEFlagUntilTimeout>
 800457e:	b158      	cbz	r0, 8004598 <I2C_RequestMemoryRead+0x94>
    if (hi2c->ErrorCode == HAL_I2C_ERROR_AF)
 8004580:	6c23      	ldr	r3, [r4, #64]	@ 0x40
 8004582:	2b04      	cmp	r3, #4
      SET_BIT(hi2c->Instance->CR1, I2C_CR1_STOP);
 8004584:	bf01      	itttt	eq
 8004586:	6822      	ldreq	r2, [r4, #0]
 8004588:	6813      	ldreq	r3, [r2, #0]
 800458a:	f443 7300 	orreq.w	r3, r3, #512	@ 0x200
 800458e:	6013      	streq	r3, [r2, #0]
    return HAL_ERROR;
 8004590:	2001      	movs	r0, #1
}
 8004592:	b004      	add	sp, #16
 8004594:	e8bd 87f0 	ldmia.w	sp!, {r4, r5, r6, r7, r8, r9, sl, pc}
  if (MemAddSize == I2C_MEMADD_SIZE_8BIT)
 8004598:	f1ba 0f01 	cmp.w	sl, #1
      SET_BIT(hi2c->Instance->CR1, I2C_CR1_STOP);
 800459c:	6823      	ldr	r3, [r4, #0]
  if (MemAddSize == I2C_MEMADD_SIZE_8BIT)
 800459e:	d11a      	bne.n	80045d6 <I2C_RequestMemoryRead+0xd2>
    hi2c->Instance->DR = I2C_MEM_ADD_LSB(MemAddress);
 80045a0:	b2ed      	uxtb	r5, r5
  if (I2C_WaitOnTXEFlagUntilTimeout(hi2c, Timeout, Tickstart) != HAL_OK)
 80045a2:	4642      	mov	r2, r8
 80045a4:	4639      	mov	r1, r7
 80045a6:	4620      	mov	r0, r4
    hi2c->Instance->DR = I2C_MEM_ADD_LSB(MemAddress);
 80045a8:	611d      	str	r5, [r3, #16]
  if (I2C_WaitOnTXEFlagUntilTimeout(hi2c, Timeout, Tickstart) != HAL_OK)
 80045aa:	f7ff ff27 	bl	80043fc <I2C_WaitOnTXEFlagUntilTimeout>
 80045ae:	4602      	mov	r2, r0
 80045b0:	2800      	cmp	r0, #0
 80045b2:	d1e5      	bne.n	8004580 <I2C_RequestMemoryRead+0x7c>
  SET_BIT(hi2c->Instance->CR1, I2C_CR1_START);
 80045b4:	6821      	ldr	r1, [r4, #0]
  if (I2C_WaitOnFlagUntilTimeout(hi2c, I2C_FLAG_SB, RESET, Timeout, Tickstart) != HAL_OK)
 80045b6:	4620      	mov	r0, r4
  SET_BIT(hi2c->Instance->CR1, I2C_CR1_START);
 80045b8:	680b      	ldr	r3, [r1, #0]
 80045ba:	f443 7380 	orr.w	r3, r3, #256	@ 0x100
 80045be:	600b      	str	r3, [r1, #0]
  if (I2C_WaitOnFlagUntilTimeout(hi2c, I2C_FLAG_SB, RESET, Timeout, Tickstart) != HAL_OK)
 80045c0:	463b      	mov	r3, r7
 80045c2:	f04f 1101 	mov.w	r1, #65537	@ 0x10001
 80045c6:	f8cd 8000 	str.w	r8, [sp]
 80045ca:	f7ff fe95 	bl	80042f8 <I2C_WaitOnFlagUntilTimeout>
 80045ce:	6822      	ldr	r2, [r4, #0]
 80045d0:	b160      	cbz	r0, 80045ec <I2C_RequestMemoryRead+0xe8>
    if (READ_BIT(hi2c->Instance->CR1, I2C_CR1_START) == I2C_CR1_START)
 80045d2:	6813      	ldr	r3, [r2, #0]
 80045d4:	e7b2      	b.n	800453c <I2C_RequestMemoryRead+0x38>
    hi2c->Instance->DR = I2C_MEM_ADD_MSB(MemAddress);
 80045d6:	0a2a      	lsrs	r2, r5, #8
 80045d8:	611a      	str	r2, [r3, #16]
    if (I2C_WaitOnTXEFlagUntilTimeout(hi2c, Timeout, Tickstart) != HAL_OK)
 80045da:	4639      	mov	r1, r7
 80045dc:	4642      	mov	r2, r8
 80045de:	4620      	mov	r0, r4
 80045e0:	f7ff ff0c 	bl	80043fc <I2C_WaitOnTXEFlagUntilTimeout>
 80045e4:	2800      	cmp	r0, #0
 80045e6:	d1cb      	bne.n	8004580 <I2C_RequestMemoryRead+0x7c>
    hi2c->Instance->DR = I2C_MEM_ADD_LSB(MemAddress);
 80045e8:	6823      	ldr	r3, [r4, #0]
 80045ea:	e7d9      	b.n	80045a0 <I2C_RequestMemoryRead+0x9c>
  hi2c->Instance->DR = I2C_7BIT_ADD_READ(DevAddress);
 80045ec:	f049 0301 	orr.w	r3, r9, #1
 80045f0:	6113      	str	r3, [r2, #16]
  if (I2C_WaitOnMasterAddressFlagUntilTimeout(hi2c, I2C_FLAG_ADDR, Timeout, Tickstart) != HAL_OK)
 80045f2:	4620      	mov	r0, r4
 80045f4:	4643      	mov	r3, r8
 80045f6:	463a      	mov	r2, r7
 80045f8:	4903      	ldr	r1, [pc, #12]	@ (8004608 <I2C_RequestMemoryRead+0x104>)
 80045fa:	f7ff febd 	bl	8004378 <I2C_WaitOnMasterAddressFlagUntilTimeout>
 80045fe:	3800      	subs	r0, #0
 8004600:	bf18      	it	ne
 8004602:	2001      	movne	r0, #1
 8004604:	e7c5      	b.n	8004592 <I2C_RequestMemoryRead+0x8e>
 8004606:	bf00      	nop
 8004608:	00010002 	.word	0x00010002

0800460c <I2C_WaitOnBTFFlagUntilTimeout>:
{
 800460c:	b570      	push	{r4, r5, r6, lr}
 800460e:	4604      	mov	r4, r0
 8004610:	460d      	mov	r5, r1
 8004612:	4616      	mov	r6, r2
  while (__HAL_I2C_GET_FLAG(hi2c, I2C_FLAG_BTF) == RESET)
 8004614:	6823      	ldr	r3, [r4, #0]
 8004616:	695b      	ldr	r3, [r3, #20]
 8004618:	075b      	lsls	r3, r3, #29
 800461a:	d501      	bpl.n	8004620 <I2C_WaitOnBTFFlagUntilTimeout+0x14>
  return HAL_OK;
 800461c:	2000      	movs	r0, #0
 800461e:	e01e      	b.n	800465e <I2C_WaitOnBTFFlagUntilTimeout+0x52>
    if (I2C_IsAcknowledgeFailed(hi2c) != HAL_OK)
 8004620:	4620      	mov	r0, r4
 8004622:	f7ff fe50 	bl	80042c6 <I2C_IsAcknowledgeFailed>
 8004626:	b9c8      	cbnz	r0, 800465c <I2C_WaitOnBTFFlagUntilTimeout+0x50>
    if (Timeout != HAL_MAX_DELAY)
 8004628:	1c6a      	adds	r2, r5, #1
 800462a:	d0f3      	beq.n	8004614 <I2C_WaitOnBTFFlagUntilTimeout+0x8>
      if (((HAL_GetTick() - Tickstart) > Timeout) || (Timeout == 0U))
 800462c:	f7ff fd04 	bl	8004038 <HAL_GetTick>
 8004630:	1b80      	subs	r0, r0, r6
 8004632:	42a8      	cmp	r0, r5
 8004634:	d801      	bhi.n	800463a <I2C_WaitOnBTFFlagUntilTimeout+0x2e>
 8004636:	2d00      	cmp	r5, #0
 8004638:	d1ec      	bne.n	8004614 <I2C_WaitOnBTFFlagUntilTimeout+0x8>
        if ((__HAL_I2C_GET_FLAG(hi2c, I2C_FLAG_BTF) == RESET))
 800463a:	6823      	ldr	r3, [r4, #0]
 800463c:	695b      	ldr	r3, [r3, #20]
 800463e:	f013 0304 	ands.w	r3, r3, #4
 8004642:	d1e7      	bne.n	8004614 <I2C_WaitOnBTFFlagUntilTimeout+0x8>
          hi2c->State               = HAL_I2C_STATE_READY;
 8004644:	2220      	movs	r2, #32
          hi2c->PreviousState       = I2C_STATE_NONE;
 8004646:	6323      	str	r3, [r4, #48]	@ 0x30
          hi2c->State               = HAL_I2C_STATE_READY;
 8004648:	f884 203d 	strb.w	r2, [r4, #61]	@ 0x3d
          hi2c->Mode                = HAL_I2C_MODE_NONE;
 800464c:	f884 303e 	strb.w	r3, [r4, #62]	@ 0x3e
          hi2c->ErrorCode           |= HAL_I2C_ERROR_TIMEOUT;
 8004650:	6c22      	ldr	r2, [r4, #64]	@ 0x40
          __HAL_UNLOCK(hi2c);
 8004652:	f884 303c 	strb.w	r3, [r4, #60]	@ 0x3c
          hi2c->ErrorCode           |= HAL_I2C_ERROR_TIMEOUT;
 8004656:	f042 0220 	orr.w	r2, r2, #32
 800465a:	6422      	str	r2, [r4, #64]	@ 0x40
      return HAL_ERROR;
 800465c:	2001      	movs	r0, #1
}
 800465e:	bd70      	pop	{r4, r5, r6, pc}

08004660 <I2C_WaitOnRXNEFlagUntilTimeout>:
{
 8004660:	b570      	push	{r4, r5, r6, lr}
 8004662:	4604      	mov	r4, r0
 8004664:	460d      	mov	r5, r1
 8004666:	4616      	mov	r6, r2
  while (__HAL_I2C_GET_FLAG(hi2c, I2C_FLAG_RXNE) == RESET)
 8004668:	6821      	ldr	r1, [r4, #0]
 800466a:	694b      	ldr	r3, [r1, #20]
 800466c:	f013 0340 	ands.w	r3, r3, #64	@ 0x40
 8004670:	d001      	beq.n	8004676 <I2C_WaitOnRXNEFlagUntilTimeout+0x16>
  return HAL_OK;
 8004672:	2000      	movs	r0, #0
 8004674:	e011      	b.n	800469a <I2C_WaitOnRXNEFlagUntilTimeout+0x3a>
    if (__HAL_I2C_GET_FLAG(hi2c, I2C_FLAG_STOPF) == SET)
 8004676:	694a      	ldr	r2, [r1, #20]
 8004678:	06d2      	lsls	r2, r2, #27
 800467a:	d50f      	bpl.n	800469c <I2C_WaitOnRXNEFlagUntilTimeout+0x3c>
      __HAL_I2C_CLEAR_FLAG(hi2c, I2C_FLAG_STOPF);
 800467c:	f06f 0210 	mvn.w	r2, #16
 8004680:	614a      	str	r2, [r1, #20]
      hi2c->State               = HAL_I2C_STATE_READY;
 8004682:	2220      	movs	r2, #32
      hi2c->PreviousState       = I2C_STATE_NONE;
 8004684:	6323      	str	r3, [r4, #48]	@ 0x30
      hi2c->State               = HAL_I2C_STATE_READY;
 8004686:	f884 203d 	strb.w	r2, [r4, #61]	@ 0x3d
      hi2c->Mode                = HAL_I2C_MODE_NONE;
 800468a:	f884 303e 	strb.w	r3, [r4, #62]	@ 0x3e
      hi2c->ErrorCode           |= HAL_I2C_ERROR_NONE;
 800468e:	6c23      	ldr	r3, [r4, #64]	@ 0x40
        hi2c->ErrorCode           |= HAL_I2C_ERROR_TIMEOUT;
 8004690:	6423      	str	r3, [r4, #64]	@ 0x40
        __HAL_UNLOCK(hi2c);
 8004692:	2300      	movs	r3, #0
      return HAL_ERROR;
 8004694:	2001      	movs	r0, #1
        __HAL_UNLOCK(hi2c);
 8004696:	f884 303c 	strb.w	r3, [r4, #60]	@ 0x3c
}
 800469a:	bd70      	pop	{r4, r5, r6, pc}
    if (((HAL_GetTick() - Tickstart) > Timeout) || (Timeout == 0U))
 800469c:	f7ff fccc 	bl	8004038 <HAL_GetTick>
 80046a0:	1b80      	subs	r0, r0, r6
 80046a2:	42a8      	cmp	r0, r5
 80046a4:	d801      	bhi.n	80046aa <I2C_WaitOnRXNEFlagUntilTimeout+0x4a>
 80046a6:	2d00      	cmp	r5, #0
 80046a8:	d1de      	bne.n	8004668 <I2C_WaitOnRXNEFlagUntilTimeout+0x8>
      if ((__HAL_I2C_GET_FLAG(hi2c, I2C_FLAG_RXNE) == RESET))
 80046aa:	6823      	ldr	r3, [r4, #0]
 80046ac:	695b      	ldr	r3, [r3, #20]
 80046ae:	f013 0340 	ands.w	r3, r3, #64	@ 0x40
 80046b2:	d1d9      	bne.n	8004668 <I2C_WaitOnRXNEFlagUntilTimeout+0x8>
        hi2c->State               = HAL_I2C_STATE_READY;
 80046b4:	2220      	movs	r2, #32
        hi2c->PreviousState       = I2C_STATE_NONE;
 80046b6:	6323      	str	r3, [r4, #48]	@ 0x30
        hi2c->State               = HAL_I2C_STATE_READY;
 80046b8:	f884 203d 	strb.w	r2, [r4, #61]	@ 0x3d
        hi2c->Mode                = HAL_I2C_MODE_NONE;
 80046bc:	f884 303e 	strb.w	r3, [r4, #62]	@ 0x3e
        hi2c->ErrorCode           |= HAL_I2C_ERROR_TIMEOUT;
 80046c0:	6c23      	ldr	r3, [r4, #64]	@ 0x40
 80046c2:	4313      	orrs	r3, r2
 80046c4:	e7e4      	b.n	8004690 <I2C_WaitOnRXNEFlagUntilTimeout+0x30>
	...

080046c8 <HAL_I2C_Init>:
{
 80046c8:	b570      	push	{r4, r5, r6, lr}
  if (hi2c == NULL)
 80046ca:	4604      	mov	r4, r0
 80046cc:	b908      	cbnz	r0, 80046d2 <HAL_I2C_Init+0xa>
    return HAL_ERROR;
 80046ce:	2001      	movs	r0, #1
}
 80046d0:	bd70      	pop	{r4, r5, r6, pc}
  if (hi2c->State == HAL_I2C_STATE_RESET)
 80046d2:	f890 303d 	ldrb.w	r3, [r0, #61]	@ 0x3d
 80046d6:	f003 02ff 	and.w	r2, r3, #255	@ 0xff
 80046da:	b91b      	cbnz	r3, 80046e4 <HAL_I2C_Init+0x1c>
    hi2c->Lock = HAL_UNLOCKED;
 80046dc:	f880 203c 	strb.w	r2, [r0, #60]	@ 0x3c
    HAL_I2C_MspInit(hi2c);
 80046e0:	f7fb fe44 	bl	800036c <HAL_I2C_MspInit>
  hi2c->State = HAL_I2C_STATE_BUSY;
 80046e4:	2324      	movs	r3, #36	@ 0x24
 80046e6:	f884 303d 	strb.w	r3, [r4, #61]	@ 0x3d
  __HAL_I2C_DISABLE(hi2c);
 80046ea:	6823      	ldr	r3, [r4, #0]
 80046ec:	681a      	ldr	r2, [r3, #0]
 80046ee:	f022 0201 	bic.w	r2, r2, #1
 80046f2:	601a      	str	r2, [r3, #0]
  hi2c->Instance->CR1 |= I2C_CR1_SWRST;
 80046f4:	681a      	ldr	r2, [r3, #0]
 80046f6:	f442 4200 	orr.w	r2, r2, #32768	@ 0x8000
 80046fa:	601a      	str	r2, [r3, #0]
  hi2c->Instance->CR1 &= ~I2C_CR1_SWRST;
 80046fc:	681a      	ldr	r2, [r3, #0]
 80046fe:	f422 4200 	bic.w	r2, r2, #32768	@ 0x8000
 8004702:	601a      	str	r2, [r3, #0]
  pclk1 = HAL_RCC_GetPCLK1Freq();
 8004704:	f000 fcba 	bl	800507c <HAL_RCC_GetPCLK1Freq>
  if (I2C_MIN_PCLK_FREQ(pclk1, hi2c->Init.ClockSpeed) == 1U)
 8004708:	4b3f      	ldr	r3, [pc, #252]	@ (8004808 <HAL_I2C_Init+0x140>)
 800470a:	6865      	ldr	r5, [r4, #4]
 800470c:	429d      	cmp	r5, r3
 800470e:	bf94      	ite	ls
 8004710:	4b3e      	ldrls	r3, [pc, #248]	@ (800480c <HAL_I2C_Init+0x144>)
 8004712:	4b3f      	ldrhi	r3, [pc, #252]	@ (8004810 <HAL_I2C_Init+0x148>)
 8004714:	4298      	cmp	r0, r3
 8004716:	bf8c      	ite	hi
 8004718:	2300      	movhi	r3, #0
 800471a:	2301      	movls	r3, #1
 800471c:	2b00      	cmp	r3, #0
 800471e:	d1d6      	bne.n	80046ce <HAL_I2C_Init+0x6>
  MODIFY_REG(hi2c->Instance->TRISE, I2C_TRISE_TRISE, I2C_RISE_TIME(freqrange, hi2c->Init.ClockSpeed));
 8004720:	4e39      	ldr	r6, [pc, #228]	@ (8004808 <HAL_I2C_Init+0x140>)
  freqrange = I2C_FREQRANGE(pclk1);
 8004722:	4b3c      	ldr	r3, [pc, #240]	@ (8004814 <HAL_I2C_Init+0x14c>)
  MODIFY_REG(hi2c->Instance->TRISE, I2C_TRISE_TRISE, I2C_RISE_TIME(freqrange, hi2c->Init.ClockSpeed));
 8004724:	42b5      	cmp	r5, r6
  freqrange = I2C_FREQRANGE(pclk1);
 8004726:	fbb0 f3f3 	udiv	r3, r0, r3
  MODIFY_REG(hi2c->Instance->TRISE, I2C_TRISE_TRISE, I2C_RISE_TIME(freqrange, hi2c->Init.ClockSpeed));
 800472a:	bf88      	it	hi
 800472c:	f44f 7696 	movhi.w	r6, #300	@ 0x12c
  MODIFY_REG(hi2c->Instance->CR2, I2C_CR2_FREQ, freqrange);
 8004730:	6822      	ldr	r2, [r4, #0]
 8004732:	6851      	ldr	r1, [r2, #4]
 8004734:	f021 013f 	bic.w	r1, r1, #63	@ 0x3f
 8004738:	ea41 0103 	orr.w	r1, r1, r3
  MODIFY_REG(hi2c->Instance->TRISE, I2C_TRISE_TRISE, I2C_RISE_TIME(freqrange, hi2c->Init.ClockSpeed));
 800473c:	bf82      	ittt	hi
 800473e:	4373      	mulhi	r3, r6
 8004740:	f44f 767a 	movhi.w	r6, #1000	@ 0x3e8
 8004744:	fbb3 f3f6 	udivhi	r3, r3, r6
  MODIFY_REG(hi2c->Instance->CR2, I2C_CR2_FREQ, freqrange);
 8004748:	6051      	str	r1, [r2, #4]
  MODIFY_REG(hi2c->Instance->TRISE, I2C_TRISE_TRISE, I2C_RISE_TIME(freqrange, hi2c->Init.ClockSpeed));
 800474a:	6a11      	ldr	r1, [r2, #32]
 800474c:	3301      	adds	r3, #1
 800474e:	f021 013f 	bic.w	r1, r1, #63	@ 0x3f
 8004752:	430b      	orrs	r3, r1
 8004754:	6213      	str	r3, [r2, #32]
  MODIFY_REG(hi2c->Instance->CCR, (I2C_CCR_FS | I2C_CCR_DUTY | I2C_CCR_CCR), I2C_SPEED(pclk1, hi2c->Init.ClockSpeed, hi2c->Init.DutyCycle));
 8004756:	69d1      	ldr	r1, [r2, #28]
 8004758:	1e43      	subs	r3, r0, #1
 800475a:	482b      	ldr	r0, [pc, #172]	@ (8004808 <HAL_I2C_Init+0x140>)
 800475c:	f421 414f 	bic.w	r1, r1, #52992	@ 0xcf00
 8004760:	4285      	cmp	r5, r0
 8004762:	f021 01ff 	bic.w	r1, r1, #255	@ 0xff
 8004766:	d832      	bhi.n	80047ce <HAL_I2C_Init+0x106>
 8004768:	006d      	lsls	r5, r5, #1
 800476a:	fbb3 f3f5 	udiv	r3, r3, r5
 800476e:	f640 70fc 	movw	r0, #4092	@ 0xffc
 8004772:	3301      	adds	r3, #1
 8004774:	4203      	tst	r3, r0
 8004776:	d042      	beq.n	80047fe <HAL_I2C_Init+0x136>
 8004778:	f3c3 030b 	ubfx	r3, r3, #0, #12
 800477c:	4319      	orrs	r1, r3
 800477e:	61d1      	str	r1, [r2, #28]
  MODIFY_REG(hi2c->Instance->CR1, (I2C_CR1_ENGC | I2C_CR1_NOSTRETCH), (hi2c->Init.GeneralCallMode | hi2c->Init.NoStretchMode));
 8004780:	6811      	ldr	r1, [r2, #0]
 8004782:	e9d4 3007 	ldrd	r3, r0, [r4, #28]
 8004786:	f021 01c0 	bic.w	r1, r1, #192	@ 0xc0
 800478a:	4303      	orrs	r3, r0
 800478c:	430b      	orrs	r3, r1
 800478e:	6013      	str	r3, [r2, #0]
  MODIFY_REG(hi2c->Instance->OAR1, (I2C_OAR1_ADDMODE | I2C_OAR1_ADD8_9 | I2C_OAR1_ADD1_7 | I2C_OAR1_ADD0), (hi2c->Init.AddressingMode | hi2c->Init.OwnAddress1));
 8004790:	6891      	ldr	r1, [r2, #8]
 8004792:	e9d4 0303 	ldrd	r0, r3, [r4, #12]
 8004796:	f421 4103 	bic.w	r1, r1, #33536	@ 0x8300
 800479a:	4303      	orrs	r3, r0
 800479c:	f021 01ff 	bic.w	r1, r1, #255	@ 0xff
 80047a0:	430b      	orrs	r3, r1
 80047a2:	6093      	str	r3, [r2, #8]
  MODIFY_REG(hi2c->Instance->OAR2, (I2C_OAR2_ENDUAL | I2C_OAR2_ADD2), (hi2c->Init.DualAddressMode | hi2c->Init.OwnAddress2));
 80047a4:	68d1      	ldr	r1, [r2, #12]
 80047a6:	e9d4 3005 	ldrd	r3, r0, [r4, #20]
 80047aa:	f021 01ff 	bic.w	r1, r1, #255	@ 0xff
 80047ae:	4303      	orrs	r3, r0
 80047b0:	430b      	orrs	r3, r1
 80047b2:	60d3      	str	r3, [r2, #12]
  __HAL_I2C_ENABLE(hi2c);
 80047b4:	6813      	ldr	r3, [r2, #0]
  hi2c->ErrorCode = HAL_I2C_ERROR_NONE;
 80047b6:	2000      	movs	r0, #0
  __HAL_I2C_ENABLE(hi2c);
 80047b8:	f043 0301 	orr.w	r3, r3, #1
 80047bc:	6013      	str	r3, [r2, #0]
  hi2c->State = HAL_I2C_STATE_READY;
 80047be:	2320      	movs	r3, #32
  hi2c->ErrorCode = HAL_I2C_ERROR_NONE;
 80047c0:	6420      	str	r0, [r4, #64]	@ 0x40
  hi2c->State = HAL_I2C_STATE_READY;
 80047c2:	f884 303d 	strb.w	r3, [r4, #61]	@ 0x3d
  hi2c->PreviousState = I2C_STATE_NONE;
 80047c6:	6320      	str	r0, [r4, #48]	@ 0x30
  hi2c->Mode = HAL_I2C_MODE_NONE;
 80047c8:	f884 003e 	strb.w	r0, [r4, #62]	@ 0x3e
  return HAL_OK;
 80047cc:	e780      	b.n	80046d0 <HAL_I2C_Init+0x8>
  MODIFY_REG(hi2c->Instance->CCR, (I2C_CCR_FS | I2C_CCR_DUTY | I2C_CCR_CCR), I2C_SPEED(pclk1, hi2c->Init.ClockSpeed, hi2c->Init.DutyCycle));
 80047ce:	68a0      	ldr	r0, [r4, #8]
 80047d0:	b950      	cbnz	r0, 80047e8 <HAL_I2C_Init+0x120>
 80047d2:	eb05 0545 	add.w	r5, r5, r5, lsl #1
 80047d6:	fbb3 f3f5 	udiv	r3, r3, r5
 80047da:	3301      	adds	r3, #1
 80047dc:	f3c3 030b 	ubfx	r3, r3, #0, #12
 80047e0:	b17b      	cbz	r3, 8004802 <HAL_I2C_Init+0x13a>
 80047e2:	f443 4300 	orr.w	r3, r3, #32768	@ 0x8000
 80047e6:	e7c9      	b.n	800477c <HAL_I2C_Init+0xb4>
 80047e8:	2019      	movs	r0, #25
 80047ea:	4368      	muls	r0, r5
 80047ec:	fbb3 f3f0 	udiv	r3, r3, r0
 80047f0:	3301      	adds	r3, #1
 80047f2:	f3c3 030b 	ubfx	r3, r3, #0, #12
 80047f6:	b123      	cbz	r3, 8004802 <HAL_I2C_Init+0x13a>
 80047f8:	f443 4340 	orr.w	r3, r3, #49152	@ 0xc000
 80047fc:	e7be      	b.n	800477c <HAL_I2C_Init+0xb4>
 80047fe:	2304      	movs	r3, #4
 8004800:	e7bc      	b.n	800477c <HAL_I2C_Init+0xb4>
 8004802:	2301      	movs	r3, #1
 8004804:	e7ba      	b.n	800477c <HAL_I2C_Init+0xb4>
 8004806:	bf00      	nop
 8004808:	000186a0 	.word	0x000186a0
 800480c:	001e847f 	.word	0x001e847f
 8004810:	003d08ff 	.word	0x003d08ff
 8004814:	000f4240 	.word	0x000f4240

08004818 <HAL_I2C_Mem_Write>:
{
 8004818:	e92d 43f7 	stmdb	sp!, {r0, r1, r2, r4, r5, r6, r7, r8, r9, lr}
 800481c:	4604      	mov	r4, r0
 800481e:	4699      	mov	r9, r3
 8004820:	460f      	mov	r7, r1
 8004822:	4690      	mov	r8, r2
 8004824:	9e0c      	ldr	r6, [sp, #48]	@ 0x30
  uint32_t tickstart = HAL_GetTick();
 8004826:	f7ff fc07 	bl	8004038 <HAL_GetTick>
  if (hi2c->State == HAL_I2C_STATE_READY)
 800482a:	f894 303d 	ldrb.w	r3, [r4, #61]	@ 0x3d
  uint32_t tickstart = HAL_GetTick();
 800482e:	4605      	mov	r5, r0
  if (hi2c->State == HAL_I2C_STATE_READY)
 8004830:	2b20      	cmp	r3, #32
 8004832:	d003      	beq.n	800483c <HAL_I2C_Mem_Write+0x24>
      return HAL_BUSY;
 8004834:	2002      	movs	r0, #2
}
 8004836:	b003      	add	sp, #12
 8004838:	e8bd 83f0 	ldmia.w	sp!, {r4, r5, r6, r7, r8, r9, pc}
    if (I2C_WaitOnFlagUntilTimeout(hi2c, I2C_FLAG_BUSY, SET, I2C_TIMEOUT_BUSY_FLAG, tickstart) != HAL_OK)
 800483c:	9000      	str	r0, [sp, #0]
 800483e:	2319      	movs	r3, #25
 8004840:	2201      	movs	r2, #1
 8004842:	4620      	mov	r0, r4
 8004844:	493a      	ldr	r1, [pc, #232]	@ (8004930 <HAL_I2C_Mem_Write+0x118>)
 8004846:	f7ff fd57 	bl	80042f8 <I2C_WaitOnFlagUntilTimeout>
 800484a:	2800      	cmp	r0, #0
 800484c:	d1f2      	bne.n	8004834 <HAL_I2C_Mem_Write+0x1c>
    __HAL_LOCK(hi2c);
 800484e:	f894 303c 	ldrb.w	r3, [r4, #60]	@ 0x3c
 8004852:	2b01      	cmp	r3, #1
 8004854:	d0ee      	beq.n	8004834 <HAL_I2C_Mem_Write+0x1c>
 8004856:	2301      	movs	r3, #1
    if ((hi2c->Instance->CR1 & I2C_CR1_PE) != I2C_CR1_PE)
 8004858:	6820      	ldr	r0, [r4, #0]
    __HAL_LOCK(hi2c);
 800485a:	f884 303c 	strb.w	r3, [r4, #60]	@ 0x3c
    if ((hi2c->Instance->CR1 & I2C_CR1_PE) != I2C_CR1_PE)
 800485e:	6803      	ldr	r3, [r0, #0]
    if (I2C_RequestMemoryWrite(hi2c, DevAddress, MemAddress, MemAddSize, Timeout, tickstart) != HAL_OK)
 8004860:	4642      	mov	r2, r8
    if ((hi2c->Instance->CR1 & I2C_CR1_PE) != I2C_CR1_PE)
 8004862:	07d9      	lsls	r1, r3, #31
      __HAL_I2C_ENABLE(hi2c);
 8004864:	bf58      	it	pl
 8004866:	6803      	ldrpl	r3, [r0, #0]
    if (I2C_RequestMemoryWrite(hi2c, DevAddress, MemAddress, MemAddSize, Timeout, tickstart) != HAL_OK)
 8004868:	4639      	mov	r1, r7
      __HAL_I2C_ENABLE(hi2c);
 800486a:	bf5c      	itt	pl
 800486c:	f043 0301 	orrpl.w	r3, r3, #1
 8004870:	6003      	strpl	r3, [r0, #0]
    CLEAR_BIT(hi2c->Instance->CR1, I2C_CR1_POS);
 8004872:	6803      	ldr	r3, [r0, #0]
 8004874:	f423 6300 	bic.w	r3, r3, #2048	@ 0x800
 8004878:	6003      	str	r3, [r0, #0]
    hi2c->State     = HAL_I2C_STATE_BUSY_TX;
 800487a:	2321      	movs	r3, #33	@ 0x21
 800487c:	f884 303d 	strb.w	r3, [r4, #61]	@ 0x3d
    hi2c->Mode      = HAL_I2C_MODE_MEM;
 8004880:	2340      	movs	r3, #64	@ 0x40
 8004882:	f884 303e 	strb.w	r3, [r4, #62]	@ 0x3e
    hi2c->ErrorCode = HAL_I2C_ERROR_NONE;
 8004886:	2300      	movs	r3, #0
 8004888:	6423      	str	r3, [r4, #64]	@ 0x40
    hi2c->pBuffPtr    = pData;
 800488a:	9b0a      	ldr	r3, [sp, #40]	@ 0x28
    if (I2C_RequestMemoryWrite(hi2c, DevAddress, MemAddress, MemAddSize, Timeout, tickstart) != HAL_OK)
 800488c:	4620      	mov	r0, r4
    hi2c->pBuffPtr    = pData;
 800488e:	6263      	str	r3, [r4, #36]	@ 0x24
    hi2c->XferCount   = Size;
 8004890:	f8bd 302c 	ldrh.w	r3, [sp, #44]	@ 0x2c
 8004894:	8563      	strh	r3, [r4, #42]	@ 0x2a
    hi2c->XferSize    = hi2c->XferCount;
 8004896:	8d63      	ldrh	r3, [r4, #42]	@ 0x2a
 8004898:	8523      	strh	r3, [r4, #40]	@ 0x28
    hi2c->XferOptions = I2C_NO_OPTION_FRAME;
 800489a:	4b26      	ldr	r3, [pc, #152]	@ (8004934 <HAL_I2C_Mem_Write+0x11c>)
 800489c:	62e3      	str	r3, [r4, #44]	@ 0x2c
    if (I2C_RequestMemoryWrite(hi2c, DevAddress, MemAddress, MemAddSize, Timeout, tickstart) != HAL_OK)
 800489e:	464b      	mov	r3, r9
 80048a0:	e9cd 6500 	strd	r6, r5, [sp]
 80048a4:	f7ff fdd4 	bl	8004450 <I2C_RequestMemoryWrite>
 80048a8:	2800      	cmp	r0, #0
 80048aa:	d02a      	beq.n	8004902 <HAL_I2C_Mem_Write+0xea>
      return HAL_ERROR;
 80048ac:	2001      	movs	r0, #1
 80048ae:	e7c2      	b.n	8004836 <HAL_I2C_Mem_Write+0x1e>
      if (I2C_WaitOnTXEFlagUntilTimeout(hi2c, Timeout, tickstart) != HAL_OK)
 80048b0:	f7ff fda4 	bl	80043fc <I2C_WaitOnTXEFlagUntilTimeout>
 80048b4:	b140      	cbz	r0, 80048c8 <HAL_I2C_Mem_Write+0xb0>
        if (hi2c->ErrorCode == HAL_I2C_ERROR_AF)
 80048b6:	6c23      	ldr	r3, [r4, #64]	@ 0x40
 80048b8:	2b04      	cmp	r3, #4
          SET_BIT(hi2c->Instance->CR1, I2C_CR1_STOP);
 80048ba:	bf01      	itttt	eq
 80048bc:	6822      	ldreq	r2, [r4, #0]
 80048be:	6813      	ldreq	r3, [r2, #0]
 80048c0:	f443 7300 	orreq.w	r3, r3, #512	@ 0x200
 80048c4:	6013      	streq	r3, [r2, #0]
 80048c6:	e7f1      	b.n	80048ac <HAL_I2C_Mem_Write+0x94>
      hi2c->Instance->DR = *hi2c->pBuffPtr;
 80048c8:	6a63      	ldr	r3, [r4, #36]	@ 0x24
 80048ca:	6827      	ldr	r7, [r4, #0]
 80048cc:	461a      	mov	r2, r3
 80048ce:	f812 1b01 	ldrb.w	r1, [r2], #1
 80048d2:	6139      	str	r1, [r7, #16]
      hi2c->pBuffPtr++;
 80048d4:	6262      	str	r2, [r4, #36]	@ 0x24
      hi2c->XferCount--;
 80048d6:	8d62      	ldrh	r2, [r4, #42]	@ 0x2a
      hi2c->XferSize--;
 80048d8:	8d21      	ldrh	r1, [r4, #40]	@ 0x28
      hi2c->XferCount--;
 80048da:	3a01      	subs	r2, #1
 80048dc:	b292      	uxth	r2, r2
 80048de:	8562      	strh	r2, [r4, #42]	@ 0x2a
      if ((__HAL_I2C_GET_FLAG(hi2c, I2C_FLAG_BTF) == SET) && (hi2c->XferSize != 0U))
 80048e0:	697a      	ldr	r2, [r7, #20]
      hi2c->XferSize--;
 80048e2:	1e48      	subs	r0, r1, #1
 80048e4:	b280      	uxth	r0, r0
      if ((__HAL_I2C_GET_FLAG(hi2c, I2C_FLAG_BTF) == SET) && (hi2c->XferSize != 0U))
 80048e6:	0752      	lsls	r2, r2, #29
      hi2c->XferSize--;
 80048e8:	8520      	strh	r0, [r4, #40]	@ 0x28
      if ((__HAL_I2C_GET_FLAG(hi2c, I2C_FLAG_BTF) == SET) && (hi2c->XferSize != 0U))
 80048ea:	d50a      	bpl.n	8004902 <HAL_I2C_Mem_Write+0xea>
 80048ec:	b148      	cbz	r0, 8004902 <HAL_I2C_Mem_Write+0xea>
        hi2c->Instance->DR = *hi2c->pBuffPtr;
 80048ee:	785a      	ldrb	r2, [r3, #1]
        hi2c->pBuffPtr++;
 80048f0:	3302      	adds	r3, #2
        hi2c->Instance->DR = *hi2c->pBuffPtr;
 80048f2:	613a      	str	r2, [r7, #16]
        hi2c->pBuffPtr++;
 80048f4:	6263      	str	r3, [r4, #36]	@ 0x24
        hi2c->XferCount--;
 80048f6:	8d63      	ldrh	r3, [r4, #42]	@ 0x2a
        hi2c->XferSize--;
 80048f8:	3902      	subs	r1, #2
        hi2c->XferCount--;
 80048fa:	3b01      	subs	r3, #1
 80048fc:	b29b      	uxth	r3, r3
        hi2c->XferSize--;
 80048fe:	8521      	strh	r1, [r4, #40]	@ 0x28
        hi2c->XferCount--;
 8004900:	8563      	strh	r3, [r4, #42]	@ 0x2a
    while (hi2c->XferSize > 0U)
 8004902:	8d23      	ldrh	r3, [r4, #40]	@ 0x28
      if (I2C_WaitOnTXEFlagUntilTimeout(hi2c, Timeout, tickstart) != HAL_OK)
 8004904:	462a      	mov	r2, r5
 8004906:	4631      	mov	r1, r6
 8004908:	4620      	mov	r0, r4
    while (hi2c->XferSize > 0U)
 800490a:	2b00      	cmp	r3, #0
 800490c:	d1d0      	bne.n	80048b0 <HAL_I2C_Mem_Write+0x98>
    if (I2C_WaitOnBTFFlagUntilTimeout(hi2c, Timeout, tickstart) != HAL_OK)
 800490e:	f7ff fe7d 	bl	800460c <I2C_WaitOnBTFFlagUntilTimeout>
 8004912:	2800      	cmp	r0, #0
 8004914:	d1cf      	bne.n	80048b6 <HAL_I2C_Mem_Write+0x9e>
    SET_BIT(hi2c->Instance->CR1, I2C_CR1_STOP);
 8004916:	6822      	ldr	r2, [r4, #0]
 8004918:	6813      	ldr	r3, [r2, #0]
 800491a:	f443 7300 	orr.w	r3, r3, #512	@ 0x200
 800491e:	6013      	str	r3, [r2, #0]
    hi2c->State = HAL_I2C_STATE_READY;
 8004920:	2320      	movs	r3, #32
    __HAL_UNLOCK(hi2c);
 8004922:	f884 003c 	strb.w	r0, [r4, #60]	@ 0x3c
    hi2c->State = HAL_I2C_STATE_READY;
 8004926:	f884 303d 	strb.w	r3, [r4, #61]	@ 0x3d
    hi2c->Mode = HAL_I2C_MODE_NONE;
 800492a:	f884 003e 	strb.w	r0, [r4, #62]	@ 0x3e
    return HAL_OK;
 800492e:	e782      	b.n	8004836 <HAL_I2C_Mem_Write+0x1e>
 8004930:	00100002 	.word	0x00100002
 8004934:	ffff0000 	.word	0xffff0000

08004938 <HAL_I2C_Mem_Read>:
{
 8004938:	e92d 43f0 	stmdb	sp!, {r4, r5, r6, r7, r8, r9, lr}
 800493c:	4699      	mov	r9, r3
  __IO uint32_t count = 0U;
 800493e:	2300      	movs	r3, #0
{
 8004940:	4604      	mov	r4, r0
 8004942:	b089      	sub	sp, #36	@ 0x24
  __IO uint32_t count = 0U;
 8004944:	9303      	str	r3, [sp, #12]
{
 8004946:	460d      	mov	r5, r1
 8004948:	4690      	mov	r8, r2
 800494a:	9f12      	ldr	r7, [sp, #72]	@ 0x48
  uint32_t tickstart = HAL_GetTick();
 800494c:	f7ff fb74 	bl	8004038 <HAL_GetTick>
  if (hi2c->State == HAL_I2C_STATE_READY)
 8004950:	f894 303d 	ldrb.w	r3, [r4, #61]	@ 0x3d
  uint32_t tickstart = HAL_GetTick();
 8004954:	4606      	mov	r6, r0
  if (hi2c->State == HAL_I2C_STATE_READY)
 8004956:	2b20      	cmp	r3, #32
 8004958:	d004      	beq.n	8004964 <HAL_I2C_Mem_Read+0x2c>
      return HAL_BUSY;
 800495a:	2502      	movs	r5, #2
}
 800495c:	4628      	mov	r0, r5
 800495e:	b009      	add	sp, #36	@ 0x24
 8004960:	e8bd 83f0 	ldmia.w	sp!, {r4, r5, r6, r7, r8, r9, pc}
    if (I2C_WaitOnFlagUntilTimeout(hi2c, I2C_FLAG_BUSY, SET, I2C_TIMEOUT_BUSY_FLAG, tickstart) != HAL_OK)
 8004964:	9000      	str	r0, [sp, #0]
 8004966:	2319      	movs	r3, #25
 8004968:	2201      	movs	r2, #1
 800496a:	4620      	mov	r0, r4
 800496c:	4990      	ldr	r1, [pc, #576]	@ (8004bb0 <HAL_I2C_Mem_Read+0x278>)
 800496e:	f7ff fcc3 	bl	80042f8 <I2C_WaitOnFlagUntilTimeout>
 8004972:	2800      	cmp	r0, #0
 8004974:	d1f1      	bne.n	800495a <HAL_I2C_Mem_Read+0x22>
    __HAL_LOCK(hi2c);
 8004976:	f894 303c 	ldrb.w	r3, [r4, #60]	@ 0x3c
 800497a:	2b01      	cmp	r3, #1
 800497c:	d0ed      	beq.n	800495a <HAL_I2C_Mem_Read+0x22>
 800497e:	2301      	movs	r3, #1
    if ((hi2c->Instance->CR1 & I2C_CR1_PE) != I2C_CR1_PE)
 8004980:	6820      	ldr	r0, [r4, #0]
    __HAL_LOCK(hi2c);
 8004982:	f884 303c 	strb.w	r3, [r4, #60]	@ 0x3c
    if ((hi2c->Instance->CR1 & I2C_CR1_PE) != I2C_CR1_PE)
 8004986:	6803      	ldr	r3, [r0, #0]
    if (I2C_RequestMemoryRead(hi2c, DevAddress, MemAddress, MemAddSize, Timeout, tickstart) != HAL_OK)
 8004988:	4629      	mov	r1, r5
    if ((hi2c->Instance->CR1 & I2C_CR1_PE) != I2C_CR1_PE)
 800498a:	07db      	lsls	r3, r3, #31
      __HAL_I2C_ENABLE(hi2c);
 800498c:	bf58      	it	pl
 800498e:	6803      	ldrpl	r3, [r0, #0]
    if (I2C_RequestMemoryRead(hi2c, DevAddress, MemAddress, MemAddSize, Timeout, tickstart) != HAL_OK)
 8004990:	4642      	mov	r2, r8
      __HAL_I2C_ENABLE(hi2c);
 8004992:	bf5c      	itt	pl
 8004994:	f043 0301 	orrpl.w	r3, r3, #1
 8004998:	6003      	strpl	r3, [r0, #0]
    CLEAR_BIT(hi2c->Instance->CR1, I2C_CR1_POS);
 800499a:	6803      	ldr	r3, [r0, #0]
 800499c:	f423 6300 	bic.w	r3, r3, #2048	@ 0x800
 80049a0:	6003      	str	r3, [r0, #0]
    hi2c->State     = HAL_I2C_STATE_BUSY_RX;
 80049a2:	2322      	movs	r3, #34	@ 0x22
 80049a4:	f884 303d 	strb.w	r3, [r4, #61]	@ 0x3d
    hi2c->Mode      = HAL_I2C_MODE_MEM;
 80049a8:	2340      	movs	r3, #64	@ 0x40
 80049aa:	f884 303e 	strb.w	r3, [r4, #62]	@ 0x3e
    hi2c->ErrorCode = HAL_I2C_ERROR_NONE;
 80049ae:	2300      	movs	r3, #0
 80049b0:	6423      	str	r3, [r4, #64]	@ 0x40
    hi2c->pBuffPtr    = pData;
 80049b2:	9b10      	ldr	r3, [sp, #64]	@ 0x40
    if (I2C_RequestMemoryRead(hi2c, DevAddress, MemAddress, MemAddSize, Timeout, tickstart) != HAL_OK)
 80049b4:	4620      	mov	r0, r4
    hi2c->pBuffPtr    = pData;
 80049b6:	6263      	str	r3, [r4, #36]	@ 0x24
    hi2c->XferCount   = Size;
 80049b8:	f8bd 3044 	ldrh.w	r3, [sp, #68]	@ 0x44
 80049bc:	8563      	strh	r3, [r4, #42]	@ 0x2a
    hi2c->XferSize    = hi2c->XferCount;
 80049be:	8d63      	ldrh	r3, [r4, #42]	@ 0x2a
 80049c0:	8523      	strh	r3, [r4, #40]	@ 0x28
    hi2c->XferOptions = I2C_NO_OPTION_FRAME;
 80049c2:	4b7c      	ldr	r3, [pc, #496]	@ (8004bb4 <HAL_I2C_Mem_Read+0x27c>)
 80049c4:	62e3      	str	r3, [r4, #44]	@ 0x2c
    if (I2C_RequestMemoryRead(hi2c, DevAddress, MemAddress, MemAddSize, Timeout, tickstart) != HAL_OK)
 80049c6:	464b      	mov	r3, r9
 80049c8:	e9cd 7600 	strd	r7, r6, [sp]
 80049cc:	f7ff fd9a 	bl	8004504 <I2C_RequestMemoryRead>
 80049d0:	4605      	mov	r5, r0
 80049d2:	2800      	cmp	r0, #0
 80049d4:	f040 80ba 	bne.w	8004b4c <HAL_I2C_Mem_Read+0x214>
    if (hi2c->XferSize == 0U)
 80049d8:	8d22      	ldrh	r2, [r4, #40]	@ 0x28
      __HAL_I2C_CLEAR_ADDRFLAG(hi2c);
 80049da:	6823      	ldr	r3, [r4, #0]
    if (hi2c->XferSize == 0U)
 80049dc:	b9c2      	cbnz	r2, 8004a10 <HAL_I2C_Mem_Read+0xd8>
      __HAL_I2C_CLEAR_ADDRFLAG(hi2c);
 80049de:	9004      	str	r0, [sp, #16]
 80049e0:	695a      	ldr	r2, [r3, #20]
 80049e2:	9204      	str	r2, [sp, #16]
 80049e4:	699a      	ldr	r2, [r3, #24]
 80049e6:	9204      	str	r2, [sp, #16]
 80049e8:	9a04      	ldr	r2, [sp, #16]
      SET_BIT(hi2c->Instance->CR1, I2C_CR1_STOP);
 80049ea:	681a      	ldr	r2, [r3, #0]
 80049ec:	f442 7200 	orr.w	r2, r2, #512	@ 0x200
 80049f0:	601a      	str	r2, [r3, #0]
          if (I2C_WaitOnFlagUntilTimeout(hi2c, I2C_FLAG_BTF, RESET, Timeout, tickstart) != HAL_OK)
 80049f2:	f8df 81c4 	ldr.w	r8, [pc, #452]	@ 8004bb8 <HAL_I2C_Mem_Read+0x280>
          count = I2C_TIMEOUT_FLAG * (SystemCoreClock / 25U / 1000U);
 80049f6:	f8df 91c4 	ldr.w	r9, [pc, #452]	@ 8004bbc <HAL_I2C_Mem_Read+0x284>
    while (hi2c->XferSize > 0U)
 80049fa:	8d23      	ldrh	r3, [r4, #40]	@ 0x28
 80049fc:	2b00      	cmp	r3, #0
 80049fe:	d137      	bne.n	8004a70 <HAL_I2C_Mem_Read+0x138>
    hi2c->State = HAL_I2C_STATE_READY;
 8004a00:	2220      	movs	r2, #32
    __HAL_UNLOCK(hi2c);
 8004a02:	f884 303c 	strb.w	r3, [r4, #60]	@ 0x3c
    hi2c->State = HAL_I2C_STATE_READY;
 8004a06:	f884 203d 	strb.w	r2, [r4, #61]	@ 0x3d
    hi2c->Mode = HAL_I2C_MODE_NONE;
 8004a0a:	f884 303e 	strb.w	r3, [r4, #62]	@ 0x3e
    return HAL_OK;
 8004a0e:	e7a5      	b.n	800495c <HAL_I2C_Mem_Read+0x24>
    else if (hi2c->XferSize == 1U)
 8004a10:	2a01      	cmp	r2, #1
 8004a12:	d111      	bne.n	8004a38 <HAL_I2C_Mem_Read+0x100>
      CLEAR_BIT(hi2c->Instance->CR1, I2C_CR1_ACK);
 8004a14:	681a      	ldr	r2, [r3, #0]
 8004a16:	f422 6280 	bic.w	r2, r2, #1024	@ 0x400
 8004a1a:	601a      	str	r2, [r3, #0]
 8004a1c:	b672      	cpsid	i
      __HAL_I2C_CLEAR_ADDRFLAG(hi2c);
 8004a1e:	6823      	ldr	r3, [r4, #0]
 8004a20:	9005      	str	r0, [sp, #20]
 8004a22:	695a      	ldr	r2, [r3, #20]
 8004a24:	9205      	str	r2, [sp, #20]
 8004a26:	699a      	ldr	r2, [r3, #24]
 8004a28:	9205      	str	r2, [sp, #20]
 8004a2a:	9a05      	ldr	r2, [sp, #20]
      SET_BIT(hi2c->Instance->CR1, I2C_CR1_STOP);
 8004a2c:	681a      	ldr	r2, [r3, #0]
 8004a2e:	f442 7200 	orr.w	r2, r2, #512	@ 0x200
 8004a32:	601a      	str	r2, [r3, #0]
  __ASM volatile ("cpsie i" : : : "memory");
 8004a34:	b662      	cpsie	i
}
 8004a36:	e7dc      	b.n	80049f2 <HAL_I2C_Mem_Read+0xba>
    else if (hi2c->XferSize == 2U)
 8004a38:	2a02      	cmp	r2, #2
      SET_BIT(hi2c->Instance->CR1, I2C_CR1_POS);
 8004a3a:	681a      	ldr	r2, [r3, #0]
    else if (hi2c->XferSize == 2U)
 8004a3c:	d10e      	bne.n	8004a5c <HAL_I2C_Mem_Read+0x124>
      SET_BIT(hi2c->Instance->CR1, I2C_CR1_POS);
 8004a3e:	f442 6200 	orr.w	r2, r2, #2048	@ 0x800
 8004a42:	601a      	str	r2, [r3, #0]
  __ASM volatile ("cpsid i" : : : "memory");
 8004a44:	b672      	cpsid	i
      __HAL_I2C_CLEAR_ADDRFLAG(hi2c);
 8004a46:	6823      	ldr	r3, [r4, #0]
 8004a48:	9006      	str	r0, [sp, #24]
 8004a4a:	695a      	ldr	r2, [r3, #20]
 8004a4c:	9206      	str	r2, [sp, #24]
 8004a4e:	699a      	ldr	r2, [r3, #24]
 8004a50:	9206      	str	r2, [sp, #24]
 8004a52:	9a06      	ldr	r2, [sp, #24]
      CLEAR_BIT(hi2c->Instance->CR1, I2C_CR1_ACK);
 8004a54:	681a      	ldr	r2, [r3, #0]
 8004a56:	f422 6280 	bic.w	r2, r2, #1024	@ 0x400
 8004a5a:	e7ea      	b.n	8004a32 <HAL_I2C_Mem_Read+0xfa>
      SET_BIT(hi2c->Instance->CR1, I2C_CR1_ACK);
 8004a5c:	f442 6280 	orr.w	r2, r2, #1024	@ 0x400
 8004a60:	601a      	str	r2, [r3, #0]
      __HAL_I2C_CLEAR_ADDRFLAG(hi2c);
 8004a62:	9007      	str	r0, [sp, #28]
 8004a64:	695a      	ldr	r2, [r3, #20]
 8004a66:	9207      	str	r2, [sp, #28]
 8004a68:	699b      	ldr	r3, [r3, #24]
 8004a6a:	9307      	str	r3, [sp, #28]
 8004a6c:	9b07      	ldr	r3, [sp, #28]
 8004a6e:	e7c0      	b.n	80049f2 <HAL_I2C_Mem_Read+0xba>
      if (hi2c->XferSize <= 3U)
 8004a70:	2b03      	cmp	r3, #3
 8004a72:	d878      	bhi.n	8004b66 <HAL_I2C_Mem_Read+0x22e>
        if (hi2c->XferSize == 1U)
 8004a74:	2b01      	cmp	r3, #1
 8004a76:	d115      	bne.n	8004aa4 <HAL_I2C_Mem_Read+0x16c>
          if (I2C_WaitOnRXNEFlagUntilTimeout(hi2c, Timeout, tickstart) != HAL_OK)
 8004a78:	4632      	mov	r2, r6
 8004a7a:	4639      	mov	r1, r7
 8004a7c:	4620      	mov	r0, r4
 8004a7e:	f7ff fdef 	bl	8004660 <I2C_WaitOnRXNEFlagUntilTimeout>
 8004a82:	2800      	cmp	r0, #0
 8004a84:	d162      	bne.n	8004b4c <HAL_I2C_Mem_Read+0x214>
          *hi2c->pBuffPtr = (uint8_t)hi2c->Instance->DR;
 8004a86:	6823      	ldr	r3, [r4, #0]
 8004a88:	691a      	ldr	r2, [r3, #16]
 8004a8a:	6a63      	ldr	r3, [r4, #36]	@ 0x24
 8004a8c:	701a      	strb	r2, [r3, #0]
          hi2c->pBuffPtr++;
 8004a8e:	6a63      	ldr	r3, [r4, #36]	@ 0x24
 8004a90:	3301      	adds	r3, #1
 8004a92:	6263      	str	r3, [r4, #36]	@ 0x24
          hi2c->XferSize--;
 8004a94:	8d23      	ldrh	r3, [r4, #40]	@ 0x28
 8004a96:	3b01      	subs	r3, #1
 8004a98:	8523      	strh	r3, [r4, #40]	@ 0x28
          hi2c->XferCount--;
 8004a9a:	8d63      	ldrh	r3, [r4, #42]	@ 0x2a
 8004a9c:	3b01      	subs	r3, #1
 8004a9e:	b29b      	uxth	r3, r3
 8004aa0:	8563      	strh	r3, [r4, #42]	@ 0x2a
 8004aa2:	e7aa      	b.n	80049fa <HAL_I2C_Mem_Read+0xc2>
        else if (hi2c->XferSize == 2U)
 8004aa4:	2b02      	cmp	r3, #2
          if (I2C_WaitOnFlagUntilTimeout(hi2c, I2C_FLAG_BTF, RESET, Timeout, tickstart) != HAL_OK)
 8004aa6:	f04f 0200 	mov.w	r2, #0
 8004aaa:	463b      	mov	r3, r7
 8004aac:	4641      	mov	r1, r8
 8004aae:	4620      	mov	r0, r4
 8004ab0:	9600      	str	r6, [sp, #0]
        else if (hi2c->XferSize == 2U)
 8004ab2:	d118      	bne.n	8004ae6 <HAL_I2C_Mem_Read+0x1ae>
          if (I2C_WaitOnFlagUntilTimeout(hi2c, I2C_FLAG_BTF, RESET, Timeout, tickstart) != HAL_OK)
 8004ab4:	f7ff fc20 	bl	80042f8 <I2C_WaitOnFlagUntilTimeout>
 8004ab8:	2800      	cmp	r0, #0
 8004aba:	d147      	bne.n	8004b4c <HAL_I2C_Mem_Read+0x214>
 8004abc:	b672      	cpsid	i
          SET_BIT(hi2c->Instance->CR1, I2C_CR1_STOP);
 8004abe:	6823      	ldr	r3, [r4, #0]
 8004ac0:	681a      	ldr	r2, [r3, #0]
 8004ac2:	f442 7200 	orr.w	r2, r2, #512	@ 0x200
 8004ac6:	601a      	str	r2, [r3, #0]
          *hi2c->pBuffPtr = (uint8_t)hi2c->Instance->DR;
 8004ac8:	691a      	ldr	r2, [r3, #16]
 8004aca:	6a63      	ldr	r3, [r4, #36]	@ 0x24
 8004acc:	701a      	strb	r2, [r3, #0]
          hi2c->pBuffPtr++;
 8004ace:	6a63      	ldr	r3, [r4, #36]	@ 0x24
 8004ad0:	3301      	adds	r3, #1
 8004ad2:	6263      	str	r3, [r4, #36]	@ 0x24
          hi2c->XferSize--;
 8004ad4:	8d23      	ldrh	r3, [r4, #40]	@ 0x28
 8004ad6:	3b01      	subs	r3, #1
 8004ad8:	8523      	strh	r3, [r4, #40]	@ 0x28
          hi2c->XferCount--;
 8004ada:	8d63      	ldrh	r3, [r4, #42]	@ 0x2a
 8004adc:	3b01      	subs	r3, #1
 8004ade:	b29b      	uxth	r3, r3
 8004ae0:	8563      	strh	r3, [r4, #42]	@ 0x2a
  __ASM volatile ("cpsie i" : : : "memory");
 8004ae2:	b662      	cpsie	i
 8004ae4:	e7cf      	b.n	8004a86 <HAL_I2C_Mem_Read+0x14e>
          if (I2C_WaitOnFlagUntilTimeout(hi2c, I2C_FLAG_BTF, RESET, Timeout, tickstart) != HAL_OK)
 8004ae6:	f7ff fc07 	bl	80042f8 <I2C_WaitOnFlagUntilTimeout>
 8004aea:	2800      	cmp	r0, #0
 8004aec:	d12e      	bne.n	8004b4c <HAL_I2C_Mem_Read+0x214>
          CLEAR_BIT(hi2c->Instance->CR1, I2C_CR1_ACK);
 8004aee:	6822      	ldr	r2, [r4, #0]
 8004af0:	6813      	ldr	r3, [r2, #0]
 8004af2:	f423 6380 	bic.w	r3, r3, #1024	@ 0x400
 8004af6:	6013      	str	r3, [r2, #0]
  __ASM volatile ("cpsid i" : : : "memory");
 8004af8:	b672      	cpsid	i
          count = I2C_TIMEOUT_FLAG * (SystemCoreClock / 25U / 1000U);
 8004afa:	f246 11a8 	movw	r1, #25000	@ 0x61a8
          *hi2c->pBuffPtr = (uint8_t)hi2c->Instance->DR;
 8004afe:	6823      	ldr	r3, [r4, #0]
 8004b00:	691a      	ldr	r2, [r3, #16]
 8004b02:	6a63      	ldr	r3, [r4, #36]	@ 0x24
 8004b04:	701a      	strb	r2, [r3, #0]
          hi2c->pBuffPtr++;
 8004b06:	6a62      	ldr	r2, [r4, #36]	@ 0x24
 8004b08:	1c53      	adds	r3, r2, #1
 8004b0a:	6263      	str	r3, [r4, #36]	@ 0x24
          hi2c->XferSize--;
 8004b0c:	8d23      	ldrh	r3, [r4, #40]	@ 0x28
 8004b0e:	3b01      	subs	r3, #1
 8004b10:	8523      	strh	r3, [r4, #40]	@ 0x28
          hi2c->XferCount--;
 8004b12:	8d63      	ldrh	r3, [r4, #42]	@ 0x2a
 8004b14:	3b01      	subs	r3, #1
 8004b16:	b29b      	uxth	r3, r3
 8004b18:	8563      	strh	r3, [r4, #42]	@ 0x2a
          count = I2C_TIMEOUT_FLAG * (SystemCoreClock / 25U / 1000U);
 8004b1a:	f8d9 3000 	ldr.w	r3, [r9]
 8004b1e:	fbb3 f3f1 	udiv	r3, r3, r1
 8004b22:	2123      	movs	r1, #35	@ 0x23
 8004b24:	434b      	muls	r3, r1
 8004b26:	9303      	str	r3, [sp, #12]
            count--;
 8004b28:	9b03      	ldr	r3, [sp, #12]
 8004b2a:	3b01      	subs	r3, #1
 8004b2c:	9303      	str	r3, [sp, #12]
            if (count == 0U)
 8004b2e:	9b03      	ldr	r3, [sp, #12]
 8004b30:	b973      	cbnz	r3, 8004b50 <HAL_I2C_Mem_Read+0x218>
              hi2c->State               = HAL_I2C_STATE_READY;
 8004b32:	2220      	movs	r2, #32
              hi2c->PreviousState       = I2C_STATE_NONE;
 8004b34:	6323      	str	r3, [r4, #48]	@ 0x30
              hi2c->State               = HAL_I2C_STATE_READY;
 8004b36:	f884 203d 	strb.w	r2, [r4, #61]	@ 0x3d
              hi2c->Mode                = HAL_I2C_MODE_NONE;
 8004b3a:	f884 303e 	strb.w	r3, [r4, #62]	@ 0x3e
              hi2c->ErrorCode           |= HAL_I2C_ERROR_TIMEOUT;
 8004b3e:	6c22      	ldr	r2, [r4, #64]	@ 0x40
 8004b40:	f042 0220 	orr.w	r2, r2, #32
 8004b44:	6422      	str	r2, [r4, #64]	@ 0x40
  __ASM volatile ("cpsie i" : : : "memory");
 8004b46:	b662      	cpsie	i
              __HAL_UNLOCK(hi2c);
 8004b48:	f884 303c 	strb.w	r3, [r4, #60]	@ 0x3c
      return HAL_ERROR;
 8004b4c:	2501      	movs	r5, #1
 8004b4e:	e705      	b.n	800495c <HAL_I2C_Mem_Read+0x24>
          while (__HAL_I2C_GET_FLAG(hi2c, I2C_FLAG_BTF) == RESET);
 8004b50:	6823      	ldr	r3, [r4, #0]
 8004b52:	6959      	ldr	r1, [r3, #20]
 8004b54:	0749      	lsls	r1, r1, #29
 8004b56:	d5e7      	bpl.n	8004b28 <HAL_I2C_Mem_Read+0x1f0>
          SET_BIT(hi2c->Instance->CR1, I2C_CR1_STOP);
 8004b58:	6819      	ldr	r1, [r3, #0]
 8004b5a:	f441 7100 	orr.w	r1, r1, #512	@ 0x200
 8004b5e:	6019      	str	r1, [r3, #0]
          *hi2c->pBuffPtr = (uint8_t)hi2c->Instance->DR;
 8004b60:	691b      	ldr	r3, [r3, #16]
 8004b62:	7053      	strb	r3, [r2, #1]
 8004b64:	e7b3      	b.n	8004ace <HAL_I2C_Mem_Read+0x196>
        if (I2C_WaitOnRXNEFlagUntilTimeout(hi2c, Timeout, tickstart) != HAL_OK)
 8004b66:	4632      	mov	r2, r6
 8004b68:	4639      	mov	r1, r7
 8004b6a:	4620      	mov	r0, r4
 8004b6c:	f7ff fd78 	bl	8004660 <I2C_WaitOnRXNEFlagUntilTimeout>
 8004b70:	2800      	cmp	r0, #0
 8004b72:	d1eb      	bne.n	8004b4c <HAL_I2C_Mem_Read+0x214>
        *hi2c->pBuffPtr = (uint8_t)hi2c->Instance->DR;
 8004b74:	6823      	ldr	r3, [r4, #0]
 8004b76:	691a      	ldr	r2, [r3, #16]
 8004b78:	6a63      	ldr	r3, [r4, #36]	@ 0x24
 8004b7a:	701a      	strb	r2, [r3, #0]
        hi2c->XferCount--;
 8004b7c:	8d62      	ldrh	r2, [r4, #42]	@ 0x2a
        hi2c->pBuffPtr++;
 8004b7e:	6a61      	ldr	r1, [r4, #36]	@ 0x24
        hi2c->XferCount--;
 8004b80:	3a01      	subs	r2, #1
 8004b82:	b292      	uxth	r2, r2
        hi2c->pBuffPtr++;
 8004b84:	1c4b      	adds	r3, r1, #1
        hi2c->XferCount--;
 8004b86:	8562      	strh	r2, [r4, #42]	@ 0x2a
        if (__HAL_I2C_GET_FLAG(hi2c, I2C_FLAG_BTF) == SET)
 8004b88:	6822      	ldr	r2, [r4, #0]
        hi2c->pBuffPtr++;
 8004b8a:	6263      	str	r3, [r4, #36]	@ 0x24
        hi2c->XferSize--;
 8004b8c:	8d23      	ldrh	r3, [r4, #40]	@ 0x28
        if (__HAL_I2C_GET_FLAG(hi2c, I2C_FLAG_BTF) == SET)
 8004b8e:	6950      	ldr	r0, [r2, #20]
        hi2c->XferSize--;
 8004b90:	3b01      	subs	r3, #1
 8004b92:	b29b      	uxth	r3, r3
        if (__HAL_I2C_GET_FLAG(hi2c, I2C_FLAG_BTF) == SET)
 8004b94:	0740      	lsls	r0, r0, #29
        hi2c->XferSize--;
 8004b96:	8523      	strh	r3, [r4, #40]	@ 0x28
        if (__HAL_I2C_GET_FLAG(hi2c, I2C_FLAG_BTF) == SET)
 8004b98:	f57f af2f 	bpl.w	80049fa <HAL_I2C_Mem_Read+0xc2>
          if (hi2c->XferSize == 3U)
 8004b9c:	2b03      	cmp	r3, #3
            CLEAR_BIT(hi2c->Instance->CR1, I2C_CR1_ACK);
 8004b9e:	bf02      	ittt	eq
 8004ba0:	6813      	ldreq	r3, [r2, #0]
 8004ba2:	f423 6380 	biceq.w	r3, r3, #1024	@ 0x400
 8004ba6:	6013      	streq	r3, [r2, #0]
          *hi2c->pBuffPtr = (uint8_t)hi2c->Instance->DR;
 8004ba8:	6913      	ldr	r3, [r2, #16]
 8004baa:	704b      	strb	r3, [r1, #1]
 8004bac:	e76f      	b.n	8004a8e <HAL_I2C_Mem_Read+0x156>
 8004bae:	bf00      	nop
 8004bb0:	00100002 	.word	0x00100002
 8004bb4:	ffff0000 	.word	0xffff0000
 8004bb8:	00010004 	.word	0x00010004
 8004bbc:	20000000 	.word	0x20000000

08004bc0 <HAL_RCC_OscConfig>:
  *         supported by this macro. User should request a transition to HSE Off
  *         first and then HSE On or HSE Bypass.
  * @retval HAL status
  */
HAL_StatusTypeDef HAL_RCC_OscConfig(RCC_OscInitTypeDef  *RCC_OscInitStruct)
{
 8004bc0:	e92d 41f3 	stmdb	sp!, {r0, r1, r4, r5, r6, r7, r8, lr}
  uint32_t tickstart;
  uint32_t pll_config;

  /* Check Null pointer */
  if (RCC_OscInitStruct == NULL)
 8004bc4:	4605      	mov	r5, r0
 8004bc6:	b338      	cbz	r0, 8004c18 <HAL_RCC_OscConfig+0x58>

  /* Check the parameters */
  assert_param(IS_RCC_OSCILLATORTYPE(RCC_OscInitStruct->OscillatorType));

  /*------------------------------- HSE Configuration ------------------------*/
  if (((RCC_OscInitStruct->OscillatorType) & RCC_OSCILLATORTYPE_HSE) == RCC_OSCILLATORTYPE_HSE)
 8004bc8:	6803      	ldr	r3, [r0, #0]
 8004bca:	07db      	lsls	r3, r3, #31
 8004bcc:	d410      	bmi.n	8004bf0 <HAL_RCC_OscConfig+0x30>
        }
      }
    }
  }
  /*----------------------------- HSI Configuration --------------------------*/
  if (((RCC_OscInitStruct->OscillatorType) & RCC_OSCILLATORTYPE_HSI) == RCC_OSCILLATORTYPE_HSI)
 8004bce:	682b      	ldr	r3, [r5, #0]
 8004bd0:	079f      	lsls	r7, r3, #30
 8004bd2:	d45e      	bmi.n	8004c92 <HAL_RCC_OscConfig+0xd2>
        }
      }
    }
  }
  /*------------------------------ LSI Configuration -------------------------*/
  if (((RCC_OscInitStruct->OscillatorType) & RCC_OSCILLATORTYPE_LSI) == RCC_OSCILLATORTYPE_LSI)
 8004bd4:	682b      	ldr	r3, [r5, #0]
 8004bd6:	0719      	lsls	r1, r3, #28
 8004bd8:	f100 8095 	bmi.w	8004d06 <HAL_RCC_OscConfig+0x146>
        }
      }
    }
  }
  /*------------------------------ LSE Configuration -------------------------*/
  if (((RCC_OscInitStruct->OscillatorType) & RCC_OSCILLATORTYPE_LSE) == RCC_OSCILLATORTYPE_LSE)
 8004bdc:	682b      	ldr	r3, [r5, #0]
 8004bde:	075a      	lsls	r2, r3, #29
 8004be0:	f100 80c1 	bmi.w	8004d66 <HAL_RCC_OscConfig+0x1a6>

#endif /* RCC_CR_PLL2ON */
  /*-------------------------------- PLL Configuration -----------------------*/
  /* Check the parameters */
  assert_param(IS_RCC_PLL(RCC_OscInitStruct->PLL.PLLState));
  if ((RCC_OscInitStruct->PLL.PLLState) != RCC_PLL_NONE)
 8004be4:	69eb      	ldr	r3, [r5, #28]
 8004be6:	2b00      	cmp	r3, #0
 8004be8:	f040 812c 	bne.w	8004e44 <HAL_RCC_OscConfig+0x284>
        }
      }
    }
  }

  return HAL_OK;
 8004bec:	2000      	movs	r0, #0
 8004bee:	e029      	b.n	8004c44 <HAL_RCC_OscConfig+0x84>
    if ((__HAL_RCC_GET_SYSCLK_SOURCE() == RCC_SYSCLKSOURCE_STATUS_HSE)
 8004bf0:	4c90      	ldr	r4, [pc, #576]	@ (8004e34 <HAL_RCC_OscConfig+0x274>)
 8004bf2:	6863      	ldr	r3, [r4, #4]
 8004bf4:	f003 030c 	and.w	r3, r3, #12
 8004bf8:	2b04      	cmp	r3, #4
 8004bfa:	d007      	beq.n	8004c0c <HAL_RCC_OscConfig+0x4c>
        || ((__HAL_RCC_GET_SYSCLK_SOURCE() == RCC_SYSCLKSOURCE_STATUS_PLLCLK) && (__HAL_RCC_GET_PLL_OSCSOURCE() == RCC_PLLSOURCE_HSE)))
 8004bfc:	6863      	ldr	r3, [r4, #4]
 8004bfe:	f003 030c 	and.w	r3, r3, #12
 8004c02:	2b08      	cmp	r3, #8
 8004c04:	d10a      	bne.n	8004c1c <HAL_RCC_OscConfig+0x5c>
 8004c06:	6863      	ldr	r3, [r4, #4]
 8004c08:	03de      	lsls	r6, r3, #15
 8004c0a:	d507      	bpl.n	8004c1c <HAL_RCC_OscConfig+0x5c>
      if ((__HAL_RCC_GET_FLAG(RCC_FLAG_HSERDY) != RESET) && (RCC_OscInitStruct->HSEState == RCC_HSE_OFF))
 8004c0c:	6823      	ldr	r3, [r4, #0]
 8004c0e:	039c      	lsls	r4, r3, #14
 8004c10:	d5dd      	bpl.n	8004bce <HAL_RCC_OscConfig+0xe>
 8004c12:	686b      	ldr	r3, [r5, #4]
 8004c14:	2b00      	cmp	r3, #0
 8004c16:	d1da      	bne.n	8004bce <HAL_RCC_OscConfig+0xe>
    return HAL_ERROR;
 8004c18:	2001      	movs	r0, #1
 8004c1a:	e013      	b.n	8004c44 <HAL_RCC_OscConfig+0x84>
      __HAL_RCC_HSE_CONFIG(RCC_OscInitStruct->HSEState);
 8004c1c:	686b      	ldr	r3, [r5, #4]
 8004c1e:	f5b3 3f80 	cmp.w	r3, #65536	@ 0x10000
 8004c22:	d112      	bne.n	8004c4a <HAL_RCC_OscConfig+0x8a>
 8004c24:	6823      	ldr	r3, [r4, #0]
 8004c26:	f443 3380 	orr.w	r3, r3, #65536	@ 0x10000
 8004c2a:	6023      	str	r3, [r4, #0]
        tickstart = HAL_GetTick();
 8004c2c:	f7ff fa04 	bl	8004038 <HAL_GetTick>
 8004c30:	4606      	mov	r6, r0
        while (__HAL_RCC_GET_FLAG(RCC_FLAG_HSERDY) == RESET)
 8004c32:	6823      	ldr	r3, [r4, #0]
 8004c34:	0398      	lsls	r0, r3, #14
 8004c36:	d4ca      	bmi.n	8004bce <HAL_RCC_OscConfig+0xe>
          if ((HAL_GetTick() - tickstart) > HSE_TIMEOUT_VALUE)
 8004c38:	f7ff f9fe 	bl	8004038 <HAL_GetTick>
 8004c3c:	1b80      	subs	r0, r0, r6
 8004c3e:	2864      	cmp	r0, #100	@ 0x64
 8004c40:	d9f7      	bls.n	8004c32 <HAL_RCC_OscConfig+0x72>
            return HAL_TIMEOUT;
 8004c42:	2003      	movs	r0, #3
}
 8004c44:	b002      	add	sp, #8
 8004c46:	e8bd 81f0 	ldmia.w	sp!, {r4, r5, r6, r7, r8, pc}
      __HAL_RCC_HSE_CONFIG(RCC_OscInitStruct->HSEState);
 8004c4a:	b99b      	cbnz	r3, 8004c74 <HAL_RCC_OscConfig+0xb4>
 8004c4c:	6823      	ldr	r3, [r4, #0]
 8004c4e:	f423 3380 	bic.w	r3, r3, #65536	@ 0x10000
 8004c52:	6023      	str	r3, [r4, #0]
 8004c54:	6823      	ldr	r3, [r4, #0]
 8004c56:	f423 2380 	bic.w	r3, r3, #262144	@ 0x40000
 8004c5a:	6023      	str	r3, [r4, #0]
        tickstart = HAL_GetTick();
 8004c5c:	f7ff f9ec 	bl	8004038 <HAL_GetTick>
 8004c60:	4606      	mov	r6, r0
        while (__HAL_RCC_GET_FLAG(RCC_FLAG_HSERDY) != RESET)
 8004c62:	6823      	ldr	r3, [r4, #0]
 8004c64:	0399      	lsls	r1, r3, #14
 8004c66:	d5b2      	bpl.n	8004bce <HAL_RCC_OscConfig+0xe>
          if ((HAL_GetTick() - tickstart) > HSE_TIMEOUT_VALUE)
 8004c68:	f7ff f9e6 	bl	8004038 <HAL_GetTick>
 8004c6c:	1b80      	subs	r0, r0, r6
 8004c6e:	2864      	cmp	r0, #100	@ 0x64
 8004c70:	d9f7      	bls.n	8004c62 <HAL_RCC_OscConfig+0xa2>
 8004c72:	e7e6      	b.n	8004c42 <HAL_RCC_OscConfig+0x82>
      __HAL_RCC_HSE_CONFIG(RCC_OscInitStruct->HSEState);
 8004c74:	f5b3 2fa0 	cmp.w	r3, #327680	@ 0x50000
 8004c78:	6823      	ldr	r3, [r4, #0]
 8004c7a:	d103      	bne.n	8004c84 <HAL_RCC_OscConfig+0xc4>
 8004c7c:	f443 2380 	orr.w	r3, r3, #262144	@ 0x40000
 8004c80:	6023      	str	r3, [r4, #0]
 8004c82:	e7cf      	b.n	8004c24 <HAL_RCC_OscConfig+0x64>
 8004c84:	f423 3380 	bic.w	r3, r3, #65536	@ 0x10000
 8004c88:	6023      	str	r3, [r4, #0]
 8004c8a:	6823      	ldr	r3, [r4, #0]
 8004c8c:	f423 2380 	bic.w	r3, r3, #262144	@ 0x40000
 8004c90:	e7cb      	b.n	8004c2a <HAL_RCC_OscConfig+0x6a>
    if ((__HAL_RCC_GET_SYSCLK_SOURCE() == RCC_SYSCLKSOURCE_STATUS_HSI)
 8004c92:	4c68      	ldr	r4, [pc, #416]	@ (8004e34 <HAL_RCC_OscConfig+0x274>)
 8004c94:	6863      	ldr	r3, [r4, #4]
 8004c96:	f013 0f0c 	tst.w	r3, #12
 8004c9a:	d007      	beq.n	8004cac <HAL_RCC_OscConfig+0xec>
        || ((__HAL_RCC_GET_SYSCLK_SOURCE() == RCC_SYSCLKSOURCE_STATUS_PLLCLK) && (__HAL_RCC_GET_PLL_OSCSOURCE() == RCC_PLLSOURCE_HSI_DIV2)))
 8004c9c:	6863      	ldr	r3, [r4, #4]
 8004c9e:	f003 030c 	and.w	r3, r3, #12
 8004ca2:	2b08      	cmp	r3, #8
 8004ca4:	d110      	bne.n	8004cc8 <HAL_RCC_OscConfig+0x108>
 8004ca6:	6863      	ldr	r3, [r4, #4]
 8004ca8:	03da      	lsls	r2, r3, #15
 8004caa:	d40d      	bmi.n	8004cc8 <HAL_RCC_OscConfig+0x108>
      if ((__HAL_RCC_GET_FLAG(RCC_FLAG_HSIRDY) != RESET) && (RCC_OscInitStruct->HSIState != RCC_HSI_ON))
 8004cac:	6823      	ldr	r3, [r4, #0]
 8004cae:	079b      	lsls	r3, r3, #30
 8004cb0:	d502      	bpl.n	8004cb8 <HAL_RCC_OscConfig+0xf8>
 8004cb2:	692b      	ldr	r3, [r5, #16]
 8004cb4:	2b01      	cmp	r3, #1
 8004cb6:	d1af      	bne.n	8004c18 <HAL_RCC_OscConfig+0x58>
        __HAL_RCC_HSI_CALIBRATIONVALUE_ADJUST(RCC_OscInitStruct->HSICalibrationValue);
 8004cb8:	6823      	ldr	r3, [r4, #0]
 8004cba:	696a      	ldr	r2, [r5, #20]
 8004cbc:	f023 03f8 	bic.w	r3, r3, #248	@ 0xf8
 8004cc0:	ea43 03c2 	orr.w	r3, r3, r2, lsl #3
 8004cc4:	6023      	str	r3, [r4, #0]
 8004cc6:	e785      	b.n	8004bd4 <HAL_RCC_OscConfig+0x14>
      if (RCC_OscInitStruct->HSIState != RCC_HSI_OFF)
 8004cc8:	692a      	ldr	r2, [r5, #16]
 8004cca:	4b5b      	ldr	r3, [pc, #364]	@ (8004e38 <HAL_RCC_OscConfig+0x278>)
 8004ccc:	b16a      	cbz	r2, 8004cea <HAL_RCC_OscConfig+0x12a>
        __HAL_RCC_HSI_ENABLE();
 8004cce:	2201      	movs	r2, #1
 8004cd0:	601a      	str	r2, [r3, #0]
        tickstart = HAL_GetTick();
 8004cd2:	f7ff f9b1 	bl	8004038 <HAL_GetTick>
 8004cd6:	4606      	mov	r6, r0
        while (__HAL_RCC_GET_FLAG(RCC_FLAG_HSIRDY) == RESET)
 8004cd8:	6823      	ldr	r3, [r4, #0]
 8004cda:	079f      	lsls	r7, r3, #30
 8004cdc:	d4ec      	bmi.n	8004cb8 <HAL_RCC_OscConfig+0xf8>
          if ((HAL_GetTick() - tickstart) > HSI_TIMEOUT_VALUE)
 8004cde:	f7ff f9ab 	bl	8004038 <HAL_GetTick>
 8004ce2:	1b80      	subs	r0, r0, r6
 8004ce4:	2802      	cmp	r0, #2
 8004ce6:	d9f7      	bls.n	8004cd8 <HAL_RCC_OscConfig+0x118>
 8004ce8:	e7ab      	b.n	8004c42 <HAL_RCC_OscConfig+0x82>
        __HAL_RCC_HSI_DISABLE();
 8004cea:	601a      	str	r2, [r3, #0]
        tickstart = HAL_GetTick();
 8004cec:	f7ff f9a4 	bl	8004038 <HAL_GetTick>
 8004cf0:	4606      	mov	r6, r0
        while (__HAL_RCC_GET_FLAG(RCC_FLAG_HSIRDY) != RESET)
 8004cf2:	6823      	ldr	r3, [r4, #0]
 8004cf4:	0798      	lsls	r0, r3, #30
 8004cf6:	f57f af6d 	bpl.w	8004bd4 <HAL_RCC_OscConfig+0x14>
          if ((HAL_GetTick() - tickstart) > HSI_TIMEOUT_VALUE)
 8004cfa:	f7ff f99d 	bl	8004038 <HAL_GetTick>
 8004cfe:	1b80      	subs	r0, r0, r6
 8004d00:	2802      	cmp	r0, #2
 8004d02:	d9f6      	bls.n	8004cf2 <HAL_RCC_OscConfig+0x132>
 8004d04:	e79d      	b.n	8004c42 <HAL_RCC_OscConfig+0x82>
    if (RCC_OscInitStruct->LSIState != RCC_LSI_OFF)
 8004d06:	69aa      	ldr	r2, [r5, #24]
 8004d08:	4e4a      	ldr	r6, [pc, #296]	@ (8004e34 <HAL_RCC_OscConfig+0x274>)
 8004d0a:	4b4b      	ldr	r3, [pc, #300]	@ (8004e38 <HAL_RCC_OscConfig+0x278>)
 8004d0c:	b1e2      	cbz	r2, 8004d48 <HAL_RCC_OscConfig+0x188>
      __HAL_RCC_LSI_ENABLE();
 8004d0e:	2201      	movs	r2, #1
 8004d10:	f8c3 2480 	str.w	r2, [r3, #1152]	@ 0x480
      tickstart = HAL_GetTick();
 8004d14:	f7ff f990 	bl	8004038 <HAL_GetTick>
 8004d18:	4604      	mov	r4, r0
      while (__HAL_RCC_GET_FLAG(RCC_FLAG_LSIRDY) == RESET)
 8004d1a:	6a73      	ldr	r3, [r6, #36]	@ 0x24
 8004d1c:	079b      	lsls	r3, r3, #30
 8004d1e:	d50d      	bpl.n	8004d3c <HAL_RCC_OscConfig+0x17c>
  * @param  mdelay: specifies the delay time length, in milliseconds.
  * @retval None
  */
static void RCC_Delay(uint32_t mdelay)
{
  __IO uint32_t Delay = mdelay * (SystemCoreClock / 8U / 1000U);
 8004d20:	f44f 52fa 	mov.w	r2, #8000	@ 0x1f40
 8004d24:	4b45      	ldr	r3, [pc, #276]	@ (8004e3c <HAL_RCC_OscConfig+0x27c>)
 8004d26:	681b      	ldr	r3, [r3, #0]
 8004d28:	fbb3 f3f2 	udiv	r3, r3, r2
 8004d2c:	9301      	str	r3, [sp, #4]
  do
  {
    __NOP();
 8004d2e:	bf00      	nop
  }
  while (Delay --);
 8004d30:	9b01      	ldr	r3, [sp, #4]
 8004d32:	1e5a      	subs	r2, r3, #1
 8004d34:	9201      	str	r2, [sp, #4]
 8004d36:	2b00      	cmp	r3, #0
 8004d38:	d1f9      	bne.n	8004d2e <HAL_RCC_OscConfig+0x16e>
 8004d3a:	e74f      	b.n	8004bdc <HAL_RCC_OscConfig+0x1c>
        if ((HAL_GetTick() - tickstart) > LSI_TIMEOUT_VALUE)
 8004d3c:	f7ff f97c 	bl	8004038 <HAL_GetTick>
 8004d40:	1b00      	subs	r0, r0, r4
 8004d42:	2802      	cmp	r0, #2
 8004d44:	d9e9      	bls.n	8004d1a <HAL_RCC_OscConfig+0x15a>
 8004d46:	e77c      	b.n	8004c42 <HAL_RCC_OscConfig+0x82>
      __HAL_RCC_LSI_DISABLE();
 8004d48:	f8c3 2480 	str.w	r2, [r3, #1152]	@ 0x480
      tickstart = HAL_GetTick();
 8004d4c:	f7ff f974 	bl	8004038 <HAL_GetTick>
 8004d50:	4604      	mov	r4, r0
      while (__HAL_RCC_GET_FLAG(RCC_FLAG_LSIRDY) != RESET)
 8004d52:	6a73      	ldr	r3, [r6, #36]	@ 0x24
 8004d54:	079f      	lsls	r7, r3, #30
 8004d56:	f57f af41 	bpl.w	8004bdc <HAL_RCC_OscConfig+0x1c>
        if ((HAL_GetTick() - tickstart) > LSI_TIMEOUT_VALUE)
 8004d5a:	f7ff f96d 	bl	8004038 <HAL_GetTick>
 8004d5e:	1b00      	subs	r0, r0, r4
 8004d60:	2802      	cmp	r0, #2
 8004d62:	d9f6      	bls.n	8004d52 <HAL_RCC_OscConfig+0x192>
 8004d64:	e76d      	b.n	8004c42 <HAL_RCC_OscConfig+0x82>
    if (__HAL_RCC_PWR_IS_CLK_DISABLED())
 8004d66:	4c33      	ldr	r4, [pc, #204]	@ (8004e34 <HAL_RCC_OscConfig+0x274>)
 8004d68:	69e3      	ldr	r3, [r4, #28]
 8004d6a:	00d8      	lsls	r0, r3, #3
 8004d6c:	d424      	bmi.n	8004db8 <HAL_RCC_OscConfig+0x1f8>
      pwrclkchanged = SET;
 8004d6e:	2701      	movs	r7, #1
      __HAL_RCC_PWR_CLK_ENABLE();
 8004d70:	69e3      	ldr	r3, [r4, #28]
 8004d72:	f043 5380 	orr.w	r3, r3, #268435456	@ 0x10000000
 8004d76:	61e3      	str	r3, [r4, #28]
 8004d78:	69e3      	ldr	r3, [r4, #28]
 8004d7a:	f003 5380 	and.w	r3, r3, #268435456	@ 0x10000000
 8004d7e:	9300      	str	r3, [sp, #0]
 8004d80:	9b00      	ldr	r3, [sp, #0]
    if (HAL_IS_BIT_CLR(PWR->CR, PWR_CR_DBP))
 8004d82:	4e2f      	ldr	r6, [pc, #188]	@ (8004e40 <HAL_RCC_OscConfig+0x280>)
 8004d84:	6833      	ldr	r3, [r6, #0]
 8004d86:	05d9      	lsls	r1, r3, #23
 8004d88:	d518      	bpl.n	8004dbc <HAL_RCC_OscConfig+0x1fc>
    __HAL_RCC_LSE_CONFIG(RCC_OscInitStruct->LSEState);
 8004d8a:	68eb      	ldr	r3, [r5, #12]
 8004d8c:	2b01      	cmp	r3, #1
 8004d8e:	d126      	bne.n	8004dde <HAL_RCC_OscConfig+0x21e>
 8004d90:	6a23      	ldr	r3, [r4, #32]
 8004d92:	f043 0301 	orr.w	r3, r3, #1
 8004d96:	6223      	str	r3, [r4, #32]
      tickstart = HAL_GetTick();
 8004d98:	f7ff f94e 	bl	8004038 <HAL_GetTick>
        if ((HAL_GetTick() - tickstart) > RCC_LSE_TIMEOUT_VALUE)
 8004d9c:	f241 3888 	movw	r8, #5000	@ 0x1388
      tickstart = HAL_GetTick();
 8004da0:	4606      	mov	r6, r0
      while (__HAL_RCC_GET_FLAG(RCC_FLAG_LSERDY) == RESET)
 8004da2:	6a23      	ldr	r3, [r4, #32]
 8004da4:	079b      	lsls	r3, r3, #30
 8004da6:	d53f      	bpl.n	8004e28 <HAL_RCC_OscConfig+0x268>
    if (pwrclkchanged == SET)
 8004da8:	2f00      	cmp	r7, #0
 8004daa:	f43f af1b 	beq.w	8004be4 <HAL_RCC_OscConfig+0x24>
      __HAL_RCC_PWR_CLK_DISABLE();
 8004dae:	69e3      	ldr	r3, [r4, #28]
 8004db0:	f023 5380 	bic.w	r3, r3, #268435456	@ 0x10000000
 8004db4:	61e3      	str	r3, [r4, #28]
 8004db6:	e715      	b.n	8004be4 <HAL_RCC_OscConfig+0x24>
    FlagStatus       pwrclkchanged = RESET;
 8004db8:	2700      	movs	r7, #0
 8004dba:	e7e2      	b.n	8004d82 <HAL_RCC_OscConfig+0x1c2>
      SET_BIT(PWR->CR, PWR_CR_DBP);
 8004dbc:	6833      	ldr	r3, [r6, #0]
 8004dbe:	f443 7380 	orr.w	r3, r3, #256	@ 0x100
 8004dc2:	6033      	str	r3, [r6, #0]
      tickstart = HAL_GetTick();
 8004dc4:	f7ff f938 	bl	8004038 <HAL_GetTick>
 8004dc8:	4680      	mov	r8, r0
      while (HAL_IS_BIT_CLR(PWR->CR, PWR_CR_DBP))
 8004dca:	6833      	ldr	r3, [r6, #0]
 8004dcc:	05da      	lsls	r2, r3, #23
 8004dce:	d4dc      	bmi.n	8004d8a <HAL_RCC_OscConfig+0x1ca>
        if ((HAL_GetTick() - tickstart) > RCC_DBP_TIMEOUT_VALUE)
 8004dd0:	f7ff f932 	bl	8004038 <HAL_GetTick>
 8004dd4:	eba0 0008 	sub.w	r0, r0, r8
 8004dd8:	2864      	cmp	r0, #100	@ 0x64
 8004dda:	d9f6      	bls.n	8004dca <HAL_RCC_OscConfig+0x20a>
 8004ddc:	e731      	b.n	8004c42 <HAL_RCC_OscConfig+0x82>
    __HAL_RCC_LSE_CONFIG(RCC_OscInitStruct->LSEState);
 8004dde:	b9ab      	cbnz	r3, 8004e0c <HAL_RCC_OscConfig+0x24c>
 8004de0:	6a23      	ldr	r3, [r4, #32]
        if ((HAL_GetTick() - tickstart) > RCC_LSE_TIMEOUT_VALUE)
 8004de2:	f241 3888 	movw	r8, #5000	@ 0x1388
    __HAL_RCC_LSE_CONFIG(RCC_OscInitStruct->LSEState);
 8004de6:	f023 0301 	bic.w	r3, r3, #1
 8004dea:	6223      	str	r3, [r4, #32]
 8004dec:	6a23      	ldr	r3, [r4, #32]
 8004dee:	f023 0304 	bic.w	r3, r3, #4
 8004df2:	6223      	str	r3, [r4, #32]
      tickstart = HAL_GetTick();
 8004df4:	f7ff f920 	bl	8004038 <HAL_GetTick>
 8004df8:	4606      	mov	r6, r0
      while (__HAL_RCC_GET_FLAG(RCC_FLAG_LSERDY) != RESET)
 8004dfa:	6a23      	ldr	r3, [r4, #32]
 8004dfc:	0798      	lsls	r0, r3, #30
 8004dfe:	d5d3      	bpl.n	8004da8 <HAL_RCC_OscConfig+0x1e8>
        if ((HAL_GetTick() - tickstart) > RCC_LSE_TIMEOUT_VALUE)
 8004e00:	f7ff f91a 	bl	8004038 <HAL_GetTick>
 8004e04:	1b80      	subs	r0, r0, r6
 8004e06:	4540      	cmp	r0, r8
 8004e08:	d9f7      	bls.n	8004dfa <HAL_RCC_OscConfig+0x23a>
 8004e0a:	e71a      	b.n	8004c42 <HAL_RCC_OscConfig+0x82>
    __HAL_RCC_LSE_CONFIG(RCC_OscInitStruct->LSEState);
 8004e0c:	2b05      	cmp	r3, #5
 8004e0e:	6a23      	ldr	r3, [r4, #32]
 8004e10:	d103      	bne.n	8004e1a <HAL_RCC_OscConfig+0x25a>
 8004e12:	f043 0304 	orr.w	r3, r3, #4
 8004e16:	6223      	str	r3, [r4, #32]
 8004e18:	e7ba      	b.n	8004d90 <HAL_RCC_OscConfig+0x1d0>
 8004e1a:	f023 0301 	bic.w	r3, r3, #1
 8004e1e:	6223      	str	r3, [r4, #32]
 8004e20:	6a23      	ldr	r3, [r4, #32]
 8004e22:	f023 0304 	bic.w	r3, r3, #4
 8004e26:	e7b6      	b.n	8004d96 <HAL_RCC_OscConfig+0x1d6>
        if ((HAL_GetTick() - tickstart) > RCC_LSE_TIMEOUT_VALUE)
 8004e28:	f7ff f906 	bl	8004038 <HAL_GetTick>
 8004e2c:	1b80      	subs	r0, r0, r6
 8004e2e:	4540      	cmp	r0, r8
 8004e30:	d9b7      	bls.n	8004da2 <HAL_RCC_OscConfig+0x1e2>
 8004e32:	e706      	b.n	8004c42 <HAL_RCC_OscConfig+0x82>
 8004e34:	40021000 	.word	0x40021000
 8004e38:	42420000 	.word	0x42420000
 8004e3c:	20000000 	.word	0x20000000
 8004e40:	40007000 	.word	0x40007000
    if (__HAL_RCC_GET_SYSCLK_SOURCE() != RCC_SYSCLKSOURCE_STATUS_PLLCLK)
 8004e44:	4c2a      	ldr	r4, [pc, #168]	@ (8004ef0 <HAL_RCC_OscConfig+0x330>)
 8004e46:	6862      	ldr	r2, [r4, #4]
 8004e48:	f002 020c 	and.w	r2, r2, #12
 8004e4c:	2a08      	cmp	r2, #8
 8004e4e:	d03e      	beq.n	8004ece <HAL_RCC_OscConfig+0x30e>
      if ((RCC_OscInitStruct->PLL.PLLState) == RCC_PLL_ON)
 8004e50:	2200      	movs	r2, #0
 8004e52:	2b02      	cmp	r3, #2
 8004e54:	4b27      	ldr	r3, [pc, #156]	@ (8004ef4 <HAL_RCC_OscConfig+0x334>)
        __HAL_RCC_PLL_DISABLE();
 8004e56:	661a      	str	r2, [r3, #96]	@ 0x60
      if ((RCC_OscInitStruct->PLL.PLLState) == RCC_PLL_ON)
 8004e58:	d12c      	bne.n	8004eb4 <HAL_RCC_OscConfig+0x2f4>
        tickstart = HAL_GetTick();
 8004e5a:	f7ff f8ed 	bl	8004038 <HAL_GetTick>
 8004e5e:	4606      	mov	r6, r0
        while (__HAL_RCC_GET_FLAG(RCC_FLAG_PLLRDY)  != RESET)
 8004e60:	6823      	ldr	r3, [r4, #0]
 8004e62:	0199      	lsls	r1, r3, #6
 8004e64:	d420      	bmi.n	8004ea8 <HAL_RCC_OscConfig+0x2e8>
        if (RCC_OscInitStruct->PLL.PLLSource == RCC_PLLSOURCE_HSE)
 8004e66:	6a2b      	ldr	r3, [r5, #32]
 8004e68:	f5b3 3f80 	cmp.w	r3, #65536	@ 0x10000
 8004e6c:	d105      	bne.n	8004e7a <HAL_RCC_OscConfig+0x2ba>
          __HAL_RCC_HSE_PREDIV_CONFIG(RCC_OscInitStruct->HSEPredivValue);
 8004e6e:	6862      	ldr	r2, [r4, #4]
 8004e70:	68a9      	ldr	r1, [r5, #8]
 8004e72:	f422 3200 	bic.w	r2, r2, #131072	@ 0x20000
 8004e76:	430a      	orrs	r2, r1
 8004e78:	6062      	str	r2, [r4, #4]
        __HAL_RCC_PLL_CONFIG(RCC_OscInitStruct->PLL.PLLSource,
 8004e7a:	6a69      	ldr	r1, [r5, #36]	@ 0x24
 8004e7c:	6862      	ldr	r2, [r4, #4]
 8004e7e:	430b      	orrs	r3, r1
 8004e80:	f422 1274 	bic.w	r2, r2, #3997696	@ 0x3d0000
 8004e84:	4313      	orrs	r3, r2
        __HAL_RCC_PLL_ENABLE();
 8004e86:	2201      	movs	r2, #1
        __HAL_RCC_PLL_CONFIG(RCC_OscInitStruct->PLL.PLLSource,
 8004e88:	6063      	str	r3, [r4, #4]
        __HAL_RCC_PLL_ENABLE();
 8004e8a:	4b1a      	ldr	r3, [pc, #104]	@ (8004ef4 <HAL_RCC_OscConfig+0x334>)
 8004e8c:	661a      	str	r2, [r3, #96]	@ 0x60
        tickstart = HAL_GetTick();
 8004e8e:	f7ff f8d3 	bl	8004038 <HAL_GetTick>
 8004e92:	4605      	mov	r5, r0
        while (__HAL_RCC_GET_FLAG(RCC_FLAG_PLLRDY)  == RESET)
 8004e94:	6823      	ldr	r3, [r4, #0]
 8004e96:	019a      	lsls	r2, r3, #6
 8004e98:	f53f aea8 	bmi.w	8004bec <HAL_RCC_OscConfig+0x2c>
          if ((HAL_GetTick() - tickstart) > PLL_TIMEOUT_VALUE)
 8004e9c:	f7ff f8cc 	bl	8004038 <HAL_GetTick>
 8004ea0:	1b40      	subs	r0, r0, r5
 8004ea2:	2802      	cmp	r0, #2
 8004ea4:	d9f6      	bls.n	8004e94 <HAL_RCC_OscConfig+0x2d4>
 8004ea6:	e6cc      	b.n	8004c42 <HAL_RCC_OscConfig+0x82>
          if ((HAL_GetTick() - tickstart) > PLL_TIMEOUT_VALUE)
 8004ea8:	f7ff f8c6 	bl	8004038 <HAL_GetTick>
 8004eac:	1b80      	subs	r0, r0, r6
 8004eae:	2802      	cmp	r0, #2
 8004eb0:	d9d6      	bls.n	8004e60 <HAL_RCC_OscConfig+0x2a0>
 8004eb2:	e6c6      	b.n	8004c42 <HAL_RCC_OscConfig+0x82>
        tickstart = HAL_GetTick();
 8004eb4:	f7ff f8c0 	bl	8004038 <HAL_GetTick>
 8004eb8:	4605      	mov	r5, r0
        while (__HAL_RCC_GET_FLAG(RCC_FLAG_PLLRDY)  != RESET)
 8004eba:	6823      	ldr	r3, [r4, #0]
 8004ebc:	019b      	lsls	r3, r3, #6
 8004ebe:	f57f ae95 	bpl.w	8004bec <HAL_RCC_OscConfig+0x2c>
          if ((HAL_GetTick() - tickstart) > PLL_TIMEOUT_VALUE)
 8004ec2:	f7ff f8b9 	bl	8004038 <HAL_GetTick>
 8004ec6:	1b40      	subs	r0, r0, r5
 8004ec8:	2802      	cmp	r0, #2
 8004eca:	d9f6      	bls.n	8004eba <HAL_RCC_OscConfig+0x2fa>
 8004ecc:	e6b9      	b.n	8004c42 <HAL_RCC_OscConfig+0x82>
      if ((RCC_OscInitStruct->PLL.PLLState) == RCC_PLL_OFF)
 8004ece:	2b01      	cmp	r3, #1
 8004ed0:	f43f aea2 	beq.w	8004c18 <HAL_RCC_OscConfig+0x58>
        pll_config = RCC->CFGR;
 8004ed4:	6860      	ldr	r0, [r4, #4]
        if ((READ_BIT(pll_config, RCC_CFGR_PLLSRC) != RCC_OscInitStruct->PLL.PLLSource) ||
 8004ed6:	6a2b      	ldr	r3, [r5, #32]
 8004ed8:	f400 3280 	and.w	r2, r0, #65536	@ 0x10000
 8004edc:	429a      	cmp	r2, r3
 8004ede:	f47f ae9b 	bne.w	8004c18 <HAL_RCC_OscConfig+0x58>
 8004ee2:	6a6b      	ldr	r3, [r5, #36]	@ 0x24
            (READ_BIT(pll_config, RCC_CFGR_PLLMULL) != RCC_OscInitStruct->PLL.PLLMUL))
 8004ee4:	f400 1070 	and.w	r0, r0, #3932160	@ 0x3c0000
        if ((READ_BIT(pll_config, RCC_CFGR_PLLSRC) != RCC_OscInitStruct->PLL.PLLSource) ||
 8004ee8:	1ac0      	subs	r0, r0, r3
 8004eea:	bf18      	it	ne
 8004eec:	2001      	movne	r0, #1
 8004eee:	e6a9      	b.n	8004c44 <HAL_RCC_OscConfig+0x84>
 8004ef0:	40021000 	.word	0x40021000
 8004ef4:	42420000 	.word	0x42420000

08004ef8 <HAL_RCC_GetSysClockFreq>:
  tmpreg = RCC->CFGR;
 8004ef8:	4a0d      	ldr	r2, [pc, #52]	@ (8004f30 <HAL_RCC_GetSysClockFreq+0x38>)
 8004efa:	6853      	ldr	r3, [r2, #4]
  switch (tmpreg & RCC_CFGR_SWS)
 8004efc:	f003 010c 	and.w	r1, r3, #12
 8004f00:	2908      	cmp	r1, #8
 8004f02:	d112      	bne.n	8004f2a <HAL_RCC_GetSysClockFreq+0x32>
      pllmul = aPLLMULFactorTable[(uint32_t)(tmpreg & RCC_CFGR_PLLMULL) >> RCC_CFGR_PLLMULL_Pos];
 8004f04:	480b      	ldr	r0, [pc, #44]	@ (8004f34 <HAL_RCC_GetSysClockFreq+0x3c>)
 8004f06:	f3c3 4183 	ubfx	r1, r3, #18, #4
      if ((tmpreg & RCC_CFGR_PLLSRC) != RCC_PLLSOURCE_HSI_DIV2)
 8004f0a:	03db      	lsls	r3, r3, #15
      pllmul = aPLLMULFactorTable[(uint32_t)(tmpreg & RCC_CFGR_PLLMULL) >> RCC_CFGR_PLLMULL_Pos];
 8004f0c:	5c40      	ldrb	r0, [r0, r1]
      if ((tmpreg & RCC_CFGR_PLLSRC) != RCC_PLLSOURCE_HSI_DIV2)
 8004f0e:	d509      	bpl.n	8004f24 <HAL_RCC_GetSysClockFreq+0x2c>
        prediv = aPredivFactorTable[(uint32_t)(RCC->CFGR & RCC_CFGR_PLLXTPRE) >> RCC_CFGR_PLLXTPRE_Pos];
 8004f10:	6853      	ldr	r3, [r2, #4]
        pllclk = (uint32_t)((HSE_VALUE  * pllmul) / prediv);
 8004f12:	4a09      	ldr	r2, [pc, #36]	@ (8004f38 <HAL_RCC_GetSysClockFreq+0x40>)
        prediv = aPredivFactorTable[(uint32_t)(RCC->CFGR & RCC_CFGR_PLLXTPRE) >> RCC_CFGR_PLLXTPRE_Pos];
 8004f14:	f3c3 4340 	ubfx	r3, r3, #17, #1
        pllclk = (uint32_t)((HSE_VALUE  * pllmul) / prediv);
 8004f18:	4350      	muls	r0, r2
        prediv = aPredivFactorTable[(uint32_t)(RCC->CFGR & RCC_CFGR_PLLXTPRE) >> RCC_CFGR_PLLXTPRE_Pos];
 8004f1a:	4a08      	ldr	r2, [pc, #32]	@ (8004f3c <HAL_RCC_GetSysClockFreq+0x44>)
 8004f1c:	5cd3      	ldrb	r3, [r2, r3]
        pllclk = (uint32_t)((HSE_VALUE  * pllmul) / prediv);
 8004f1e:	fbb0 f0f3 	udiv	r0, r0, r3
 8004f22:	4770      	bx	lr
        pllclk = (uint32_t)((HSI_VALUE >> 1) * pllmul);
 8004f24:	4b06      	ldr	r3, [pc, #24]	@ (8004f40 <HAL_RCC_GetSysClockFreq+0x48>)
 8004f26:	4358      	muls	r0, r3
 8004f28:	4770      	bx	lr
      sysclockfreq = HSE_VALUE;
 8004f2a:	4803      	ldr	r0, [pc, #12]	@ (8004f38 <HAL_RCC_GetSysClockFreq+0x40>)
}
 8004f2c:	4770      	bx	lr
 8004f2e:	bf00      	nop
 8004f30:	40021000 	.word	0x40021000
 8004f34:	08008350 	.word	0x08008350
 8004f38:	007a1200 	.word	0x007a1200
 8004f3c:	0800834e 	.word	0x0800834e
 8004f40:	003d0900 	.word	0x003d0900

08004f44 <HAL_RCC_ClockConfig>:
{
 8004f44:	e92d 41f0 	stmdb	sp!, {r4, r5, r6, r7, r8, lr}
 8004f48:	460d      	mov	r5, r1
  if (RCC_ClkInitStruct == NULL)
 8004f4a:	4604      	mov	r4, r0
 8004f4c:	b910      	cbnz	r0, 8004f54 <HAL_RCC_ClockConfig+0x10>
    return HAL_ERROR;
 8004f4e:	2001      	movs	r0, #1
}
 8004f50:	e8bd 81f0 	ldmia.w	sp!, {r4, r5, r6, r7, r8, pc}
  if (FLatency > __HAL_FLASH_GET_LATENCY())
 8004f54:	4a44      	ldr	r2, [pc, #272]	@ (8005068 <HAL_RCC_ClockConfig+0x124>)
 8004f56:	6813      	ldr	r3, [r2, #0]
 8004f58:	f003 0307 	and.w	r3, r3, #7
 8004f5c:	428b      	cmp	r3, r1
 8004f5e:	d328      	bcc.n	8004fb2 <HAL_RCC_ClockConfig+0x6e>
if (((RCC_ClkInitStruct->ClockType) & RCC_CLOCKTYPE_HCLK) == RCC_CLOCKTYPE_HCLK)
 8004f60:	6821      	ldr	r1, [r4, #0]
 8004f62:	078e      	lsls	r6, r1, #30
 8004f64:	d430      	bmi.n	8004fc8 <HAL_RCC_ClockConfig+0x84>
  if (((RCC_ClkInitStruct->ClockType) & RCC_CLOCKTYPE_SYSCLK) == RCC_CLOCKTYPE_SYSCLK)
 8004f66:	07ca      	lsls	r2, r1, #31
 8004f68:	d443      	bmi.n	8004ff2 <HAL_RCC_ClockConfig+0xae>
  if (FLatency < __HAL_FLASH_GET_LATENCY())
 8004f6a:	4a3f      	ldr	r2, [pc, #252]	@ (8005068 <HAL_RCC_ClockConfig+0x124>)
 8004f6c:	6813      	ldr	r3, [r2, #0]
 8004f6e:	f003 0307 	and.w	r3, r3, #7
 8004f72:	42ab      	cmp	r3, r5
 8004f74:	d865      	bhi.n	8005042 <HAL_RCC_ClockConfig+0xfe>
if (((RCC_ClkInitStruct->ClockType) & RCC_CLOCKTYPE_PCLK1) == RCC_CLOCKTYPE_PCLK1)
 8004f76:	6822      	ldr	r2, [r4, #0]
 8004f78:	4d3c      	ldr	r5, [pc, #240]	@ (800506c <HAL_RCC_ClockConfig+0x128>)
 8004f7a:	f012 0f04 	tst.w	r2, #4
 8004f7e:	d16c      	bne.n	800505a <HAL_RCC_ClockConfig+0x116>
  if (((RCC_ClkInitStruct->ClockType) & RCC_CLOCKTYPE_PCLK2) == RCC_CLOCKTYPE_PCLK2)
 8004f80:	0713      	lsls	r3, r2, #28
 8004f82:	d506      	bpl.n	8004f92 <HAL_RCC_ClockConfig+0x4e>
    MODIFY_REG(RCC->CFGR, RCC_CFGR_PPRE2, ((RCC_ClkInitStruct->APB2CLKDivider) << 3));
 8004f84:	686b      	ldr	r3, [r5, #4]
 8004f86:	6922      	ldr	r2, [r4, #16]
 8004f88:	f423 5360 	bic.w	r3, r3, #14336	@ 0x3800
 8004f8c:	ea43 03c2 	orr.w	r3, r3, r2, lsl #3
 8004f90:	606b      	str	r3, [r5, #4]
  SystemCoreClock = HAL_RCC_GetSysClockFreq() >> AHBPrescTable[(RCC->CFGR & RCC_CFGR_HPRE) >> RCC_CFGR_HPRE_Pos];
 8004f92:	f7ff ffb1 	bl	8004ef8 <HAL_RCC_GetSysClockFreq>
 8004f96:	686b      	ldr	r3, [r5, #4]
 8004f98:	4a35      	ldr	r2, [pc, #212]	@ (8005070 <HAL_RCC_ClockConfig+0x12c>)
 8004f9a:	f3c3 1303 	ubfx	r3, r3, #4, #4
 8004f9e:	5cd3      	ldrb	r3, [r2, r3]
 8004fa0:	40d8      	lsrs	r0, r3
 8004fa2:	4b34      	ldr	r3, [pc, #208]	@ (8005074 <HAL_RCC_ClockConfig+0x130>)
 8004fa4:	6018      	str	r0, [r3, #0]
  HAL_InitTick(uwTickPrio);
 8004fa6:	4b34      	ldr	r3, [pc, #208]	@ (8005078 <HAL_RCC_ClockConfig+0x134>)
 8004fa8:	6818      	ldr	r0, [r3, #0]
 8004faa:	f7ff f803 	bl	8003fb4 <HAL_InitTick>
  return HAL_OK;
 8004fae:	2000      	movs	r0, #0
 8004fb0:	e7ce      	b.n	8004f50 <HAL_RCC_ClockConfig+0xc>
    __HAL_FLASH_SET_LATENCY(FLatency);
 8004fb2:	6813      	ldr	r3, [r2, #0]
 8004fb4:	f023 0307 	bic.w	r3, r3, #7
 8004fb8:	430b      	orrs	r3, r1
 8004fba:	6013      	str	r3, [r2, #0]
    if (__HAL_FLASH_GET_LATENCY() != FLatency)
 8004fbc:	6813      	ldr	r3, [r2, #0]
 8004fbe:	f003 0307 	and.w	r3, r3, #7
 8004fc2:	428b      	cmp	r3, r1
 8004fc4:	d1c3      	bne.n	8004f4e <HAL_RCC_ClockConfig+0xa>
 8004fc6:	e7cb      	b.n	8004f60 <HAL_RCC_ClockConfig+0x1c>
    if (((RCC_ClkInitStruct->ClockType) & RCC_CLOCKTYPE_PCLK1) == RCC_CLOCKTYPE_PCLK1)
 8004fc8:	4b28      	ldr	r3, [pc, #160]	@ (800506c <HAL_RCC_ClockConfig+0x128>)
 8004fca:	f011 0f04 	tst.w	r1, #4
      MODIFY_REG(RCC->CFGR, RCC_CFGR_PPRE1, RCC_HCLK_DIV16);
 8004fce:	bf1e      	ittt	ne
 8004fd0:	685a      	ldrne	r2, [r3, #4]
 8004fd2:	f442 62e0 	orrne.w	r2, r2, #1792	@ 0x700
 8004fd6:	605a      	strne	r2, [r3, #4]
    if (((RCC_ClkInitStruct->ClockType) & RCC_CLOCKTYPE_PCLK2) == RCC_CLOCKTYPE_PCLK2)
 8004fd8:	0708      	lsls	r0, r1, #28
      MODIFY_REG(RCC->CFGR, RCC_CFGR_PPRE2, (RCC_HCLK_DIV16 << 3));
 8004fda:	bf42      	ittt	mi
 8004fdc:	685a      	ldrmi	r2, [r3, #4]
 8004fde:	f442 5260 	orrmi.w	r2, r2, #14336	@ 0x3800
 8004fe2:	605a      	strmi	r2, [r3, #4]
    MODIFY_REG(RCC->CFGR, RCC_CFGR_HPRE, RCC_ClkInitStruct->AHBCLKDivider);
 8004fe4:	685a      	ldr	r2, [r3, #4]
 8004fe6:	68a0      	ldr	r0, [r4, #8]
 8004fe8:	f022 02f0 	bic.w	r2, r2, #240	@ 0xf0
 8004fec:	4302      	orrs	r2, r0
 8004fee:	605a      	str	r2, [r3, #4]
 8004ff0:	e7b9      	b.n	8004f66 <HAL_RCC_ClockConfig+0x22>
    if (RCC_ClkInitStruct->SYSCLKSource == RCC_SYSCLKSOURCE_HSE)
 8004ff2:	6862      	ldr	r2, [r4, #4]
 8004ff4:	4e1d      	ldr	r6, [pc, #116]	@ (800506c <HAL_RCC_ClockConfig+0x128>)
 8004ff6:	2a01      	cmp	r2, #1
      if (__HAL_RCC_GET_FLAG(RCC_FLAG_HSERDY) == RESET)
 8004ff8:	6833      	ldr	r3, [r6, #0]
    if (RCC_ClkInitStruct->SYSCLKSource == RCC_SYSCLKSOURCE_HSE)
 8004ffa:	d11a      	bne.n	8005032 <HAL_RCC_ClockConfig+0xee>
      if (__HAL_RCC_GET_FLAG(RCC_FLAG_HSERDY) == RESET)
 8004ffc:	f413 3f00 	tst.w	r3, #131072	@ 0x20000
      if (__HAL_RCC_GET_FLAG(RCC_FLAG_HSIRDY) == RESET)
 8005000:	d0a5      	beq.n	8004f4e <HAL_RCC_ClockConfig+0xa>
    __HAL_RCC_SYSCLK_CONFIG(RCC_ClkInitStruct->SYSCLKSource);
 8005002:	6873      	ldr	r3, [r6, #4]
      if ((HAL_GetTick() - tickstart) > CLOCKSWITCH_TIMEOUT_VALUE)
 8005004:	f241 3888 	movw	r8, #5000	@ 0x1388
    __HAL_RCC_SYSCLK_CONFIG(RCC_ClkInitStruct->SYSCLKSource);
 8005008:	f023 0303 	bic.w	r3, r3, #3
 800500c:	4313      	orrs	r3, r2
 800500e:	6073      	str	r3, [r6, #4]
    tickstart = HAL_GetTick();
 8005010:	f7ff f812 	bl	8004038 <HAL_GetTick>
 8005014:	4607      	mov	r7, r0
    while (__HAL_RCC_GET_SYSCLK_SOURCE() != (RCC_ClkInitStruct->SYSCLKSource << RCC_CFGR_SWS_Pos))
 8005016:	6873      	ldr	r3, [r6, #4]
 8005018:	6862      	ldr	r2, [r4, #4]
 800501a:	f003 030c 	and.w	r3, r3, #12
 800501e:	ebb3 0f82 	cmp.w	r3, r2, lsl #2
 8005022:	d0a2      	beq.n	8004f6a <HAL_RCC_ClockConfig+0x26>
      if ((HAL_GetTick() - tickstart) > CLOCKSWITCH_TIMEOUT_VALUE)
 8005024:	f7ff f808 	bl	8004038 <HAL_GetTick>
 8005028:	1bc0      	subs	r0, r0, r7
 800502a:	4540      	cmp	r0, r8
 800502c:	d9f3      	bls.n	8005016 <HAL_RCC_ClockConfig+0xd2>
        return HAL_TIMEOUT;
 800502e:	2003      	movs	r0, #3
 8005030:	e78e      	b.n	8004f50 <HAL_RCC_ClockConfig+0xc>
    else if (RCC_ClkInitStruct->SYSCLKSource == RCC_SYSCLKSOURCE_PLLCLK)
 8005032:	2a02      	cmp	r2, #2
 8005034:	d102      	bne.n	800503c <HAL_RCC_ClockConfig+0xf8>
      if (__HAL_RCC_GET_FLAG(RCC_FLAG_PLLRDY) == RESET)
 8005036:	f013 7f00 	tst.w	r3, #33554432	@ 0x2000000
 800503a:	e7e1      	b.n	8005000 <HAL_RCC_ClockConfig+0xbc>
      if (__HAL_RCC_GET_FLAG(RCC_FLAG_HSIRDY) == RESET)
 800503c:	f013 0f02 	tst.w	r3, #2
 8005040:	e7de      	b.n	8005000 <HAL_RCC_ClockConfig+0xbc>
    __HAL_FLASH_SET_LATENCY(FLatency);
 8005042:	6813      	ldr	r3, [r2, #0]
 8005044:	f023 0307 	bic.w	r3, r3, #7
 8005048:	432b      	orrs	r3, r5
 800504a:	6013      	str	r3, [r2, #0]
    if (__HAL_FLASH_GET_LATENCY() != FLatency)
 800504c:	6813      	ldr	r3, [r2, #0]
 800504e:	f003 0307 	and.w	r3, r3, #7
 8005052:	42ab      	cmp	r3, r5
 8005054:	f47f af7b 	bne.w	8004f4e <HAL_RCC_ClockConfig+0xa>
 8005058:	e78d      	b.n	8004f76 <HAL_RCC_ClockConfig+0x32>
    MODIFY_REG(RCC->CFGR, RCC_CFGR_PPRE1, RCC_ClkInitStruct->APB1CLKDivider);
 800505a:	686b      	ldr	r3, [r5, #4]
 800505c:	68e1      	ldr	r1, [r4, #12]
 800505e:	f423 63e0 	bic.w	r3, r3, #1792	@ 0x700
 8005062:	430b      	orrs	r3, r1
 8005064:	606b      	str	r3, [r5, #4]
 8005066:	e78b      	b.n	8004f80 <HAL_RCC_ClockConfig+0x3c>
 8005068:	40022000 	.word	0x40022000
 800506c:	40021000 	.word	0x40021000
 8005070:	08008158 	.word	0x08008158
 8005074:	20000000 	.word	0x20000000
 8005078:	200001d4 	.word	0x200001d4

0800507c <HAL_RCC_GetPCLK1Freq>:
  return (HAL_RCC_GetHCLKFreq() >> APBPrescTable[(RCC->CFGR & RCC_CFGR_PPRE1) >> RCC_CFGR_PPRE1_Pos]);
 800507c:	4b04      	ldr	r3, [pc, #16]	@ (8005090 <HAL_RCC_GetPCLK1Freq+0x14>)
 800507e:	4a05      	ldr	r2, [pc, #20]	@ (8005094 <HAL_RCC_GetPCLK1Freq+0x18>)
 8005080:	685b      	ldr	r3, [r3, #4]
 8005082:	f3c3 2302 	ubfx	r3, r3, #8, #3
 8005086:	5cd3      	ldrb	r3, [r2, r3]
 8005088:	4a03      	ldr	r2, [pc, #12]	@ (8005098 <HAL_RCC_GetPCLK1Freq+0x1c>)
 800508a:	6810      	ldr	r0, [r2, #0]
}
 800508c:	40d8      	lsrs	r0, r3
 800508e:	4770      	bx	lr
 8005090:	40021000 	.word	0x40021000
 8005094:	08008150 	.word	0x08008150
 8005098:	20000000 	.word	0x20000000

0800509c <HAL_RCC_GetPCLK2Freq>:
  return (HAL_RCC_GetHCLKFreq() >> APBPrescTable[(RCC->CFGR & RCC_CFGR_PPRE2) >> RCC_CFGR_PPRE2_Pos]);
 800509c:	4b04      	ldr	r3, [pc, #16]	@ (80050b0 <HAL_RCC_GetPCLK2Freq+0x14>)
 800509e:	4a05      	ldr	r2, [pc, #20]	@ (80050b4 <HAL_RCC_GetPCLK2Freq+0x18>)
 80050a0:	685b      	ldr	r3, [r3, #4]
 80050a2:	f3c3 23c2 	ubfx	r3, r3, #11, #3
 80050a6:	5cd3      	ldrb	r3, [r2, r3]
 80050a8:	4a03      	ldr	r2, [pc, #12]	@ (80050b8 <HAL_RCC_GetPCLK2Freq+0x1c>)
 80050aa:	6810      	ldr	r0, [r2, #0]
}
 80050ac:	40d8      	lsrs	r0, r3
 80050ae:	4770      	bx	lr
 80050b0:	40021000 	.word	0x40021000
 80050b4:	08008150 	.word	0x08008150
 80050b8:	20000000 	.word	0x20000000

080050bc <UART_EndRxTransfer>:
  * @retval None
  */
static void UART_EndRxTransfer(UART_HandleTypeDef *huart)
{
  /* Disable RXNE, PE and ERR (Frame error, noise error, overrun error) interrupts */
  ATOMIC_CLEAR_BIT(huart->Instance->CR1, (USART_CR1_RXNEIE | USART_CR1_PEIE));
 80050bc:	6802      	ldr	r2, [r0, #0]
 */
__STATIC_FORCEINLINE uint32_t __LDREXW(volatile uint32_t *addr)
{
    uint32_t result;

   __ASM volatile ("ldrex %0, %1" : "=r" (result) : "Q" (*addr) );
 80050be:	f102 030c 	add.w	r3, r2, #12
 80050c2:	e853 3f00 	ldrex	r3, [r3]
 80050c6:	f423 7390 	bic.w	r3, r3, #288	@ 0x120
 */
__STATIC_FORCEINLINE uint32_t __STREXW(uint32_t value, volatile uint32_t *addr)
{
   uint32_t result;

   __ASM volatile ("strex %0, %2, %1" : "=&r" (result), "=Q" (*addr) : "r" (value) );
 80050ca:	320c      	adds	r2, #12
 80050cc:	e842 3100 	strex	r1, r3, [r2]
   return(result);
 80050d0:	6802      	ldr	r2, [r0, #0]
 80050d2:	2900      	cmp	r1, #0
 80050d4:	d1f2      	bne.n	80050bc <UART_EndRxTransfer>
   __ASM volatile ("ldrex %0, %1" : "=r" (result) : "Q" (*addr) );
 80050d6:	f102 0314 	add.w	r3, r2, #20
 80050da:	e853 3f00 	ldrex	r3, [r3]
  ATOMIC_CLEAR_BIT(huart->Instance->CR3, USART_CR3_EIE);
 80050de:	f023 0301 	bic.w	r3, r3, #1
   __ASM volatile ("strex %0, %2, %1" : "=&r" (result), "=Q" (*addr) : "r" (value) );
 80050e2:	f102 0c14 	add.w	ip, r2, #20
 80050e6:	e84c 3100 	strex	r1, r3, [ip]
 80050ea:	2900      	cmp	r1, #0
 80050ec:	d1f3      	bne.n	80050d6 <UART_EndRxTransfer+0x1a>

  /* In case of reception waiting for IDLE event, disable also the IDLE IE interrupt source */
  if (huart->ReceptionType == HAL_UART_RECEPTION_TOIDLE)
 80050ee:	6b03      	ldr	r3, [r0, #48]	@ 0x30
 80050f0:	2b01      	cmp	r3, #1
 80050f2:	d10b      	bne.n	800510c <UART_EndRxTransfer+0x50>
   __ASM volatile ("ldrex %0, %1" : "=r" (result) : "Q" (*addr) );
 80050f4:	f102 030c 	add.w	r3, r2, #12
 80050f8:	e853 3f00 	ldrex	r3, [r3]
  {
    ATOMIC_CLEAR_BIT(huart->Instance->CR1, USART_CR1_IDLEIE);
 80050fc:	f023 0310 	bic.w	r3, r3, #16
   __ASM volatile ("strex %0, %2, %1" : "=&r" (result), "=Q" (*addr) : "r" (value) );
 8005100:	f102 0c0c 	add.w	ip, r2, #12
 8005104:	e84c 3100 	strex	r1, r3, [ip]
 8005108:	2900      	cmp	r1, #0
 800510a:	d1f3      	bne.n	80050f4 <UART_EndRxTransfer+0x38>
  }

  /* At end of Rx process, restore huart->RxState to Ready */
  huart->RxState = HAL_UART_STATE_READY;
 800510c:	2320      	movs	r3, #32
 800510e:	f880 3042 	strb.w	r3, [r0, #66]	@ 0x42
  huart->ReceptionType = HAL_UART_RECEPTION_STANDARD;
 8005112:	2300      	movs	r3, #0
 8005114:	6303      	str	r3, [r0, #48]	@ 0x30
}
 8005116:	4770      	bx	lr

08005118 <UART_SetConfig>:
  * @param  huart  Pointer to a UART_HandleTypeDef structure that contains
  *                the configuration information for the specified UART module.
  * @retval None
  */
static void UART_SetConfig(UART_HandleTypeDef *huart)
{
 8005118:	b510      	push	{r4, lr}
 800511a:	4604      	mov	r4, r0
  assert_param(IS_UART_MODE(huart->Init.Mode));

  /*-------------------------- USART CR2 Configuration -----------------------*/
  /* Configure the UART Stop Bits: Set STOP[13:12] bits
     according to huart->Init.StopBits value */
  MODIFY_REG(huart->Instance->CR2, USART_CR2_STOP, huart->Init.StopBits);
 800511c:	6803      	ldr	r3, [r0, #0]
 800511e:	68c1      	ldr	r1, [r0, #12]
 8005120:	691a      	ldr	r2, [r3, #16]
 8005122:	f422 5240 	bic.w	r2, r2, #12288	@ 0x3000
 8005126:	430a      	orrs	r2, r1
 8005128:	611a      	str	r2, [r3, #16]
  tmpreg = (uint32_t)huart->Init.WordLength | huart->Init.Parity | huart->Init.Mode | huart->Init.OverSampling;
  MODIFY_REG(huart->Instance->CR1,
             (uint32_t)(USART_CR1_M | USART_CR1_PCE | USART_CR1_PS | USART_CR1_TE | USART_CR1_RE | USART_CR1_OVER8),
             tmpreg);
#else
  tmpreg = (uint32_t)huart->Init.WordLength | huart->Init.Parity | huart->Init.Mode;
 800512a:	6882      	ldr	r2, [r0, #8]
 800512c:	6900      	ldr	r0, [r0, #16]
  MODIFY_REG(huart->Instance->CR1,
 800512e:	68d9      	ldr	r1, [r3, #12]
  tmpreg = (uint32_t)huart->Init.WordLength | huart->Init.Parity | huart->Init.Mode;
 8005130:	4302      	orrs	r2, r0
 8005132:	6960      	ldr	r0, [r4, #20]
  MODIFY_REG(huart->Instance->CR1,
 8005134:	f421 51b0 	bic.w	r1, r1, #5632	@ 0x1600
 8005138:	f021 010c 	bic.w	r1, r1, #12
  tmpreg = (uint32_t)huart->Init.WordLength | huart->Init.Parity | huart->Init.Mode;
 800513c:	4302      	orrs	r2, r0
  MODIFY_REG(huart->Instance->CR1,
 800513e:	430a      	orrs	r2, r1
 8005140:	60da      	str	r2, [r3, #12]
             tmpreg);
#endif /* USART_CR1_OVER8 */

  /*-------------------------- USART CR3 Configuration -----------------------*/
  /* Configure the UART HFC: Set CTSE and RTSE bits according to huart->Init.HwFlowCtl value */
  MODIFY_REG(huart->Instance->CR3, (USART_CR3_RTSE | USART_CR3_CTSE), huart->Init.HwFlowCtl);
 8005142:	695a      	ldr	r2, [r3, #20]
 8005144:	69a1      	ldr	r1, [r4, #24]
 8005146:	f422 7240 	bic.w	r2, r2, #768	@ 0x300
 800514a:	430a      	orrs	r2, r1
 800514c:	615a      	str	r2, [r3, #20]


  if(huart->Instance == USART1)
 800514e:	4a0e      	ldr	r2, [pc, #56]	@ (8005188 <UART_SetConfig+0x70>)
 8005150:	4293      	cmp	r3, r2
 8005152:	d115      	bne.n	8005180 <UART_SetConfig+0x68>
  {
    pclk = HAL_RCC_GetPCLK2Freq();
 8005154:	f7ff ffa2 	bl	800509c <HAL_RCC_GetPCLK2Freq>
  else
  {
    huart->Instance->BRR = UART_BRR_SAMPLING16(pclk, huart->Init.BaudRate);
  }
#else
  huart->Instance->BRR = UART_BRR_SAMPLING16(pclk, huart->Init.BaudRate);
 8005158:	2319      	movs	r3, #25
 800515a:	4343      	muls	r3, r0
 800515c:	6862      	ldr	r2, [r4, #4]
 800515e:	6820      	ldr	r0, [r4, #0]
 8005160:	0092      	lsls	r2, r2, #2
 8005162:	fbb3 f3f2 	udiv	r3, r3, r2
 8005166:	2264      	movs	r2, #100	@ 0x64
 8005168:	fbb3 f1f2 	udiv	r1, r3, r2
 800516c:	fb02 3311 	mls	r3, r2, r1, r3
 8005170:	011b      	lsls	r3, r3, #4
 8005172:	3332      	adds	r3, #50	@ 0x32
 8005174:	fbb3 f3f2 	udiv	r3, r3, r2
 8005178:	eb03 1301 	add.w	r3, r3, r1, lsl #4
 800517c:	6083      	str	r3, [r0, #8]
#endif /* USART_CR1_OVER8 */
}
 800517e:	bd10      	pop	{r4, pc}
    pclk = HAL_RCC_GetPCLK1Freq();
 8005180:	f7ff ff7c 	bl	800507c <HAL_RCC_GetPCLK1Freq>
 8005184:	e7e8      	b.n	8005158 <UART_SetConfig+0x40>
 8005186:	bf00      	nop
 8005188:	40013800 	.word	0x40013800

0800518c <UART_WaitOnFlagUntilTimeout.constprop.0>:
static HAL_StatusTypeDef UART_WaitOnFlagUntilTimeout(UART_HandleTypeDef *huart, uint32_t Flag, FlagStatus Status,
 800518c:	b5f7      	push	{r0, r1, r2, r4, r5, r6, r7, lr}
 800518e:	4605      	mov	r5, r0
 8005190:	460c      	mov	r4, r1
 8005192:	4617      	mov	r7, r2
 8005194:	461e      	mov	r6, r3
  while ((__HAL_UART_GET_FLAG(huart, Flag) ? SET : RESET) == Status)
 8005196:	682a      	ldr	r2, [r5, #0]
 8005198:	6813      	ldr	r3, [r2, #0]
 800519a:	ea34 0303 	bics.w	r3, r4, r3
 800519e:	d101      	bne.n	80051a4 <UART_WaitOnFlagUntilTimeout.constprop.0+0x18>
  return HAL_OK;
 80051a0:	2000      	movs	r0, #0
 80051a2:	e021      	b.n	80051e8 <UART_WaitOnFlagUntilTimeout.constprop.0+0x5c>
    if (Timeout != HAL_MAX_DELAY)
 80051a4:	1c70      	adds	r0, r6, #1
 80051a6:	d0f7      	beq.n	8005198 <UART_WaitOnFlagUntilTimeout.constprop.0+0xc>
      if (((HAL_GetTick() - Tickstart) > Timeout) || (Timeout == 0U))
 80051a8:	f7fe ff46 	bl	8004038 <HAL_GetTick>
 80051ac:	1bc0      	subs	r0, r0, r7
 80051ae:	4286      	cmp	r6, r0
 80051b0:	d31c      	bcc.n	80051ec <UART_WaitOnFlagUntilTimeout.constprop.0+0x60>
 80051b2:	b1de      	cbz	r6, 80051ec <UART_WaitOnFlagUntilTimeout.constprop.0+0x60>
      if ((READ_BIT(huart->Instance->CR1, USART_CR1_RE) != 0U) && (Flag != UART_FLAG_TXE) && (Flag != UART_FLAG_TC))
 80051b4:	682b      	ldr	r3, [r5, #0]
 80051b6:	68da      	ldr	r2, [r3, #12]
 80051b8:	0751      	lsls	r1, r2, #29
 80051ba:	d5ec      	bpl.n	8005196 <UART_WaitOnFlagUntilTimeout.constprop.0+0xa>
 80051bc:	2c80      	cmp	r4, #128	@ 0x80
 80051be:	d0ea      	beq.n	8005196 <UART_WaitOnFlagUntilTimeout.constprop.0+0xa>
 80051c0:	2c40      	cmp	r4, #64	@ 0x40
 80051c2:	d0e8      	beq.n	8005196 <UART_WaitOnFlagUntilTimeout.constprop.0+0xa>
        if (__HAL_UART_GET_FLAG(huart, UART_FLAG_ORE) == SET)
 80051c4:	681a      	ldr	r2, [r3, #0]
 80051c6:	0712      	lsls	r2, r2, #28
 80051c8:	d5e5      	bpl.n	8005196 <UART_WaitOnFlagUntilTimeout.constprop.0+0xa>
          __HAL_UART_CLEAR_OREFLAG(huart);
 80051ca:	2400      	movs	r4, #0
 80051cc:	9401      	str	r4, [sp, #4]
 80051ce:	681a      	ldr	r2, [r3, #0]
          UART_EndRxTransfer(huart);
 80051d0:	4628      	mov	r0, r5
          __HAL_UART_CLEAR_OREFLAG(huart);
 80051d2:	9201      	str	r2, [sp, #4]
 80051d4:	685b      	ldr	r3, [r3, #4]
 80051d6:	9301      	str	r3, [sp, #4]
 80051d8:	9b01      	ldr	r3, [sp, #4]
          UART_EndRxTransfer(huart);
 80051da:	f7ff ff6f 	bl	80050bc <UART_EndRxTransfer>
          huart->ErrorCode = HAL_UART_ERROR_ORE;
 80051de:	2308      	movs	r3, #8
          return HAL_ERROR;
 80051e0:	2001      	movs	r0, #1
          huart->ErrorCode = HAL_UART_ERROR_ORE;
 80051e2:	646b      	str	r3, [r5, #68]	@ 0x44
          __HAL_UNLOCK(huart);
 80051e4:	f885 4040 	strb.w	r4, [r5, #64]	@ 0x40
}
 80051e8:	b003      	add	sp, #12
 80051ea:	bdf0      	pop	{r4, r5, r6, r7, pc}
        return HAL_TIMEOUT;
 80051ec:	2003      	movs	r0, #3
 80051ee:	e7fb      	b.n	80051e8 <UART_WaitOnFlagUntilTimeout.constprop.0+0x5c>

080051f0 <HAL_UART_Init>:
{
 80051f0:	b510      	push	{r4, lr}
  if (huart == NULL)
 80051f2:	4604      	mov	r4, r0
 80051f4:	b348      	cbz	r0, 800524a <HAL_UART_Init+0x5a>
  if (huart->gState == HAL_UART_STATE_RESET)
 80051f6:	f890 3041 	ldrb.w	r3, [r0, #65]	@ 0x41
 80051fa:	f003 02ff 	and.w	r2, r3, #255	@ 0xff
 80051fe:	b91b      	cbnz	r3, 8005208 <HAL_UART_Init+0x18>
    huart->Lock = HAL_UNLOCKED;
 8005200:	f880 2040 	strb.w	r2, [r0, #64]	@ 0x40
    HAL_UART_MspInit(huart);
 8005204:	f7fb f8e4 	bl	80003d0 <HAL_UART_MspInit>
  huart->gState = HAL_UART_STATE_BUSY;
 8005208:	2324      	movs	r3, #36	@ 0x24
  __HAL_UART_DISABLE(huart);
 800520a:	6822      	ldr	r2, [r4, #0]
  huart->gState = HAL_UART_STATE_BUSY;
 800520c:	f884 3041 	strb.w	r3, [r4, #65]	@ 0x41
  __HAL_UART_DISABLE(huart);
 8005210:	68d3      	ldr	r3, [r2, #12]
  UART_SetConfig(huart);
 8005212:	4620      	mov	r0, r4
  __HAL_UART_DISABLE(huart);
 8005214:	f423 5300 	bic.w	r3, r3, #8192	@ 0x2000
 8005218:	60d3      	str	r3, [r2, #12]
  UART_SetConfig(huart);
 800521a:	f7ff ff7d 	bl	8005118 <UART_SetConfig>
  CLEAR_BIT(huart->Instance->CR2, (USART_CR2_LINEN | USART_CR2_CLKEN));
 800521e:	6823      	ldr	r3, [r4, #0]
  huart->ErrorCode = HAL_UART_ERROR_NONE;
 8005220:	2000      	movs	r0, #0
  CLEAR_BIT(huart->Instance->CR2, (USART_CR2_LINEN | USART_CR2_CLKEN));
 8005222:	691a      	ldr	r2, [r3, #16]
 8005224:	f422 4290 	bic.w	r2, r2, #18432	@ 0x4800
 8005228:	611a      	str	r2, [r3, #16]
  CLEAR_BIT(huart->Instance->CR3, (USART_CR3_SCEN | USART_CR3_HDSEL | USART_CR3_IREN));
 800522a:	695a      	ldr	r2, [r3, #20]
 800522c:	f022 022a 	bic.w	r2, r2, #42	@ 0x2a
 8005230:	615a      	str	r2, [r3, #20]
  __HAL_UART_ENABLE(huart);
 8005232:	68da      	ldr	r2, [r3, #12]
 8005234:	f442 5200 	orr.w	r2, r2, #8192	@ 0x2000
 8005238:	60da      	str	r2, [r3, #12]
  huart->gState = HAL_UART_STATE_READY;
 800523a:	2320      	movs	r3, #32
  huart->ErrorCode = HAL_UART_ERROR_NONE;
 800523c:	6460      	str	r0, [r4, #68]	@ 0x44
  huart->gState = HAL_UART_STATE_READY;
 800523e:	f884 3041 	strb.w	r3, [r4, #65]	@ 0x41
  huart->RxState = HAL_UART_STATE_READY;
 8005242:	f884 3042 	strb.w	r3, [r4, #66]	@ 0x42
  huart->RxEventType = HAL_UART_RXEVENT_TC;
 8005246:	6360      	str	r0, [r4, #52]	@ 0x34
}
 8005248:	bd10      	pop	{r4, pc}
    return HAL_ERROR;
 800524a:	2001      	movs	r0, #1
 800524c:	e7fc      	b.n	8005248 <HAL_UART_Init+0x58>

0800524e <HAL_UART_Transmit>:
{
 800524e:	e92d 43f8 	stmdb	sp!, {r3, r4, r5, r6, r7, r8, r9, lr}
 8005252:	4698      	mov	r8, r3
  if (huart->gState == HAL_UART_STATE_READY)
 8005254:	f890 3041 	ldrb.w	r3, [r0, #65]	@ 0x41
{
 8005258:	4604      	mov	r4, r0
  if (huart->gState == HAL_UART_STATE_READY)
 800525a:	2b20      	cmp	r3, #32
{
 800525c:	460e      	mov	r6, r1
 800525e:	4617      	mov	r7, r2
  if (huart->gState == HAL_UART_STATE_READY)
 8005260:	d13f      	bne.n	80052e2 <HAL_UART_Transmit+0x94>
    if ((pData == NULL) || (Size == 0U))
 8005262:	2900      	cmp	r1, #0
 8005264:	d03f      	beq.n	80052e6 <HAL_UART_Transmit+0x98>
 8005266:	2a00      	cmp	r2, #0
 8005268:	d03d      	beq.n	80052e6 <HAL_UART_Transmit+0x98>
    huart->gState = HAL_UART_STATE_BUSY_TX;
 800526a:	2321      	movs	r3, #33	@ 0x21
    huart->ErrorCode = HAL_UART_ERROR_NONE;
 800526c:	2500      	movs	r5, #0
 800526e:	6445      	str	r5, [r0, #68]	@ 0x44
    huart->gState = HAL_UART_STATE_BUSY_TX;
 8005270:	f880 3041 	strb.w	r3, [r0, #65]	@ 0x41
    tickstart = HAL_GetTick();
 8005274:	f7fe fee0 	bl	8004038 <HAL_GetTick>
    if ((huart->Init.WordLength == UART_WORDLENGTH_9B) && (huart->Init.Parity == UART_PARITY_NONE))
 8005278:	68a3      	ldr	r3, [r4, #8]
    tickstart = HAL_GetTick();
 800527a:	4681      	mov	r9, r0
    if ((huart->Init.WordLength == UART_WORDLENGTH_9B) && (huart->Init.Parity == UART_PARITY_NONE))
 800527c:	f5b3 5f80 	cmp.w	r3, #4096	@ 0x1000
    huart->TxXferSize = Size;
 8005280:	84a7      	strh	r7, [r4, #36]	@ 0x24
    huart->TxXferCount = Size;
 8005282:	84e7      	strh	r7, [r4, #38]	@ 0x26
    if ((huart->Init.WordLength == UART_WORDLENGTH_9B) && (huart->Init.Parity == UART_PARITY_NONE))
 8005284:	d103      	bne.n	800528e <HAL_UART_Transmit+0x40>
 8005286:	6923      	ldr	r3, [r4, #16]
 8005288:	b90b      	cbnz	r3, 800528e <HAL_UART_Transmit+0x40>
      pdata16bits = (const uint16_t *) pData;
 800528a:	4635      	mov	r5, r6
      pdata8bits  = NULL;
 800528c:	461e      	mov	r6, r3
    while (huart->TxXferCount > 0U)
 800528e:	8ce3      	ldrh	r3, [r4, #38]	@ 0x26
 8005290:	b29b      	uxth	r3, r3
 8005292:	b953      	cbnz	r3, 80052aa <HAL_UART_Transmit+0x5c>
    if (UART_WaitOnFlagUntilTimeout(huart, UART_FLAG_TC, RESET, tickstart, Timeout) != HAL_OK)
 8005294:	4643      	mov	r3, r8
 8005296:	464a      	mov	r2, r9
 8005298:	2140      	movs	r1, #64	@ 0x40
 800529a:	4620      	mov	r0, r4
 800529c:	f7ff ff76 	bl	800518c <UART_WaitOnFlagUntilTimeout.constprop.0>
 80052a0:	2320      	movs	r3, #32
 80052a2:	b950      	cbnz	r0, 80052ba <HAL_UART_Transmit+0x6c>
    huart->gState = HAL_UART_STATE_READY;
 80052a4:	f884 3041 	strb.w	r3, [r4, #65]	@ 0x41
    return HAL_OK;
 80052a8:	e00a      	b.n	80052c0 <HAL_UART_Transmit+0x72>
      if (UART_WaitOnFlagUntilTimeout(huart, UART_FLAG_TXE, RESET, tickstart, Timeout) != HAL_OK)
 80052aa:	4643      	mov	r3, r8
 80052ac:	464a      	mov	r2, r9
 80052ae:	2180      	movs	r1, #128	@ 0x80
 80052b0:	4620      	mov	r0, r4
 80052b2:	f7ff ff6b 	bl	800518c <UART_WaitOnFlagUntilTimeout.constprop.0>
 80052b6:	b128      	cbz	r0, 80052c4 <HAL_UART_Transmit+0x76>
        huart->gState = HAL_UART_STATE_READY;
 80052b8:	2320      	movs	r3, #32
        return HAL_TIMEOUT;
 80052ba:	2003      	movs	r0, #3
        huart->gState = HAL_UART_STATE_READY;
 80052bc:	f884 3041 	strb.w	r3, [r4, #65]	@ 0x41
}
 80052c0:	e8bd 83f8 	ldmia.w	sp!, {r3, r4, r5, r6, r7, r8, r9, pc}
        huart->Instance->DR = (uint16_t)(*pdata16bits & 0x01FFU);
 80052c4:	6822      	ldr	r2, [r4, #0]
      if (pdata8bits == NULL)
 80052c6:	b94e      	cbnz	r6, 80052dc <HAL_UART_Transmit+0x8e>
        huart->Instance->DR = (uint16_t)(*pdata16bits & 0x01FFU);
 80052c8:	f835 3b02 	ldrh.w	r3, [r5], #2
 80052cc:	f3c3 0308 	ubfx	r3, r3, #0, #9
        huart->Instance->DR = (uint8_t)(*pdata8bits & 0xFFU);
 80052d0:	6053      	str	r3, [r2, #4]
      huart->TxXferCount--;
 80052d2:	8ce1      	ldrh	r1, [r4, #38]	@ 0x26
 80052d4:	3901      	subs	r1, #1
 80052d6:	b289      	uxth	r1, r1
 80052d8:	84e1      	strh	r1, [r4, #38]	@ 0x26
 80052da:	e7d8      	b.n	800528e <HAL_UART_Transmit+0x40>
        huart->Instance->DR = (uint8_t)(*pdata8bits & 0xFFU);
 80052dc:	f816 3b01 	ldrb.w	r3, [r6], #1
 80052e0:	e7f6      	b.n	80052d0 <HAL_UART_Transmit+0x82>
    return HAL_BUSY;
 80052e2:	2002      	movs	r0, #2
 80052e4:	e7ec      	b.n	80052c0 <HAL_UART_Transmit+0x72>
      return  HAL_ERROR;
 80052e6:	2001      	movs	r0, #1
 80052e8:	e7ea      	b.n	80052c0 <HAL_UART_Transmit+0x72>
	...

080052ec <std>:
 80052ec:	2300      	movs	r3, #0
 80052ee:	b510      	push	{r4, lr}
 80052f0:	4604      	mov	r4, r0
 80052f2:	e9c0 3300 	strd	r3, r3, [r0]
 80052f6:	e9c0 3304 	strd	r3, r3, [r0, #16]
 80052fa:	6083      	str	r3, [r0, #8]
 80052fc:	8181      	strh	r1, [r0, #12]
 80052fe:	6643      	str	r3, [r0, #100]	@ 0x64
 8005300:	81c2      	strh	r2, [r0, #14]
 8005302:	6183      	str	r3, [r0, #24]
 8005304:	4619      	mov	r1, r3
 8005306:	2208      	movs	r2, #8
 8005308:	305c      	adds	r0, #92	@ 0x5c
 800530a:	f000 f9f9 	bl	8005700 <memset>
 800530e:	4b0d      	ldr	r3, [pc, #52]	@ (8005344 <std+0x58>)
 8005310:	6224      	str	r4, [r4, #32]
 8005312:	6263      	str	r3, [r4, #36]	@ 0x24
 8005314:	4b0c      	ldr	r3, [pc, #48]	@ (8005348 <std+0x5c>)
 8005316:	62a3      	str	r3, [r4, #40]	@ 0x28
 8005318:	4b0c      	ldr	r3, [pc, #48]	@ (800534c <std+0x60>)
 800531a:	62e3      	str	r3, [r4, #44]	@ 0x2c
 800531c:	4b0c      	ldr	r3, [pc, #48]	@ (8005350 <std+0x64>)
 800531e:	6323      	str	r3, [r4, #48]	@ 0x30
 8005320:	4b0c      	ldr	r3, [pc, #48]	@ (8005354 <std+0x68>)
 8005322:	429c      	cmp	r4, r3
 8005324:	d006      	beq.n	8005334 <std+0x48>
 8005326:	f103 0268 	add.w	r2, r3, #104	@ 0x68
 800532a:	4294      	cmp	r4, r2
 800532c:	d002      	beq.n	8005334 <std+0x48>
 800532e:	33d0      	adds	r3, #208	@ 0xd0
 8005330:	429c      	cmp	r4, r3
 8005332:	d105      	bne.n	8005340 <std+0x54>
 8005334:	f104 0058 	add.w	r0, r4, #88	@ 0x58
 8005338:	e8bd 4010 	ldmia.w	sp!, {r4, lr}
 800533c:	f000 ba58 	b.w	80057f0 <__retarget_lock_init_recursive>
 8005340:	bd10      	pop	{r4, pc}
 8005342:	bf00      	nop
 8005344:	08005551 	.word	0x08005551
 8005348:	08005573 	.word	0x08005573
 800534c:	080055ab 	.word	0x080055ab
 8005350:	080055cf 	.word	0x080055cf
 8005354:	20000460 	.word	0x20000460

08005358 <stdio_exit_handler>:
 8005358:	4a02      	ldr	r2, [pc, #8]	@ (8005364 <stdio_exit_handler+0xc>)
 800535a:	4903      	ldr	r1, [pc, #12]	@ (8005368 <stdio_exit_handler+0x10>)
 800535c:	4803      	ldr	r0, [pc, #12]	@ (800536c <stdio_exit_handler+0x14>)
 800535e:	f000 b869 	b.w	8005434 <_fwalk_sglue>
 8005362:	bf00      	nop
 8005364:	200001d8 	.word	0x200001d8
 8005368:	08006085 	.word	0x08006085
 800536c:	200001e8 	.word	0x200001e8

08005370 <cleanup_stdio>:
 8005370:	6841      	ldr	r1, [r0, #4]
 8005372:	4b0c      	ldr	r3, [pc, #48]	@ (80053a4 <cleanup_stdio+0x34>)
 8005374:	b510      	push	{r4, lr}
 8005376:	4299      	cmp	r1, r3
 8005378:	4604      	mov	r4, r0
 800537a:	d001      	beq.n	8005380 <cleanup_stdio+0x10>
 800537c:	f000 fe82 	bl	8006084 <_fflush_r>
 8005380:	68a1      	ldr	r1, [r4, #8]
 8005382:	4b09      	ldr	r3, [pc, #36]	@ (80053a8 <cleanup_stdio+0x38>)
 8005384:	4299      	cmp	r1, r3
 8005386:	d002      	beq.n	800538e <cleanup_stdio+0x1e>
 8005388:	4620      	mov	r0, r4
 800538a:	f000 fe7b 	bl	8006084 <_fflush_r>
 800538e:	68e1      	ldr	r1, [r4, #12]
 8005390:	4b06      	ldr	r3, [pc, #24]	@ (80053ac <cleanup_stdio+0x3c>)
 8005392:	4299      	cmp	r1, r3
 8005394:	d004      	beq.n	80053a0 <cleanup_stdio+0x30>
 8005396:	4620      	mov	r0, r4
 8005398:	e8bd 4010 	ldmia.w	sp!, {r4, lr}
 800539c:	f000 be72 	b.w	8006084 <_fflush_r>
 80053a0:	bd10      	pop	{r4, pc}
 80053a2:	bf00      	nop
 80053a4:	20000460 	.word	0x20000460
 80053a8:	200004c8 	.word	0x200004c8
 80053ac:	20000530 	.word	0x20000530

080053b0 <global_stdio_init.part.0>:
 80053b0:	b510      	push	{r4, lr}
 80053b2:	4b0b      	ldr	r3, [pc, #44]	@ (80053e0 <global_stdio_init.part.0+0x30>)
 80053b4:	4c0b      	ldr	r4, [pc, #44]	@ (80053e4 <global_stdio_init.part.0+0x34>)
 80053b6:	4a0c      	ldr	r2, [pc, #48]	@ (80053e8 <global_stdio_init.part.0+0x38>)
 80053b8:	4620      	mov	r0, r4
 80053ba:	601a      	str	r2, [r3, #0]
 80053bc:	2104      	movs	r1, #4
 80053be:	2200      	movs	r2, #0
 80053c0:	f7ff ff94 	bl	80052ec <std>
 80053c4:	f104 0068 	add.w	r0, r4, #104	@ 0x68
 80053c8:	2201      	movs	r2, #1
 80053ca:	2109      	movs	r1, #9
 80053cc:	f7ff ff8e 	bl	80052ec <std>
 80053d0:	f104 00d0 	add.w	r0, r4, #208	@ 0xd0
 80053d4:	2202      	movs	r2, #2
 80053d6:	e8bd 4010 	ldmia.w	sp!, {r4, lr}
 80053da:	2112      	movs	r1, #18
 80053dc:	f7ff bf86 	b.w	80052ec <std>
 80053e0:	20000598 	.word	0x20000598
 80053e4:	20000460 	.word	0x20000460
 80053e8:	08005359 	.word	0x08005359

080053ec <__sfp_lock_acquire>:
 80053ec:	4801      	ldr	r0, [pc, #4]	@ (80053f4 <__sfp_lock_acquire+0x8>)
 80053ee:	f000 ba00 	b.w	80057f2 <__retarget_lock_acquire_recursive>
 80053f2:	bf00      	nop
 80053f4:	200005a1 	.word	0x200005a1

080053f8 <__sfp_lock_release>:
 80053f8:	4801      	ldr	r0, [pc, #4]	@ (8005400 <__sfp_lock_release+0x8>)
 80053fa:	f000 b9fb 	b.w	80057f4 <__retarget_lock_release_recursive>
 80053fe:	bf00      	nop
 8005400:	200005a1 	.word	0x200005a1

08005404 <__sinit>:
 8005404:	b510      	push	{r4, lr}
 8005406:	4604      	mov	r4, r0
 8005408:	f7ff fff0 	bl	80053ec <__sfp_lock_acquire>
 800540c:	6a23      	ldr	r3, [r4, #32]
 800540e:	b11b      	cbz	r3, 8005418 <__sinit+0x14>
 8005410:	e8bd 4010 	ldmia.w	sp!, {r4, lr}
 8005414:	f7ff bff0 	b.w	80053f8 <__sfp_lock_release>
 8005418:	4b04      	ldr	r3, [pc, #16]	@ (800542c <__sinit+0x28>)
 800541a:	6223      	str	r3, [r4, #32]
 800541c:	4b04      	ldr	r3, [pc, #16]	@ (8005430 <__sinit+0x2c>)
 800541e:	681b      	ldr	r3, [r3, #0]
 8005420:	2b00      	cmp	r3, #0
 8005422:	d1f5      	bne.n	8005410 <__sinit+0xc>
 8005424:	f7ff ffc4 	bl	80053b0 <global_stdio_init.part.0>
 8005428:	e7f2      	b.n	8005410 <__sinit+0xc>
 800542a:	bf00      	nop
 800542c:	08005371 	.word	0x08005371
 8005430:	20000598 	.word	0x20000598

08005434 <_fwalk_sglue>:
 8005434:	e92d 43f8 	stmdb	sp!, {r3, r4, r5, r6, r7, r8, r9, lr}
 8005438:	4607      	mov	r7, r0
 800543a:	4688      	mov	r8, r1
 800543c:	4614      	mov	r4, r2
 800543e:	2600      	movs	r6, #0
 8005440:	e9d4 9501 	ldrd	r9, r5, [r4, #4]
 8005444:	f1b9 0901 	subs.w	r9, r9, #1
 8005448:	d505      	bpl.n	8005456 <_fwalk_sglue+0x22>
 800544a:	6824      	ldr	r4, [r4, #0]
 800544c:	2c00      	cmp	r4, #0
 800544e:	d1f7      	bne.n	8005440 <_fwalk_sglue+0xc>
 8005450:	4630      	mov	r0, r6
 8005452:	e8bd 83f8 	ldmia.w	sp!, {r3, r4, r5, r6, r7, r8, r9, pc}
 8005456:	89ab      	ldrh	r3, [r5, #12]
 8005458:	2b01      	cmp	r3, #1
 800545a:	d907      	bls.n	800546c <_fwalk_sglue+0x38>
 800545c:	f9b5 300e 	ldrsh.w	r3, [r5, #14]
 8005460:	3301      	adds	r3, #1
 8005462:	d003      	beq.n	800546c <_fwalk_sglue+0x38>
 8005464:	4629      	mov	r1, r5
 8005466:	4638      	mov	r0, r7
 8005468:	47c0      	blx	r8
 800546a:	4306      	orrs	r6, r0
 800546c:	3568      	adds	r5, #104	@ 0x68
 800546e:	e7e9      	b.n	8005444 <_fwalk_sglue+0x10>

08005470 <iprintf>:
 8005470:	b40f      	push	{r0, r1, r2, r3}
 8005472:	b507      	push	{r0, r1, r2, lr}
 8005474:	4906      	ldr	r1, [pc, #24]	@ (8005490 <iprintf+0x20>)
 8005476:	ab04      	add	r3, sp, #16
 8005478:	6808      	ldr	r0, [r1, #0]
 800547a:	f853 2b04 	ldr.w	r2, [r3], #4
 800547e:	6881      	ldr	r1, [r0, #8]
 8005480:	9301      	str	r3, [sp, #4]
 8005482:	f000 fad7 	bl	8005a34 <_vfiprintf_r>
 8005486:	b003      	add	sp, #12
 8005488:	f85d eb04 	ldr.w	lr, [sp], #4
 800548c:	b004      	add	sp, #16
 800548e:	4770      	bx	lr
 8005490:	200001e4 	.word	0x200001e4

08005494 <_puts_r>:
 8005494:	6a03      	ldr	r3, [r0, #32]
 8005496:	b570      	push	{r4, r5, r6, lr}
 8005498:	4605      	mov	r5, r0
 800549a:	460e      	mov	r6, r1
 800549c:	6884      	ldr	r4, [r0, #8]
 800549e:	b90b      	cbnz	r3, 80054a4 <_puts_r+0x10>
 80054a0:	f7ff ffb0 	bl	8005404 <__sinit>
 80054a4:	6e63      	ldr	r3, [r4, #100]	@ 0x64
 80054a6:	07db      	lsls	r3, r3, #31
 80054a8:	d405      	bmi.n	80054b6 <_puts_r+0x22>
 80054aa:	89a3      	ldrh	r3, [r4, #12]
 80054ac:	0598      	lsls	r0, r3, #22
 80054ae:	d402      	bmi.n	80054b6 <_puts_r+0x22>
 80054b0:	6da0      	ldr	r0, [r4, #88]	@ 0x58
 80054b2:	f000 f99e 	bl	80057f2 <__retarget_lock_acquire_recursive>
 80054b6:	89a3      	ldrh	r3, [r4, #12]
 80054b8:	0719      	lsls	r1, r3, #28
 80054ba:	d502      	bpl.n	80054c2 <_puts_r+0x2e>
 80054bc:	6923      	ldr	r3, [r4, #16]
 80054be:	2b00      	cmp	r3, #0
 80054c0:	d135      	bne.n	800552e <_puts_r+0x9a>
 80054c2:	4621      	mov	r1, r4
 80054c4:	4628      	mov	r0, r5
 80054c6:	f000 f8c5 	bl	8005654 <__swsetup_r>
 80054ca:	b380      	cbz	r0, 800552e <_puts_r+0x9a>
 80054cc:	f04f 35ff 	mov.w	r5, #4294967295
 80054d0:	6e63      	ldr	r3, [r4, #100]	@ 0x64
 80054d2:	07da      	lsls	r2, r3, #31
 80054d4:	d405      	bmi.n	80054e2 <_puts_r+0x4e>
 80054d6:	89a3      	ldrh	r3, [r4, #12]
 80054d8:	059b      	lsls	r3, r3, #22
 80054da:	d402      	bmi.n	80054e2 <_puts_r+0x4e>
 80054dc:	6da0      	ldr	r0, [r4, #88]	@ 0x58
 80054de:	f000 f989 	bl	80057f4 <__retarget_lock_release_recursive>
 80054e2:	4628      	mov	r0, r5
 80054e4:	bd70      	pop	{r4, r5, r6, pc}
 80054e6:	2b00      	cmp	r3, #0
 80054e8:	da04      	bge.n	80054f4 <_puts_r+0x60>
 80054ea:	69a2      	ldr	r2, [r4, #24]
 80054ec:	429a      	cmp	r2, r3
 80054ee:	dc17      	bgt.n	8005520 <_puts_r+0x8c>
 80054f0:	290a      	cmp	r1, #10
 80054f2:	d015      	beq.n	8005520 <_puts_r+0x8c>
 80054f4:	6823      	ldr	r3, [r4, #0]
 80054f6:	1c5a      	adds	r2, r3, #1
 80054f8:	6022      	str	r2, [r4, #0]
 80054fa:	7019      	strb	r1, [r3, #0]
 80054fc:	68a3      	ldr	r3, [r4, #8]
 80054fe:	f816 1f01 	ldrb.w	r1, [r6, #1]!
 8005502:	3b01      	subs	r3, #1
 8005504:	60a3      	str	r3, [r4, #8]
 8005506:	2900      	cmp	r1, #0
 8005508:	d1ed      	bne.n	80054e6 <_puts_r+0x52>
 800550a:	2b00      	cmp	r3, #0
 800550c:	da11      	bge.n	8005532 <_puts_r+0x9e>
 800550e:	4622      	mov	r2, r4
 8005510:	210a      	movs	r1, #10
 8005512:	4628      	mov	r0, r5
 8005514:	f000 f85f 	bl	80055d6 <__swbuf_r>
 8005518:	3001      	adds	r0, #1
 800551a:	d0d7      	beq.n	80054cc <_puts_r+0x38>
 800551c:	250a      	movs	r5, #10
 800551e:	e7d7      	b.n	80054d0 <_puts_r+0x3c>
 8005520:	4622      	mov	r2, r4
 8005522:	4628      	mov	r0, r5
 8005524:	f000 f857 	bl	80055d6 <__swbuf_r>
 8005528:	3001      	adds	r0, #1
 800552a:	d1e7      	bne.n	80054fc <_puts_r+0x68>
 800552c:	e7ce      	b.n	80054cc <_puts_r+0x38>
 800552e:	3e01      	subs	r6, #1
 8005530:	e7e4      	b.n	80054fc <_puts_r+0x68>
 8005532:	6823      	ldr	r3, [r4, #0]
 8005534:	1c5a      	adds	r2, r3, #1
 8005536:	6022      	str	r2, [r4, #0]
 8005538:	220a      	movs	r2, #10
 800553a:	701a      	strb	r2, [r3, #0]
 800553c:	e7ee      	b.n	800551c <_puts_r+0x88>
	...

08005540 <puts>:
 8005540:	4b02      	ldr	r3, [pc, #8]	@ (800554c <puts+0xc>)
 8005542:	4601      	mov	r1, r0
 8005544:	6818      	ldr	r0, [r3, #0]
 8005546:	f7ff bfa5 	b.w	8005494 <_puts_r>
 800554a:	bf00      	nop
 800554c:	200001e4 	.word	0x200001e4

08005550 <__sread>:
 8005550:	b510      	push	{r4, lr}
 8005552:	460c      	mov	r4, r1
 8005554:	f9b1 100e 	ldrsh.w	r1, [r1, #14]
 8005558:	f000 f8fc 	bl	8005754 <_read_r>
 800555c:	2800      	cmp	r0, #0
 800555e:	bfab      	itete	ge
 8005560:	6d63      	ldrge	r3, [r4, #84]	@ 0x54
 8005562:	89a3      	ldrhlt	r3, [r4, #12]
 8005564:	181b      	addge	r3, r3, r0
 8005566:	f423 5380 	biclt.w	r3, r3, #4096	@ 0x1000
 800556a:	bfac      	ite	ge
 800556c:	6563      	strge	r3, [r4, #84]	@ 0x54
 800556e:	81a3      	strhlt	r3, [r4, #12]
 8005570:	bd10      	pop	{r4, pc}

08005572 <__swrite>:
 8005572:	e92d 41f0 	stmdb	sp!, {r4, r5, r6, r7, r8, lr}
 8005576:	461f      	mov	r7, r3
 8005578:	898b      	ldrh	r3, [r1, #12]
 800557a:	4605      	mov	r5, r0
 800557c:	05db      	lsls	r3, r3, #23
 800557e:	460c      	mov	r4, r1
 8005580:	4616      	mov	r6, r2
 8005582:	d505      	bpl.n	8005590 <__swrite+0x1e>
 8005584:	2302      	movs	r3, #2
 8005586:	2200      	movs	r2, #0
 8005588:	f9b1 100e 	ldrsh.w	r1, [r1, #14]
 800558c:	f000 f8d0 	bl	8005730 <_lseek_r>
 8005590:	89a3      	ldrh	r3, [r4, #12]
 8005592:	4632      	mov	r2, r6
 8005594:	f423 5380 	bic.w	r3, r3, #4096	@ 0x1000
 8005598:	81a3      	strh	r3, [r4, #12]
 800559a:	4628      	mov	r0, r5
 800559c:	463b      	mov	r3, r7
 800559e:	f9b4 100e 	ldrsh.w	r1, [r4, #14]
 80055a2:	e8bd 41f0 	ldmia.w	sp!, {r4, r5, r6, r7, r8, lr}
 80055a6:	f000 b8e7 	b.w	8005778 <_write_r>

080055aa <__sseek>:
 80055aa:	b510      	push	{r4, lr}
 80055ac:	460c      	mov	r4, r1
 80055ae:	f9b1 100e 	ldrsh.w	r1, [r1, #14]
 80055b2:	f000 f8bd 	bl	8005730 <_lseek_r>
 80055b6:	1c43      	adds	r3, r0, #1
 80055b8:	89a3      	ldrh	r3, [r4, #12]
 80055ba:	bf15      	itete	ne
 80055bc:	6560      	strne	r0, [r4, #84]	@ 0x54
 80055be:	f423 5380 	biceq.w	r3, r3, #4096	@ 0x1000
 80055c2:	f443 5380 	orrne.w	r3, r3, #4096	@ 0x1000
 80055c6:	81a3      	strheq	r3, [r4, #12]
 80055c8:	bf18      	it	ne
 80055ca:	81a3      	strhne	r3, [r4, #12]
 80055cc:	bd10      	pop	{r4, pc}

080055ce <__sclose>:
 80055ce:	f9b1 100e 	ldrsh.w	r1, [r1, #14]
 80055d2:	f000 b89d 	b.w	8005710 <_close_r>

080055d6 <__swbuf_r>:
 80055d6:	b5f8      	push	{r3, r4, r5, r6, r7, lr}
 80055d8:	460e      	mov	r6, r1
 80055da:	4614      	mov	r4, r2
 80055dc:	4605      	mov	r5, r0
 80055de:	b118      	cbz	r0, 80055e8 <__swbuf_r+0x12>
 80055e0:	6a03      	ldr	r3, [r0, #32]
 80055e2:	b90b      	cbnz	r3, 80055e8 <__swbuf_r+0x12>
 80055e4:	f7ff ff0e 	bl	8005404 <__sinit>
 80055e8:	69a3      	ldr	r3, [r4, #24]
 80055ea:	60a3      	str	r3, [r4, #8]
 80055ec:	89a3      	ldrh	r3, [r4, #12]
 80055ee:	071a      	lsls	r2, r3, #28
 80055f0:	d501      	bpl.n	80055f6 <__swbuf_r+0x20>
 80055f2:	6923      	ldr	r3, [r4, #16]
 80055f4:	b943      	cbnz	r3, 8005608 <__swbuf_r+0x32>
 80055f6:	4621      	mov	r1, r4
 80055f8:	4628      	mov	r0, r5
 80055fa:	f000 f82b 	bl	8005654 <__swsetup_r>
 80055fe:	b118      	cbz	r0, 8005608 <__swbuf_r+0x32>
 8005600:	f04f 37ff 	mov.w	r7, #4294967295
 8005604:	4638      	mov	r0, r7
 8005606:	bdf8      	pop	{r3, r4, r5, r6, r7, pc}
 8005608:	6823      	ldr	r3, [r4, #0]
 800560a:	6922      	ldr	r2, [r4, #16]
 800560c:	b2f6      	uxtb	r6, r6
 800560e:	1a98      	subs	r0, r3, r2
 8005610:	6963      	ldr	r3, [r4, #20]
 8005612:	4637      	mov	r7, r6
 8005614:	4283      	cmp	r3, r0
 8005616:	dc05      	bgt.n	8005624 <__swbuf_r+0x4e>
 8005618:	4621      	mov	r1, r4
 800561a:	4628      	mov	r0, r5
 800561c:	f000 fd32 	bl	8006084 <_fflush_r>
 8005620:	2800      	cmp	r0, #0
 8005622:	d1ed      	bne.n	8005600 <__swbuf_r+0x2a>
 8005624:	68a3      	ldr	r3, [r4, #8]
 8005626:	3b01      	subs	r3, #1
 8005628:	60a3      	str	r3, [r4, #8]
 800562a:	6823      	ldr	r3, [r4, #0]
 800562c:	1c5a      	adds	r2, r3, #1
 800562e:	6022      	str	r2, [r4, #0]
 8005630:	701e      	strb	r6, [r3, #0]
 8005632:	6962      	ldr	r2, [r4, #20]
 8005634:	1c43      	adds	r3, r0, #1
 8005636:	429a      	cmp	r2, r3
 8005638:	d004      	beq.n	8005644 <__swbuf_r+0x6e>
 800563a:	89a3      	ldrh	r3, [r4, #12]
 800563c:	07db      	lsls	r3, r3, #31
 800563e:	d5e1      	bpl.n	8005604 <__swbuf_r+0x2e>
 8005640:	2e0a      	cmp	r6, #10
 8005642:	d1df      	bne.n	8005604 <__swbuf_r+0x2e>
 8005644:	4621      	mov	r1, r4
 8005646:	4628      	mov	r0, r5
 8005648:	f000 fd1c 	bl	8006084 <_fflush_r>
 800564c:	2800      	cmp	r0, #0
 800564e:	d0d9      	beq.n	8005604 <__swbuf_r+0x2e>
 8005650:	e7d6      	b.n	8005600 <__swbuf_r+0x2a>
	...

08005654 <__swsetup_r>:
 8005654:	b538      	push	{r3, r4, r5, lr}
 8005656:	4b29      	ldr	r3, [pc, #164]	@ (80056fc <__swsetup_r+0xa8>)
 8005658:	4605      	mov	r5, r0
 800565a:	6818      	ldr	r0, [r3, #0]
 800565c:	460c      	mov	r4, r1
 800565e:	b118      	cbz	r0, 8005668 <__swsetup_r+0x14>
 8005660:	6a03      	ldr	r3, [r0, #32]
 8005662:	b90b      	cbnz	r3, 8005668 <__swsetup_r+0x14>
 8005664:	f7ff fece 	bl	8005404 <__sinit>
 8005668:	f9b4 300c 	ldrsh.w	r3, [r4, #12]
 800566c:	0719      	lsls	r1, r3, #28
 800566e:	d422      	bmi.n	80056b6 <__swsetup_r+0x62>
 8005670:	06da      	lsls	r2, r3, #27
 8005672:	d407      	bmi.n	8005684 <__swsetup_r+0x30>
 8005674:	2209      	movs	r2, #9
 8005676:	602a      	str	r2, [r5, #0]
 8005678:	f043 0340 	orr.w	r3, r3, #64	@ 0x40
 800567c:	f04f 30ff 	mov.w	r0, #4294967295
 8005680:	81a3      	strh	r3, [r4, #12]
 8005682:	e033      	b.n	80056ec <__swsetup_r+0x98>
 8005684:	0758      	lsls	r0, r3, #29
 8005686:	d512      	bpl.n	80056ae <__swsetup_r+0x5a>
 8005688:	6b61      	ldr	r1, [r4, #52]	@ 0x34
 800568a:	b141      	cbz	r1, 800569e <__swsetup_r+0x4a>
 800568c:	f104 0344 	add.w	r3, r4, #68	@ 0x44
 8005690:	4299      	cmp	r1, r3
 8005692:	d002      	beq.n	800569a <__swsetup_r+0x46>
 8005694:	4628      	mov	r0, r5
 8005696:	f000 f8af 	bl	80057f8 <_free_r>
 800569a:	2300      	movs	r3, #0
 800569c:	6363      	str	r3, [r4, #52]	@ 0x34
 800569e:	89a3      	ldrh	r3, [r4, #12]
 80056a0:	f023 0324 	bic.w	r3, r3, #36	@ 0x24
 80056a4:	81a3      	strh	r3, [r4, #12]
 80056a6:	2300      	movs	r3, #0
 80056a8:	6063      	str	r3, [r4, #4]
 80056aa:	6923      	ldr	r3, [r4, #16]
 80056ac:	6023      	str	r3, [r4, #0]
 80056ae:	89a3      	ldrh	r3, [r4, #12]
 80056b0:	f043 0308 	orr.w	r3, r3, #8
 80056b4:	81a3      	strh	r3, [r4, #12]
 80056b6:	6923      	ldr	r3, [r4, #16]
 80056b8:	b94b      	cbnz	r3, 80056ce <__swsetup_r+0x7a>
 80056ba:	89a3      	ldrh	r3, [r4, #12]
 80056bc:	f403 7320 	and.w	r3, r3, #640	@ 0x280
 80056c0:	f5b3 7f00 	cmp.w	r3, #512	@ 0x200
 80056c4:	d003      	beq.n	80056ce <__swsetup_r+0x7a>
 80056c6:	4621      	mov	r1, r4
 80056c8:	4628      	mov	r0, r5
 80056ca:	f000 fd28 	bl	800611e <__smakebuf_r>
 80056ce:	f9b4 300c 	ldrsh.w	r3, [r4, #12]
 80056d2:	f013 0201 	ands.w	r2, r3, #1
 80056d6:	d00a      	beq.n	80056ee <__swsetup_r+0x9a>
 80056d8:	2200      	movs	r2, #0
 80056da:	60a2      	str	r2, [r4, #8]
 80056dc:	6962      	ldr	r2, [r4, #20]
 80056de:	4252      	negs	r2, r2
 80056e0:	61a2      	str	r2, [r4, #24]
 80056e2:	6922      	ldr	r2, [r4, #16]
 80056e4:	b942      	cbnz	r2, 80056f8 <__swsetup_r+0xa4>
 80056e6:	f013 0080 	ands.w	r0, r3, #128	@ 0x80
 80056ea:	d1c5      	bne.n	8005678 <__swsetup_r+0x24>
 80056ec:	bd38      	pop	{r3, r4, r5, pc}
 80056ee:	0799      	lsls	r1, r3, #30
 80056f0:	bf58      	it	pl
 80056f2:	6962      	ldrpl	r2, [r4, #20]
 80056f4:	60a2      	str	r2, [r4, #8]
 80056f6:	e7f4      	b.n	80056e2 <__swsetup_r+0x8e>
 80056f8:	2000      	movs	r0, #0
 80056fa:	e7f7      	b.n	80056ec <__swsetup_r+0x98>
 80056fc:	200001e4 	.word	0x200001e4

08005700 <memset>:
 8005700:	4603      	mov	r3, r0
 8005702:	4402      	add	r2, r0
 8005704:	4293      	cmp	r3, r2
 8005706:	d100      	bne.n	800570a <memset+0xa>
 8005708:	4770      	bx	lr
 800570a:	f803 1b01 	strb.w	r1, [r3], #1
 800570e:	e7f9      	b.n	8005704 <memset+0x4>

08005710 <_close_r>:
 8005710:	b538      	push	{r3, r4, r5, lr}
 8005712:	2300      	movs	r3, #0
 8005714:	4d05      	ldr	r5, [pc, #20]	@ (800572c <_close_r+0x1c>)
 8005716:	4604      	mov	r4, r0
 8005718:	4608      	mov	r0, r1
 800571a:	602b      	str	r3, [r5, #0]
 800571c:	f7fa fed2 	bl	80004c4 <_close>
 8005720:	1c43      	adds	r3, r0, #1
 8005722:	d102      	bne.n	800572a <_close_r+0x1a>
 8005724:	682b      	ldr	r3, [r5, #0]
 8005726:	b103      	cbz	r3, 800572a <_close_r+0x1a>
 8005728:	6023      	str	r3, [r4, #0]
 800572a:	bd38      	pop	{r3, r4, r5, pc}
 800572c:	2000059c 	.word	0x2000059c

08005730 <_lseek_r>:
 8005730:	b538      	push	{r3, r4, r5, lr}
 8005732:	4604      	mov	r4, r0
 8005734:	4608      	mov	r0, r1
 8005736:	4611      	mov	r1, r2
 8005738:	2200      	movs	r2, #0
 800573a:	4d05      	ldr	r5, [pc, #20]	@ (8005750 <_lseek_r+0x20>)
 800573c:	602a      	str	r2, [r5, #0]
 800573e:	461a      	mov	r2, r3
 8005740:	f7fa feca 	bl	80004d8 <_lseek>
 8005744:	1c43      	adds	r3, r0, #1
 8005746:	d102      	bne.n	800574e <_lseek_r+0x1e>
 8005748:	682b      	ldr	r3, [r5, #0]
 800574a:	b103      	cbz	r3, 800574e <_lseek_r+0x1e>
 800574c:	6023      	str	r3, [r4, #0]
 800574e:	bd38      	pop	{r3, r4, r5, pc}
 8005750:	2000059c 	.word	0x2000059c

08005754 <_read_r>:
 8005754:	b538      	push	{r3, r4, r5, lr}
 8005756:	4604      	mov	r4, r0
 8005758:	4608      	mov	r0, r1
 800575a:	4611      	mov	r1, r2
 800575c:	2200      	movs	r2, #0
 800575e:	4d05      	ldr	r5, [pc, #20]	@ (8005774 <_read_r+0x20>)
 8005760:	602a      	str	r2, [r5, #0]
 8005762:	461a      	mov	r2, r3
 8005764:	f7fa fea0 	bl	80004a8 <_read>
 8005768:	1c43      	adds	r3, r0, #1
 800576a:	d102      	bne.n	8005772 <_read_r+0x1e>
 800576c:	682b      	ldr	r3, [r5, #0]
 800576e:	b103      	cbz	r3, 8005772 <_read_r+0x1e>
 8005770:	6023      	str	r3, [r4, #0]
 8005772:	bd38      	pop	{r3, r4, r5, pc}
 8005774:	2000059c 	.word	0x2000059c

08005778 <_write_r>:
 8005778:	b538      	push	{r3, r4, r5, lr}
 800577a:	4604      	mov	r4, r0
 800577c:	4608      	mov	r0, r1
 800577e:	4611      	mov	r1, r2
 8005780:	2200      	movs	r2, #0
 8005782:	4d05      	ldr	r5, [pc, #20]	@ (8005798 <_write_r+0x20>)
 8005784:	602a      	str	r2, [r5, #0]
 8005786:	461a      	mov	r2, r3
 8005788:	f7fa fce0 	bl	800014c <_write>
 800578c:	1c43      	adds	r3, r0, #1
 800578e:	d102      	bne.n	8005796 <_write_r+0x1e>
 8005790:	682b      	ldr	r3, [r5, #0]
 8005792:	b103      	cbz	r3, 8005796 <_write_r+0x1e>
 8005794:	6023      	str	r3, [r4, #0]
 8005796:	bd38      	pop	{r3, r4, r5, pc}
 8005798:	2000059c 	.word	0x2000059c

0800579c <__errno>:
 800579c:	4b01      	ldr	r3, [pc, #4]	@ (80057a4 <__errno+0x8>)
 800579e:	6818      	ldr	r0, [r3, #0]
 80057a0:	4770      	bx	lr
 80057a2:	bf00      	nop
 80057a4:	200001e4 	.word	0x200001e4

080057a8 <__libc_init_array>:
 80057a8:	b570      	push	{r4, r5, r6, lr}
 80057aa:	2600      	movs	r6, #0
 80057ac:	4d0c      	ldr	r5, [pc, #48]	@ (80057e0 <__libc_init_array+0x38>)
 80057ae:	4c0d      	ldr	r4, [pc, #52]	@ (80057e4 <__libc_init_array+0x3c>)
 80057b0:	1b64      	subs	r4, r4, r5
 80057b2:	10a4      	asrs	r4, r4, #2
 80057b4:	42a6      	cmp	r6, r4
 80057b6:	d109      	bne.n	80057cc <__libc_init_array+0x24>
 80057b8:	f000 fd2e 	bl	8006218 <_init>
 80057bc:	2600      	movs	r6, #0
 80057be:	4d0a      	ldr	r5, [pc, #40]	@ (80057e8 <__libc_init_array+0x40>)
 80057c0:	4c0a      	ldr	r4, [pc, #40]	@ (80057ec <__libc_init_array+0x44>)
 80057c2:	1b64      	subs	r4, r4, r5
 80057c4:	10a4      	asrs	r4, r4, #2
 80057c6:	42a6      	cmp	r6, r4
 80057c8:	d105      	bne.n	80057d6 <__libc_init_array+0x2e>
 80057ca:	bd70      	pop	{r4, r5, r6, pc}
 80057cc:	f855 3b04 	ldr.w	r3, [r5], #4
 80057d0:	4798      	blx	r3
 80057d2:	3601      	adds	r6, #1
 80057d4:	e7ee      	b.n	80057b4 <__libc_init_array+0xc>
 80057d6:	f855 3b04 	ldr.w	r3, [r5], #4
 80057da:	4798      	blx	r3
 80057dc:	3601      	adds	r6, #1
 80057de:	e7f2      	b.n	80057c6 <__libc_init_array+0x1e>
 80057e0:	08008360 	.word	0x08008360
 80057e4:	08008360 	.word	0x08008360
 80057e8:	08008360 	.word	0x08008360
 80057ec:	08008364 	.word	0x08008364

080057f0 <__retarget_lock_init_recursive>:
 80057f0:	4770      	bx	lr

080057f2 <__retarget_lock_acquire_recursive>:
 80057f2:	4770      	bx	lr

080057f4 <__retarget_lock_release_recursive>:
 80057f4:	4770      	bx	lr
	...

080057f8 <_free_r>:
 80057f8:	b538      	push	{r3, r4, r5, lr}
 80057fa:	4605      	mov	r5, r0
 80057fc:	2900      	cmp	r1, #0
 80057fe:	d040      	beq.n	8005882 <_free_r+0x8a>
 8005800:	f851 3c04 	ldr.w	r3, [r1, #-4]
 8005804:	1f0c      	subs	r4, r1, #4
 8005806:	2b00      	cmp	r3, #0
 8005808:	bfb8      	it	lt
 800580a:	18e4      	addlt	r4, r4, r3
 800580c:	f000 f8de 	bl	80059cc <__malloc_lock>
 8005810:	4a1c      	ldr	r2, [pc, #112]	@ (8005884 <_free_r+0x8c>)
 8005812:	6813      	ldr	r3, [r2, #0]
 8005814:	b933      	cbnz	r3, 8005824 <_free_r+0x2c>
 8005816:	6063      	str	r3, [r4, #4]
 8005818:	6014      	str	r4, [r2, #0]
 800581a:	4628      	mov	r0, r5
 800581c:	e8bd 4038 	ldmia.w	sp!, {r3, r4, r5, lr}
 8005820:	f000 b8da 	b.w	80059d8 <__malloc_unlock>
 8005824:	42a3      	cmp	r3, r4
 8005826:	d908      	bls.n	800583a <_free_r+0x42>
 8005828:	6820      	ldr	r0, [r4, #0]
 800582a:	1821      	adds	r1, r4, r0
 800582c:	428b      	cmp	r3, r1
 800582e:	bf01      	itttt	eq
 8005830:	6819      	ldreq	r1, [r3, #0]
 8005832:	685b      	ldreq	r3, [r3, #4]
 8005834:	1809      	addeq	r1, r1, r0
 8005836:	6021      	streq	r1, [r4, #0]
 8005838:	e7ed      	b.n	8005816 <_free_r+0x1e>
 800583a:	461a      	mov	r2, r3
 800583c:	685b      	ldr	r3, [r3, #4]
 800583e:	b10b      	cbz	r3, 8005844 <_free_r+0x4c>
 8005840:	42a3      	cmp	r3, r4
 8005842:	d9fa      	bls.n	800583a <_free_r+0x42>
 8005844:	6811      	ldr	r1, [r2, #0]
 8005846:	1850      	adds	r0, r2, r1
 8005848:	42a0      	cmp	r0, r4
 800584a:	d10b      	bne.n	8005864 <_free_r+0x6c>
 800584c:	6820      	ldr	r0, [r4, #0]
 800584e:	4401      	add	r1, r0
 8005850:	1850      	adds	r0, r2, r1
 8005852:	4283      	cmp	r3, r0
 8005854:	6011      	str	r1, [r2, #0]
 8005856:	d1e0      	bne.n	800581a <_free_r+0x22>
 8005858:	6818      	ldr	r0, [r3, #0]
 800585a:	685b      	ldr	r3, [r3, #4]
 800585c:	4408      	add	r0, r1
 800585e:	6010      	str	r0, [r2, #0]
 8005860:	6053      	str	r3, [r2, #4]
 8005862:	e7da      	b.n	800581a <_free_r+0x22>
 8005864:	d902      	bls.n	800586c <_free_r+0x74>
 8005866:	230c      	movs	r3, #12
 8005868:	602b      	str	r3, [r5, #0]
 800586a:	e7d6      	b.n	800581a <_free_r+0x22>
 800586c:	6820      	ldr	r0, [r4, #0]
 800586e:	1821      	adds	r1, r4, r0
 8005870:	428b      	cmp	r3, r1
 8005872:	bf01      	itttt	eq
 8005874:	6819      	ldreq	r1, [r3, #0]
 8005876:	685b      	ldreq	r3, [r3, #4]
 8005878:	1809      	addeq	r1, r1, r0
 800587a:	6021      	streq	r1, [r4, #0]
 800587c:	6063      	str	r3, [r4, #4]
 800587e:	6054      	str	r4, [r2, #4]
 8005880:	e7cb      	b.n	800581a <_free_r+0x22>
 8005882:	bd38      	pop	{r3, r4, r5, pc}
 8005884:	200005a8 	.word	0x200005a8

08005888 <sbrk_aligned>:
 8005888:	b570      	push	{r4, r5, r6, lr}
 800588a:	4e0f      	ldr	r6, [pc, #60]	@ (80058c8 <sbrk_aligned+0x40>)
 800588c:	460c      	mov	r4, r1
 800588e:	6831      	ldr	r1, [r6, #0]
 8005890:	4605      	mov	r5, r0
 8005892:	b911      	cbnz	r1, 800589a <sbrk_aligned+0x12>
 8005894:	f000 fca2 	bl	80061dc <_sbrk_r>
 8005898:	6030      	str	r0, [r6, #0]
 800589a:	4621      	mov	r1, r4
 800589c:	4628      	mov	r0, r5
 800589e:	f000 fc9d 	bl	80061dc <_sbrk_r>
 80058a2:	1c43      	adds	r3, r0, #1
 80058a4:	d103      	bne.n	80058ae <sbrk_aligned+0x26>
 80058a6:	f04f 34ff 	mov.w	r4, #4294967295
 80058aa:	4620      	mov	r0, r4
 80058ac:	bd70      	pop	{r4, r5, r6, pc}
 80058ae:	1cc4      	adds	r4, r0, #3
 80058b0:	f024 0403 	bic.w	r4, r4, #3
 80058b4:	42a0      	cmp	r0, r4
 80058b6:	d0f8      	beq.n	80058aa <sbrk_aligned+0x22>
 80058b8:	1a21      	subs	r1, r4, r0
 80058ba:	4628      	mov	r0, r5
 80058bc:	f000 fc8e 	bl	80061dc <_sbrk_r>
 80058c0:	3001      	adds	r0, #1
 80058c2:	d1f2      	bne.n	80058aa <sbrk_aligned+0x22>
 80058c4:	e7ef      	b.n	80058a6 <sbrk_aligned+0x1e>
 80058c6:	bf00      	nop
 80058c8:	200005a4 	.word	0x200005a4

080058cc <_malloc_r>:
 80058cc:	e92d 43f8 	stmdb	sp!, {r3, r4, r5, r6, r7, r8, r9, lr}
 80058d0:	1ccd      	adds	r5, r1, #3
 80058d2:	f025 0503 	bic.w	r5, r5, #3
 80058d6:	3508      	adds	r5, #8
 80058d8:	2d0c      	cmp	r5, #12
 80058da:	bf38      	it	cc
 80058dc:	250c      	movcc	r5, #12
 80058de:	2d00      	cmp	r5, #0
 80058e0:	4606      	mov	r6, r0
 80058e2:	db01      	blt.n	80058e8 <_malloc_r+0x1c>
 80058e4:	42a9      	cmp	r1, r5
 80058e6:	d904      	bls.n	80058f2 <_malloc_r+0x26>
 80058e8:	230c      	movs	r3, #12
 80058ea:	6033      	str	r3, [r6, #0]
 80058ec:	2000      	movs	r0, #0
 80058ee:	e8bd 83f8 	ldmia.w	sp!, {r3, r4, r5, r6, r7, r8, r9, pc}
 80058f2:	f8df 80d4 	ldr.w	r8, [pc, #212]	@ 80059c8 <_malloc_r+0xfc>
 80058f6:	f000 f869 	bl	80059cc <__malloc_lock>
 80058fa:	f8d8 3000 	ldr.w	r3, [r8]
 80058fe:	461c      	mov	r4, r3
 8005900:	bb44      	cbnz	r4, 8005954 <_malloc_r+0x88>
 8005902:	4629      	mov	r1, r5
 8005904:	4630      	mov	r0, r6
 8005906:	f7ff ffbf 	bl	8005888 <sbrk_aligned>
 800590a:	1c43      	adds	r3, r0, #1
 800590c:	4604      	mov	r4, r0
 800590e:	d158      	bne.n	80059c2 <_malloc_r+0xf6>
 8005910:	f8d8 4000 	ldr.w	r4, [r8]
 8005914:	4627      	mov	r7, r4
 8005916:	2f00      	cmp	r7, #0
 8005918:	d143      	bne.n	80059a2 <_malloc_r+0xd6>
 800591a:	2c00      	cmp	r4, #0
 800591c:	d04b      	beq.n	80059b6 <_malloc_r+0xea>
 800591e:	6823      	ldr	r3, [r4, #0]
 8005920:	4639      	mov	r1, r7
 8005922:	4630      	mov	r0, r6
 8005924:	eb04 0903 	add.w	r9, r4, r3
 8005928:	f000 fc58 	bl	80061dc <_sbrk_r>
 800592c:	4581      	cmp	r9, r0
 800592e:	d142      	bne.n	80059b6 <_malloc_r+0xea>
 8005930:	6821      	ldr	r1, [r4, #0]
 8005932:	4630      	mov	r0, r6
 8005934:	1a6d      	subs	r5, r5, r1
 8005936:	4629      	mov	r1, r5
 8005938:	f7ff ffa6 	bl	8005888 <sbrk_aligned>
 800593c:	3001      	adds	r0, #1
 800593e:	d03a      	beq.n	80059b6 <_malloc_r+0xea>
 8005940:	6823      	ldr	r3, [r4, #0]
 8005942:	442b      	add	r3, r5
 8005944:	6023      	str	r3, [r4, #0]
 8005946:	f8d8 3000 	ldr.w	r3, [r8]
 800594a:	685a      	ldr	r2, [r3, #4]
 800594c:	bb62      	cbnz	r2, 80059a8 <_malloc_r+0xdc>
 800594e:	f8c8 7000 	str.w	r7, [r8]
 8005952:	e00f      	b.n	8005974 <_malloc_r+0xa8>
 8005954:	6822      	ldr	r2, [r4, #0]
 8005956:	1b52      	subs	r2, r2, r5
 8005958:	d420      	bmi.n	800599c <_malloc_r+0xd0>
 800595a:	2a0b      	cmp	r2, #11
 800595c:	d917      	bls.n	800598e <_malloc_r+0xc2>
 800595e:	1961      	adds	r1, r4, r5
 8005960:	42a3      	cmp	r3, r4
 8005962:	6025      	str	r5, [r4, #0]
 8005964:	bf18      	it	ne
 8005966:	6059      	strne	r1, [r3, #4]
 8005968:	6863      	ldr	r3, [r4, #4]
 800596a:	bf08      	it	eq
 800596c:	f8c8 1000 	streq.w	r1, [r8]
 8005970:	5162      	str	r2, [r4, r5]
 8005972:	604b      	str	r3, [r1, #4]
 8005974:	4630      	mov	r0, r6
 8005976:	f000 f82f 	bl	80059d8 <__malloc_unlock>
 800597a:	f104 000b 	add.w	r0, r4, #11
 800597e:	1d23      	adds	r3, r4, #4
 8005980:	f020 0007 	bic.w	r0, r0, #7
 8005984:	1ac2      	subs	r2, r0, r3
 8005986:	bf1c      	itt	ne
 8005988:	1a1b      	subne	r3, r3, r0
 800598a:	50a3      	strne	r3, [r4, r2]
 800598c:	e7af      	b.n	80058ee <_malloc_r+0x22>
 800598e:	6862      	ldr	r2, [r4, #4]
 8005990:	42a3      	cmp	r3, r4
 8005992:	bf0c      	ite	eq
 8005994:	f8c8 2000 	streq.w	r2, [r8]
 8005998:	605a      	strne	r2, [r3, #4]
 800599a:	e7eb      	b.n	8005974 <_malloc_r+0xa8>
 800599c:	4623      	mov	r3, r4
 800599e:	6864      	ldr	r4, [r4, #4]
 80059a0:	e7ae      	b.n	8005900 <_malloc_r+0x34>
 80059a2:	463c      	mov	r4, r7
 80059a4:	687f      	ldr	r7, [r7, #4]
 80059a6:	e7b6      	b.n	8005916 <_malloc_r+0x4a>
 80059a8:	461a      	mov	r2, r3
 80059aa:	685b      	ldr	r3, [r3, #4]
 80059ac:	42a3      	cmp	r3, r4
 80059ae:	d1fb      	bne.n	80059a8 <_malloc_r+0xdc>
 80059b0:	2300      	movs	r3, #0
 80059b2:	6053      	str	r3, [r2, #4]
 80059b4:	e7de      	b.n	8005974 <_malloc_r+0xa8>
 80059b6:	230c      	movs	r3, #12
 80059b8:	4630      	mov	r0, r6
 80059ba:	6033      	str	r3, [r6, #0]
 80059bc:	f000 f80c 	bl	80059d8 <__malloc_unlock>
 80059c0:	e794      	b.n	80058ec <_malloc_r+0x20>
 80059c2:	6005      	str	r5, [r0, #0]
 80059c4:	e7d6      	b.n	8005974 <_malloc_r+0xa8>
 80059c6:	bf00      	nop
 80059c8:	200005a8 	.word	0x200005a8

080059cc <__malloc_lock>:
 80059cc:	4801      	ldr	r0, [pc, #4]	@ (80059d4 <__malloc_lock+0x8>)
 80059ce:	f7ff bf10 	b.w	80057f2 <__retarget_lock_acquire_recursive>
 80059d2:	bf00      	nop
 80059d4:	200005a0 	.word	0x200005a0

080059d8 <__malloc_unlock>:
 80059d8:	4801      	ldr	r0, [pc, #4]	@ (80059e0 <__malloc_unlock+0x8>)
 80059da:	f7ff bf0b 	b.w	80057f4 <__retarget_lock_release_recursive>
 80059de:	bf00      	nop
 80059e0:	200005a0 	.word	0x200005a0

080059e4 <__sfputc_r>:
 80059e4:	6893      	ldr	r3, [r2, #8]
 80059e6:	b410      	push	{r4}
 80059e8:	3b01      	subs	r3, #1
 80059ea:	2b00      	cmp	r3, #0
 80059ec:	6093      	str	r3, [r2, #8]
 80059ee:	da07      	bge.n	8005a00 <__sfputc_r+0x1c>
 80059f0:	6994      	ldr	r4, [r2, #24]
 80059f2:	42a3      	cmp	r3, r4
 80059f4:	db01      	blt.n	80059fa <__sfputc_r+0x16>
 80059f6:	290a      	cmp	r1, #10
 80059f8:	d102      	bne.n	8005a00 <__sfputc_r+0x1c>
 80059fa:	bc10      	pop	{r4}
 80059fc:	f7ff bdeb 	b.w	80055d6 <__swbuf_r>
 8005a00:	6813      	ldr	r3, [r2, #0]
 8005a02:	1c58      	adds	r0, r3, #1
 8005a04:	6010      	str	r0, [r2, #0]
 8005a06:	7019      	strb	r1, [r3, #0]
 8005a08:	4608      	mov	r0, r1
 8005a0a:	bc10      	pop	{r4}
 8005a0c:	4770      	bx	lr

08005a0e <__sfputs_r>:
 8005a0e:	b5f8      	push	{r3, r4, r5, r6, r7, lr}
 8005a10:	4606      	mov	r6, r0
 8005a12:	460f      	mov	r7, r1
 8005a14:	4614      	mov	r4, r2
 8005a16:	18d5      	adds	r5, r2, r3
 8005a18:	42ac      	cmp	r4, r5
 8005a1a:	d101      	bne.n	8005a20 <__sfputs_r+0x12>
 8005a1c:	2000      	movs	r0, #0
 8005a1e:	e007      	b.n	8005a30 <__sfputs_r+0x22>
 8005a20:	463a      	mov	r2, r7
 8005a22:	4630      	mov	r0, r6
 8005a24:	f814 1b01 	ldrb.w	r1, [r4], #1
 8005a28:	f7ff ffdc 	bl	80059e4 <__sfputc_r>
 8005a2c:	1c43      	adds	r3, r0, #1
 8005a2e:	d1f3      	bne.n	8005a18 <__sfputs_r+0xa>
 8005a30:	bdf8      	pop	{r3, r4, r5, r6, r7, pc}
	...

08005a34 <_vfiprintf_r>:
 8005a34:	e92d 4ff0 	stmdb	sp!, {r4, r5, r6, r7, r8, r9, sl, fp, lr}
 8005a38:	460d      	mov	r5, r1
 8005a3a:	4614      	mov	r4, r2
 8005a3c:	4698      	mov	r8, r3
 8005a3e:	4606      	mov	r6, r0
 8005a40:	b09d      	sub	sp, #116	@ 0x74
 8005a42:	b118      	cbz	r0, 8005a4c <_vfiprintf_r+0x18>
 8005a44:	6a03      	ldr	r3, [r0, #32]
 8005a46:	b90b      	cbnz	r3, 8005a4c <_vfiprintf_r+0x18>
 8005a48:	f7ff fcdc 	bl	8005404 <__sinit>
 8005a4c:	6e6b      	ldr	r3, [r5, #100]	@ 0x64
 8005a4e:	07d9      	lsls	r1, r3, #31
 8005a50:	d405      	bmi.n	8005a5e <_vfiprintf_r+0x2a>
 8005a52:	89ab      	ldrh	r3, [r5, #12]
 8005a54:	059a      	lsls	r2, r3, #22
 8005a56:	d402      	bmi.n	8005a5e <_vfiprintf_r+0x2a>
 8005a58:	6da8      	ldr	r0, [r5, #88]	@ 0x58
 8005a5a:	f7ff feca 	bl	80057f2 <__retarget_lock_acquire_recursive>
 8005a5e:	89ab      	ldrh	r3, [r5, #12]
 8005a60:	071b      	lsls	r3, r3, #28
 8005a62:	d501      	bpl.n	8005a68 <_vfiprintf_r+0x34>
 8005a64:	692b      	ldr	r3, [r5, #16]
 8005a66:	b99b      	cbnz	r3, 8005a90 <_vfiprintf_r+0x5c>
 8005a68:	4629      	mov	r1, r5
 8005a6a:	4630      	mov	r0, r6
 8005a6c:	f7ff fdf2 	bl	8005654 <__swsetup_r>
 8005a70:	b170      	cbz	r0, 8005a90 <_vfiprintf_r+0x5c>
 8005a72:	6e6b      	ldr	r3, [r5, #100]	@ 0x64
 8005a74:	07dc      	lsls	r4, r3, #31
 8005a76:	d504      	bpl.n	8005a82 <_vfiprintf_r+0x4e>
 8005a78:	f04f 30ff 	mov.w	r0, #4294967295
 8005a7c:	b01d      	add	sp, #116	@ 0x74
 8005a7e:	e8bd 8ff0 	ldmia.w	sp!, {r4, r5, r6, r7, r8, r9, sl, fp, pc}
 8005a82:	89ab      	ldrh	r3, [r5, #12]
 8005a84:	0598      	lsls	r0, r3, #22
 8005a86:	d4f7      	bmi.n	8005a78 <_vfiprintf_r+0x44>
 8005a88:	6da8      	ldr	r0, [r5, #88]	@ 0x58
 8005a8a:	f7ff feb3 	bl	80057f4 <__retarget_lock_release_recursive>
 8005a8e:	e7f3      	b.n	8005a78 <_vfiprintf_r+0x44>
 8005a90:	2300      	movs	r3, #0
 8005a92:	9309      	str	r3, [sp, #36]	@ 0x24
 8005a94:	2320      	movs	r3, #32
 8005a96:	f88d 3029 	strb.w	r3, [sp, #41]	@ 0x29
 8005a9a:	2330      	movs	r3, #48	@ 0x30
 8005a9c:	f04f 0901 	mov.w	r9, #1
 8005aa0:	f8cd 800c 	str.w	r8, [sp, #12]
 8005aa4:	f8df 81a8 	ldr.w	r8, [pc, #424]	@ 8005c50 <_vfiprintf_r+0x21c>
 8005aa8:	f88d 302a 	strb.w	r3, [sp, #42]	@ 0x2a
 8005aac:	4623      	mov	r3, r4
 8005aae:	469a      	mov	sl, r3
 8005ab0:	f813 2b01 	ldrb.w	r2, [r3], #1
 8005ab4:	b10a      	cbz	r2, 8005aba <_vfiprintf_r+0x86>
 8005ab6:	2a25      	cmp	r2, #37	@ 0x25
 8005ab8:	d1f9      	bne.n	8005aae <_vfiprintf_r+0x7a>
 8005aba:	ebba 0b04 	subs.w	fp, sl, r4
 8005abe:	d00b      	beq.n	8005ad8 <_vfiprintf_r+0xa4>
 8005ac0:	465b      	mov	r3, fp
 8005ac2:	4622      	mov	r2, r4
 8005ac4:	4629      	mov	r1, r5
 8005ac6:	4630      	mov	r0, r6
 8005ac8:	f7ff ffa1 	bl	8005a0e <__sfputs_r>
 8005acc:	3001      	adds	r0, #1
 8005ace:	f000 80a7 	beq.w	8005c20 <_vfiprintf_r+0x1ec>
 8005ad2:	9a09      	ldr	r2, [sp, #36]	@ 0x24
 8005ad4:	445a      	add	r2, fp
 8005ad6:	9209      	str	r2, [sp, #36]	@ 0x24
 8005ad8:	f89a 3000 	ldrb.w	r3, [sl]
 8005adc:	2b00      	cmp	r3, #0
 8005ade:	f000 809f 	beq.w	8005c20 <_vfiprintf_r+0x1ec>
 8005ae2:	2300      	movs	r3, #0
 8005ae4:	f04f 32ff 	mov.w	r2, #4294967295
 8005ae8:	e9cd 2305 	strd	r2, r3, [sp, #20]
 8005aec:	f10a 0a01 	add.w	sl, sl, #1
 8005af0:	9304      	str	r3, [sp, #16]
 8005af2:	9307      	str	r3, [sp, #28]
 8005af4:	f88d 3053 	strb.w	r3, [sp, #83]	@ 0x53
 8005af8:	931a      	str	r3, [sp, #104]	@ 0x68
 8005afa:	4654      	mov	r4, sl
 8005afc:	2205      	movs	r2, #5
 8005afe:	f814 1b01 	ldrb.w	r1, [r4], #1
 8005b02:	4853      	ldr	r0, [pc, #332]	@ (8005c50 <_vfiprintf_r+0x21c>)
 8005b04:	f000 fb7a 	bl	80061fc <memchr>
 8005b08:	9a04      	ldr	r2, [sp, #16]
 8005b0a:	b9d8      	cbnz	r0, 8005b44 <_vfiprintf_r+0x110>
 8005b0c:	06d1      	lsls	r1, r2, #27
 8005b0e:	bf44      	itt	mi
 8005b10:	2320      	movmi	r3, #32
 8005b12:	f88d 3053 	strbmi.w	r3, [sp, #83]	@ 0x53
 8005b16:	0713      	lsls	r3, r2, #28
 8005b18:	bf44      	itt	mi
 8005b1a:	232b      	movmi	r3, #43	@ 0x2b
 8005b1c:	f88d 3053 	strbmi.w	r3, [sp, #83]	@ 0x53
 8005b20:	f89a 3000 	ldrb.w	r3, [sl]
 8005b24:	2b2a      	cmp	r3, #42	@ 0x2a
 8005b26:	d015      	beq.n	8005b54 <_vfiprintf_r+0x120>
 8005b28:	4654      	mov	r4, sl
 8005b2a:	2000      	movs	r0, #0
 8005b2c:	f04f 0c0a 	mov.w	ip, #10
 8005b30:	9a07      	ldr	r2, [sp, #28]
 8005b32:	4621      	mov	r1, r4
 8005b34:	f811 3b01 	ldrb.w	r3, [r1], #1
 8005b38:	3b30      	subs	r3, #48	@ 0x30
 8005b3a:	2b09      	cmp	r3, #9
 8005b3c:	d94b      	bls.n	8005bd6 <_vfiprintf_r+0x1a2>
 8005b3e:	b1b0      	cbz	r0, 8005b6e <_vfiprintf_r+0x13a>
 8005b40:	9207      	str	r2, [sp, #28]
 8005b42:	e014      	b.n	8005b6e <_vfiprintf_r+0x13a>
 8005b44:	eba0 0308 	sub.w	r3, r0, r8
 8005b48:	fa09 f303 	lsl.w	r3, r9, r3
 8005b4c:	4313      	orrs	r3, r2
 8005b4e:	46a2      	mov	sl, r4
 8005b50:	9304      	str	r3, [sp, #16]
 8005b52:	e7d2      	b.n	8005afa <_vfiprintf_r+0xc6>
 8005b54:	9b03      	ldr	r3, [sp, #12]
 8005b56:	1d19      	adds	r1, r3, #4
 8005b58:	681b      	ldr	r3, [r3, #0]
 8005b5a:	9103      	str	r1, [sp, #12]
 8005b5c:	2b00      	cmp	r3, #0
 8005b5e:	bfbb      	ittet	lt
 8005b60:	425b      	neglt	r3, r3
 8005b62:	f042 0202 	orrlt.w	r2, r2, #2
 8005b66:	9307      	strge	r3, [sp, #28]
 8005b68:	9307      	strlt	r3, [sp, #28]
 8005b6a:	bfb8      	it	lt
 8005b6c:	9204      	strlt	r2, [sp, #16]
 8005b6e:	7823      	ldrb	r3, [r4, #0]
 8005b70:	2b2e      	cmp	r3, #46	@ 0x2e
 8005b72:	d10a      	bne.n	8005b8a <_vfiprintf_r+0x156>
 8005b74:	7863      	ldrb	r3, [r4, #1]
 8005b76:	2b2a      	cmp	r3, #42	@ 0x2a
 8005b78:	d132      	bne.n	8005be0 <_vfiprintf_r+0x1ac>
 8005b7a:	9b03      	ldr	r3, [sp, #12]
 8005b7c:	3402      	adds	r4, #2
 8005b7e:	1d1a      	adds	r2, r3, #4
 8005b80:	681b      	ldr	r3, [r3, #0]
 8005b82:	9203      	str	r2, [sp, #12]
 8005b84:	ea43 73e3 	orr.w	r3, r3, r3, asr #31
 8005b88:	9305      	str	r3, [sp, #20]
 8005b8a:	f8df a0c8 	ldr.w	sl, [pc, #200]	@ 8005c54 <_vfiprintf_r+0x220>
 8005b8e:	2203      	movs	r2, #3
 8005b90:	4650      	mov	r0, sl
 8005b92:	7821      	ldrb	r1, [r4, #0]
 8005b94:	f000 fb32 	bl	80061fc <memchr>
 8005b98:	b138      	cbz	r0, 8005baa <_vfiprintf_r+0x176>
 8005b9a:	2240      	movs	r2, #64	@ 0x40
 8005b9c:	9b04      	ldr	r3, [sp, #16]
 8005b9e:	eba0 000a 	sub.w	r0, r0, sl
 8005ba2:	4082      	lsls	r2, r0
 8005ba4:	4313      	orrs	r3, r2
 8005ba6:	3401      	adds	r4, #1
 8005ba8:	9304      	str	r3, [sp, #16]
 8005baa:	f814 1b01 	ldrb.w	r1, [r4], #1
 8005bae:	2206      	movs	r2, #6
 8005bb0:	4829      	ldr	r0, [pc, #164]	@ (8005c58 <_vfiprintf_r+0x224>)
 8005bb2:	f88d 1028 	strb.w	r1, [sp, #40]	@ 0x28
 8005bb6:	f000 fb21 	bl	80061fc <memchr>
 8005bba:	2800      	cmp	r0, #0
 8005bbc:	d03f      	beq.n	8005c3e <_vfiprintf_r+0x20a>
 8005bbe:	4b27      	ldr	r3, [pc, #156]	@ (8005c5c <_vfiprintf_r+0x228>)
 8005bc0:	bb1b      	cbnz	r3, 8005c0a <_vfiprintf_r+0x1d6>
 8005bc2:	9b03      	ldr	r3, [sp, #12]
 8005bc4:	3307      	adds	r3, #7
 8005bc6:	f023 0307 	bic.w	r3, r3, #7
 8005bca:	3308      	adds	r3, #8
 8005bcc:	9303      	str	r3, [sp, #12]
 8005bce:	9b09      	ldr	r3, [sp, #36]	@ 0x24
 8005bd0:	443b      	add	r3, r7
 8005bd2:	9309      	str	r3, [sp, #36]	@ 0x24
 8005bd4:	e76a      	b.n	8005aac <_vfiprintf_r+0x78>
 8005bd6:	460c      	mov	r4, r1
 8005bd8:	2001      	movs	r0, #1
 8005bda:	fb0c 3202 	mla	r2, ip, r2, r3
 8005bde:	e7a8      	b.n	8005b32 <_vfiprintf_r+0xfe>
 8005be0:	2300      	movs	r3, #0
 8005be2:	f04f 0c0a 	mov.w	ip, #10
 8005be6:	4619      	mov	r1, r3
 8005be8:	3401      	adds	r4, #1
 8005bea:	9305      	str	r3, [sp, #20]
 8005bec:	4620      	mov	r0, r4
 8005bee:	f810 2b01 	ldrb.w	r2, [r0], #1
 8005bf2:	3a30      	subs	r2, #48	@ 0x30
 8005bf4:	2a09      	cmp	r2, #9
 8005bf6:	d903      	bls.n	8005c00 <_vfiprintf_r+0x1cc>
 8005bf8:	2b00      	cmp	r3, #0
 8005bfa:	d0c6      	beq.n	8005b8a <_vfiprintf_r+0x156>
 8005bfc:	9105      	str	r1, [sp, #20]
 8005bfe:	e7c4      	b.n	8005b8a <_vfiprintf_r+0x156>
 8005c00:	4604      	mov	r4, r0
 8005c02:	2301      	movs	r3, #1
 8005c04:	fb0c 2101 	mla	r1, ip, r1, r2
 8005c08:	e7f0      	b.n	8005bec <_vfiprintf_r+0x1b8>
 8005c0a:	ab03      	add	r3, sp, #12
 8005c0c:	9300      	str	r3, [sp, #0]
 8005c0e:	462a      	mov	r2, r5
 8005c10:	4630      	mov	r0, r6
 8005c12:	4b13      	ldr	r3, [pc, #76]	@ (8005c60 <_vfiprintf_r+0x22c>)
 8005c14:	a904      	add	r1, sp, #16
 8005c16:	f3af 8000 	nop.w
 8005c1a:	4607      	mov	r7, r0
 8005c1c:	1c78      	adds	r0, r7, #1
 8005c1e:	d1d6      	bne.n	8005bce <_vfiprintf_r+0x19a>
 8005c20:	6e6b      	ldr	r3, [r5, #100]	@ 0x64
 8005c22:	07d9      	lsls	r1, r3, #31
 8005c24:	d405      	bmi.n	8005c32 <_vfiprintf_r+0x1fe>
 8005c26:	89ab      	ldrh	r3, [r5, #12]
 8005c28:	059a      	lsls	r2, r3, #22
 8005c2a:	d402      	bmi.n	8005c32 <_vfiprintf_r+0x1fe>
 8005c2c:	6da8      	ldr	r0, [r5, #88]	@ 0x58
 8005c2e:	f7ff fde1 	bl	80057f4 <__retarget_lock_release_recursive>
 8005c32:	89ab      	ldrh	r3, [r5, #12]
 8005c34:	065b      	lsls	r3, r3, #25
 8005c36:	f53f af1f 	bmi.w	8005a78 <_vfiprintf_r+0x44>
 8005c3a:	9809      	ldr	r0, [sp, #36]	@ 0x24
 8005c3c:	e71e      	b.n	8005a7c <_vfiprintf_r+0x48>
 8005c3e:	ab03      	add	r3, sp, #12
 8005c40:	9300      	str	r3, [sp, #0]
 8005c42:	462a      	mov	r2, r5
 8005c44:	4630      	mov	r0, r6
 8005c46:	4b06      	ldr	r3, [pc, #24]	@ (8005c60 <_vfiprintf_r+0x22c>)
 8005c48:	a904      	add	r1, sp, #16
 8005c4a:	f000 f87d 	bl	8005d48 <_printf_i>
 8005c4e:	e7e4      	b.n	8005c1a <_vfiprintf_r+0x1e6>
 8005c50:	0800811d 	.word	0x0800811d
 8005c54:	08008123 	.word	0x08008123
 8005c58:	08008127 	.word	0x08008127
 8005c5c:	00000000 	.word	0x00000000
 8005c60:	08005a0f 	.word	0x08005a0f

08005c64 <_printf_common>:
 8005c64:	e92d 47f0 	stmdb	sp!, {r4, r5, r6, r7, r8, r9, sl, lr}
 8005c68:	4616      	mov	r6, r2
 8005c6a:	4698      	mov	r8, r3
 8005c6c:	688a      	ldr	r2, [r1, #8]
 8005c6e:	690b      	ldr	r3, [r1, #16]
 8005c70:	4607      	mov	r7, r0
 8005c72:	4293      	cmp	r3, r2
 8005c74:	bfb8      	it	lt
 8005c76:	4613      	movlt	r3, r2
 8005c78:	6033      	str	r3, [r6, #0]
 8005c7a:	f891 2043 	ldrb.w	r2, [r1, #67]	@ 0x43
 8005c7e:	460c      	mov	r4, r1
 8005c80:	f8dd 9020 	ldr.w	r9, [sp, #32]
 8005c84:	b10a      	cbz	r2, 8005c8a <_printf_common+0x26>
 8005c86:	3301      	adds	r3, #1
 8005c88:	6033      	str	r3, [r6, #0]
 8005c8a:	6823      	ldr	r3, [r4, #0]
 8005c8c:	0699      	lsls	r1, r3, #26
 8005c8e:	bf42      	ittt	mi
 8005c90:	6833      	ldrmi	r3, [r6, #0]
 8005c92:	3302      	addmi	r3, #2
 8005c94:	6033      	strmi	r3, [r6, #0]
 8005c96:	6825      	ldr	r5, [r4, #0]
 8005c98:	f015 0506 	ands.w	r5, r5, #6
 8005c9c:	d106      	bne.n	8005cac <_printf_common+0x48>
 8005c9e:	f104 0a19 	add.w	sl, r4, #25
 8005ca2:	68e3      	ldr	r3, [r4, #12]
 8005ca4:	6832      	ldr	r2, [r6, #0]
 8005ca6:	1a9b      	subs	r3, r3, r2
 8005ca8:	42ab      	cmp	r3, r5
 8005caa:	dc2b      	bgt.n	8005d04 <_printf_common+0xa0>
 8005cac:	f894 3043 	ldrb.w	r3, [r4, #67]	@ 0x43
 8005cb0:	6822      	ldr	r2, [r4, #0]
 8005cb2:	3b00      	subs	r3, #0
 8005cb4:	bf18      	it	ne
 8005cb6:	2301      	movne	r3, #1
 8005cb8:	0692      	lsls	r2, r2, #26
 8005cba:	d430      	bmi.n	8005d1e <_printf_common+0xba>
 8005cbc:	4641      	mov	r1, r8
 8005cbe:	4638      	mov	r0, r7
 8005cc0:	f104 0243 	add.w	r2, r4, #67	@ 0x43
 8005cc4:	47c8      	blx	r9
 8005cc6:	3001      	adds	r0, #1
 8005cc8:	d023      	beq.n	8005d12 <_printf_common+0xae>
 8005cca:	6823      	ldr	r3, [r4, #0]
 8005ccc:	6922      	ldr	r2, [r4, #16]
 8005cce:	f003 0306 	and.w	r3, r3, #6
 8005cd2:	2b04      	cmp	r3, #4
 8005cd4:	bf14      	ite	ne
 8005cd6:	2500      	movne	r5, #0
 8005cd8:	6833      	ldreq	r3, [r6, #0]
 8005cda:	f04f 0600 	mov.w	r6, #0
 8005cde:	bf08      	it	eq
 8005ce0:	68e5      	ldreq	r5, [r4, #12]
 8005ce2:	f104 041a 	add.w	r4, r4, #26
 8005ce6:	bf08      	it	eq
 8005ce8:	1aed      	subeq	r5, r5, r3
 8005cea:	f854 3c12 	ldr.w	r3, [r4, #-18]
 8005cee:	bf08      	it	eq
 8005cf0:	ea25 75e5 	biceq.w	r5, r5, r5, asr #31
 8005cf4:	4293      	cmp	r3, r2
 8005cf6:	bfc4      	itt	gt
 8005cf8:	1a9b      	subgt	r3, r3, r2
 8005cfa:	18ed      	addgt	r5, r5, r3
 8005cfc:	42b5      	cmp	r5, r6
 8005cfe:	d11a      	bne.n	8005d36 <_printf_common+0xd2>
 8005d00:	2000      	movs	r0, #0
 8005d02:	e008      	b.n	8005d16 <_printf_common+0xb2>
 8005d04:	2301      	movs	r3, #1
 8005d06:	4652      	mov	r2, sl
 8005d08:	4641      	mov	r1, r8
 8005d0a:	4638      	mov	r0, r7
 8005d0c:	47c8      	blx	r9
 8005d0e:	3001      	adds	r0, #1
 8005d10:	d103      	bne.n	8005d1a <_printf_common+0xb6>
 8005d12:	f04f 30ff 	mov.w	r0, #4294967295
 8005d16:	e8bd 87f0 	ldmia.w	sp!, {r4, r5, r6, r7, r8, r9, sl, pc}
 8005d1a:	3501      	adds	r5, #1
 8005d1c:	e7c1      	b.n	8005ca2 <_printf_common+0x3e>
 8005d1e:	2030      	movs	r0, #48	@ 0x30
 8005d20:	18e1      	adds	r1, r4, r3
 8005d22:	f881 0043 	strb.w	r0, [r1, #67]	@ 0x43
 8005d26:	1c5a      	adds	r2, r3, #1
 8005d28:	f894 1045 	ldrb.w	r1, [r4, #69]	@ 0x45
 8005d2c:	4422      	add	r2, r4
 8005d2e:	3302      	adds	r3, #2
 8005d30:	f882 1043 	strb.w	r1, [r2, #67]	@ 0x43
 8005d34:	e7c2      	b.n	8005cbc <_printf_common+0x58>
 8005d36:	2301      	movs	r3, #1
 8005d38:	4622      	mov	r2, r4
 8005d3a:	4641      	mov	r1, r8
 8005d3c:	4638      	mov	r0, r7
 8005d3e:	47c8      	blx	r9
 8005d40:	3001      	adds	r0, #1
 8005d42:	d0e6      	beq.n	8005d12 <_printf_common+0xae>
 8005d44:	3601      	adds	r6, #1
 8005d46:	e7d9      	b.n	8005cfc <_printf_common+0x98>

08005d48 <_printf_i>:
 8005d48:	e92d 47ff 	stmdb	sp!, {r0, r1, r2, r3, r4, r5, r6, r7, r8, r9, sl, lr}
 8005d4c:	7e0f      	ldrb	r7, [r1, #24]
 8005d4e:	4691      	mov	r9, r2
 8005d50:	2f78      	cmp	r7, #120	@ 0x78
 8005d52:	4680      	mov	r8, r0
 8005d54:	460c      	mov	r4, r1
 8005d56:	469a      	mov	sl, r3
 8005d58:	9e0c      	ldr	r6, [sp, #48]	@ 0x30
 8005d5a:	f101 0243 	add.w	r2, r1, #67	@ 0x43
 8005d5e:	d807      	bhi.n	8005d70 <_printf_i+0x28>
 8005d60:	2f62      	cmp	r7, #98	@ 0x62
 8005d62:	d80a      	bhi.n	8005d7a <_printf_i+0x32>
 8005d64:	2f00      	cmp	r7, #0
 8005d66:	f000 80d1 	beq.w	8005f0c <_printf_i+0x1c4>
 8005d6a:	2f58      	cmp	r7, #88	@ 0x58
 8005d6c:	f000 80b8 	beq.w	8005ee0 <_printf_i+0x198>
 8005d70:	f104 0642 	add.w	r6, r4, #66	@ 0x42
 8005d74:	f884 7042 	strb.w	r7, [r4, #66]	@ 0x42
 8005d78:	e03a      	b.n	8005df0 <_printf_i+0xa8>
 8005d7a:	f1a7 0363 	sub.w	r3, r7, #99	@ 0x63
 8005d7e:	2b15      	cmp	r3, #21
 8005d80:	d8f6      	bhi.n	8005d70 <_printf_i+0x28>
 8005d82:	a101      	add	r1, pc, #4	@ (adr r1, 8005d88 <_printf_i+0x40>)
 8005d84:	f851 f023 	ldr.w	pc, [r1, r3, lsl #2]
 8005d88:	08005de1 	.word	0x08005de1
 8005d8c:	08005df5 	.word	0x08005df5
 8005d90:	08005d71 	.word	0x08005d71
 8005d94:	08005d71 	.word	0x08005d71
 8005d98:	08005d71 	.word	0x08005d71
 8005d9c:	08005d71 	.word	0x08005d71
 8005da0:	08005df5 	.word	0x08005df5
 8005da4:	08005d71 	.word	0x08005d71
 8005da8:	08005d71 	.word	0x08005d71
 8005dac:	08005d71 	.word	0x08005d71
 8005db0:	08005d71 	.word	0x08005d71
 8005db4:	08005ef3 	.word	0x08005ef3
 8005db8:	08005e1f 	.word	0x08005e1f
 8005dbc:	08005ead 	.word	0x08005ead
 8005dc0:	08005d71 	.word	0x08005d71
 8005dc4:	08005d71 	.word	0x08005d71
 8005dc8:	08005f15 	.word	0x08005f15
 8005dcc:	08005d71 	.word	0x08005d71
 8005dd0:	08005e1f 	.word	0x08005e1f
 8005dd4:	08005d71 	.word	0x08005d71
 8005dd8:	08005d71 	.word	0x08005d71
 8005ddc:	08005eb5 	.word	0x08005eb5
 8005de0:	6833      	ldr	r3, [r6, #0]
 8005de2:	1d1a      	adds	r2, r3, #4
 8005de4:	681b      	ldr	r3, [r3, #0]
 8005de6:	6032      	str	r2, [r6, #0]
 8005de8:	f104 0642 	add.w	r6, r4, #66	@ 0x42
 8005dec:	f884 3042 	strb.w	r3, [r4, #66]	@ 0x42
 8005df0:	2301      	movs	r3, #1
 8005df2:	e09c      	b.n	8005f2e <_printf_i+0x1e6>
 8005df4:	6833      	ldr	r3, [r6, #0]
 8005df6:	6820      	ldr	r0, [r4, #0]
 8005df8:	1d19      	adds	r1, r3, #4
 8005dfa:	6031      	str	r1, [r6, #0]
 8005dfc:	0606      	lsls	r6, r0, #24
 8005dfe:	d501      	bpl.n	8005e04 <_printf_i+0xbc>
 8005e00:	681d      	ldr	r5, [r3, #0]
 8005e02:	e003      	b.n	8005e0c <_printf_i+0xc4>
 8005e04:	0645      	lsls	r5, r0, #25
 8005e06:	d5fb      	bpl.n	8005e00 <_printf_i+0xb8>
 8005e08:	f9b3 5000 	ldrsh.w	r5, [r3]
 8005e0c:	2d00      	cmp	r5, #0
 8005e0e:	da03      	bge.n	8005e18 <_printf_i+0xd0>
 8005e10:	232d      	movs	r3, #45	@ 0x2d
 8005e12:	426d      	negs	r5, r5
 8005e14:	f884 3043 	strb.w	r3, [r4, #67]	@ 0x43
 8005e18:	230a      	movs	r3, #10
 8005e1a:	4858      	ldr	r0, [pc, #352]	@ (8005f7c <_printf_i+0x234>)
 8005e1c:	e011      	b.n	8005e42 <_printf_i+0xfa>
 8005e1e:	6821      	ldr	r1, [r4, #0]
 8005e20:	6833      	ldr	r3, [r6, #0]
 8005e22:	0608      	lsls	r0, r1, #24
 8005e24:	f853 5b04 	ldr.w	r5, [r3], #4
 8005e28:	d402      	bmi.n	8005e30 <_printf_i+0xe8>
 8005e2a:	0649      	lsls	r1, r1, #25
 8005e2c:	bf48      	it	mi
 8005e2e:	b2ad      	uxthmi	r5, r5
 8005e30:	2f6f      	cmp	r7, #111	@ 0x6f
 8005e32:	6033      	str	r3, [r6, #0]
 8005e34:	bf14      	ite	ne
 8005e36:	230a      	movne	r3, #10
 8005e38:	2308      	moveq	r3, #8
 8005e3a:	4850      	ldr	r0, [pc, #320]	@ (8005f7c <_printf_i+0x234>)
 8005e3c:	2100      	movs	r1, #0
 8005e3e:	f884 1043 	strb.w	r1, [r4, #67]	@ 0x43
 8005e42:	6866      	ldr	r6, [r4, #4]
 8005e44:	2e00      	cmp	r6, #0
 8005e46:	60a6      	str	r6, [r4, #8]
 8005e48:	db05      	blt.n	8005e56 <_printf_i+0x10e>
 8005e4a:	6821      	ldr	r1, [r4, #0]
 8005e4c:	432e      	orrs	r6, r5
 8005e4e:	f021 0104 	bic.w	r1, r1, #4
 8005e52:	6021      	str	r1, [r4, #0]
 8005e54:	d04b      	beq.n	8005eee <_printf_i+0x1a6>
 8005e56:	4616      	mov	r6, r2
 8005e58:	fbb5 f1f3 	udiv	r1, r5, r3
 8005e5c:	fb03 5711 	mls	r7, r3, r1, r5
 8005e60:	5dc7      	ldrb	r7, [r0, r7]
 8005e62:	f806 7d01 	strb.w	r7, [r6, #-1]!
 8005e66:	462f      	mov	r7, r5
 8005e68:	42bb      	cmp	r3, r7
 8005e6a:	460d      	mov	r5, r1
 8005e6c:	d9f4      	bls.n	8005e58 <_printf_i+0x110>
 8005e6e:	2b08      	cmp	r3, #8
 8005e70:	d10b      	bne.n	8005e8a <_printf_i+0x142>
 8005e72:	6823      	ldr	r3, [r4, #0]
 8005e74:	07df      	lsls	r7, r3, #31
 8005e76:	d508      	bpl.n	8005e8a <_printf_i+0x142>
 8005e78:	6923      	ldr	r3, [r4, #16]
 8005e7a:	6861      	ldr	r1, [r4, #4]
 8005e7c:	4299      	cmp	r1, r3
 8005e7e:	bfde      	ittt	le
 8005e80:	2330      	movle	r3, #48	@ 0x30
 8005e82:	f806 3c01 	strble.w	r3, [r6, #-1]
 8005e86:	f106 36ff 	addle.w	r6, r6, #4294967295
 8005e8a:	1b92      	subs	r2, r2, r6
 8005e8c:	6122      	str	r2, [r4, #16]
 8005e8e:	464b      	mov	r3, r9
 8005e90:	4621      	mov	r1, r4
 8005e92:	4640      	mov	r0, r8
 8005e94:	f8cd a000 	str.w	sl, [sp]
 8005e98:	aa03      	add	r2, sp, #12
 8005e9a:	f7ff fee3 	bl	8005c64 <_printf_common>
 8005e9e:	3001      	adds	r0, #1
 8005ea0:	d14a      	bne.n	8005f38 <_printf_i+0x1f0>
 8005ea2:	f04f 30ff 	mov.w	r0, #4294967295
 8005ea6:	b004      	add	sp, #16
 8005ea8:	e8bd 87f0 	ldmia.w	sp!, {r4, r5, r6, r7, r8, r9, sl, pc}
 8005eac:	6823      	ldr	r3, [r4, #0]
 8005eae:	f043 0320 	orr.w	r3, r3, #32
 8005eb2:	6023      	str	r3, [r4, #0]
 8005eb4:	2778      	movs	r7, #120	@ 0x78
 8005eb6:	4832      	ldr	r0, [pc, #200]	@ (8005f80 <_printf_i+0x238>)
 8005eb8:	f884 7045 	strb.w	r7, [r4, #69]	@ 0x45
 8005ebc:	6823      	ldr	r3, [r4, #0]
 8005ebe:	6831      	ldr	r1, [r6, #0]
 8005ec0:	061f      	lsls	r7, r3, #24
 8005ec2:	f851 5b04 	ldr.w	r5, [r1], #4
 8005ec6:	d402      	bmi.n	8005ece <_printf_i+0x186>
 8005ec8:	065f      	lsls	r7, r3, #25
 8005eca:	bf48      	it	mi
 8005ecc:	b2ad      	uxthmi	r5, r5
 8005ece:	6031      	str	r1, [r6, #0]
 8005ed0:	07d9      	lsls	r1, r3, #31
 8005ed2:	bf44      	itt	mi
 8005ed4:	f043 0320 	orrmi.w	r3, r3, #32
 8005ed8:	6023      	strmi	r3, [r4, #0]
 8005eda:	b11d      	cbz	r5, 8005ee4 <_printf_i+0x19c>
 8005edc:	2310      	movs	r3, #16
 8005ede:	e7ad      	b.n	8005e3c <_printf_i+0xf4>
 8005ee0:	4826      	ldr	r0, [pc, #152]	@ (8005f7c <_printf_i+0x234>)
 8005ee2:	e7e9      	b.n	8005eb8 <_printf_i+0x170>
 8005ee4:	6823      	ldr	r3, [r4, #0]
 8005ee6:	f023 0320 	bic.w	r3, r3, #32
 8005eea:	6023      	str	r3, [r4, #0]
 8005eec:	e7f6      	b.n	8005edc <_printf_i+0x194>
 8005eee:	4616      	mov	r6, r2
 8005ef0:	e7bd      	b.n	8005e6e <_printf_i+0x126>
 8005ef2:	6833      	ldr	r3, [r6, #0]
 8005ef4:	6825      	ldr	r5, [r4, #0]
 8005ef6:	1d18      	adds	r0, r3, #4
 8005ef8:	6961      	ldr	r1, [r4, #20]
 8005efa:	6030      	str	r0, [r6, #0]
 8005efc:	062e      	lsls	r6, r5, #24
 8005efe:	681b      	ldr	r3, [r3, #0]
 8005f00:	d501      	bpl.n	8005f06 <_printf_i+0x1be>
 8005f02:	6019      	str	r1, [r3, #0]
 8005f04:	e002      	b.n	8005f0c <_printf_i+0x1c4>
 8005f06:	0668      	lsls	r0, r5, #25
 8005f08:	d5fb      	bpl.n	8005f02 <_printf_i+0x1ba>
 8005f0a:	8019      	strh	r1, [r3, #0]
 8005f0c:	2300      	movs	r3, #0
 8005f0e:	4616      	mov	r6, r2
 8005f10:	6123      	str	r3, [r4, #16]
 8005f12:	e7bc      	b.n	8005e8e <_printf_i+0x146>
 8005f14:	6833      	ldr	r3, [r6, #0]
 8005f16:	2100      	movs	r1, #0
 8005f18:	1d1a      	adds	r2, r3, #4
 8005f1a:	6032      	str	r2, [r6, #0]
 8005f1c:	681e      	ldr	r6, [r3, #0]
 8005f1e:	6862      	ldr	r2, [r4, #4]
 8005f20:	4630      	mov	r0, r6
 8005f22:	f000 f96b 	bl	80061fc <memchr>
 8005f26:	b108      	cbz	r0, 8005f2c <_printf_i+0x1e4>
 8005f28:	1b80      	subs	r0, r0, r6
 8005f2a:	6060      	str	r0, [r4, #4]
 8005f2c:	6863      	ldr	r3, [r4, #4]
 8005f2e:	6123      	str	r3, [r4, #16]
 8005f30:	2300      	movs	r3, #0
 8005f32:	f884 3043 	strb.w	r3, [r4, #67]	@ 0x43
 8005f36:	e7aa      	b.n	8005e8e <_printf_i+0x146>
 8005f38:	4632      	mov	r2, r6
 8005f3a:	4649      	mov	r1, r9
 8005f3c:	4640      	mov	r0, r8
 8005f3e:	6923      	ldr	r3, [r4, #16]
 8005f40:	47d0      	blx	sl
 8005f42:	3001      	adds	r0, #1
 8005f44:	d0ad      	beq.n	8005ea2 <_printf_i+0x15a>
 8005f46:	6823      	ldr	r3, [r4, #0]
 8005f48:	079b      	lsls	r3, r3, #30
 8005f4a:	d413      	bmi.n	8005f74 <_printf_i+0x22c>
 8005f4c:	68e0      	ldr	r0, [r4, #12]
 8005f4e:	9b03      	ldr	r3, [sp, #12]
 8005f50:	4298      	cmp	r0, r3
 8005f52:	bfb8      	it	lt
 8005f54:	4618      	movlt	r0, r3
 8005f56:	e7a6      	b.n	8005ea6 <_printf_i+0x15e>
 8005f58:	2301      	movs	r3, #1
 8005f5a:	4632      	mov	r2, r6
 8005f5c:	4649      	mov	r1, r9
 8005f5e:	4640      	mov	r0, r8
 8005f60:	47d0      	blx	sl
 8005f62:	3001      	adds	r0, #1
 8005f64:	d09d      	beq.n	8005ea2 <_printf_i+0x15a>
 8005f66:	3501      	adds	r5, #1
 8005f68:	68e3      	ldr	r3, [r4, #12]
 8005f6a:	9903      	ldr	r1, [sp, #12]
 8005f6c:	1a5b      	subs	r3, r3, r1
 8005f6e:	42ab      	cmp	r3, r5
 8005f70:	dcf2      	bgt.n	8005f58 <_printf_i+0x210>
 8005f72:	e7eb      	b.n	8005f4c <_printf_i+0x204>
 8005f74:	2500      	movs	r5, #0
 8005f76:	f104 0619 	add.w	r6, r4, #25
 8005f7a:	e7f5      	b.n	8005f68 <_printf_i+0x220>
 8005f7c:	0800812e 	.word	0x0800812e
 8005f80:	0800813f 	.word	0x0800813f

08005f84 <__sflush_r>:
 8005f84:	f9b1 200c 	ldrsh.w	r2, [r1, #12]
 8005f88:	b5f8      	push	{r3, r4, r5, r6, r7, lr}
 8005f8a:	0716      	lsls	r6, r2, #28
 8005f8c:	4605      	mov	r5, r0
 8005f8e:	460c      	mov	r4, r1
 8005f90:	d454      	bmi.n	800603c <__sflush_r+0xb8>
 8005f92:	684b      	ldr	r3, [r1, #4]
 8005f94:	2b00      	cmp	r3, #0
 8005f96:	dc02      	bgt.n	8005f9e <__sflush_r+0x1a>
 8005f98:	6c0b      	ldr	r3, [r1, #64]	@ 0x40
 8005f9a:	2b00      	cmp	r3, #0
 8005f9c:	dd48      	ble.n	8006030 <__sflush_r+0xac>
 8005f9e:	6ae6      	ldr	r6, [r4, #44]	@ 0x2c
 8005fa0:	2e00      	cmp	r6, #0
 8005fa2:	d045      	beq.n	8006030 <__sflush_r+0xac>
 8005fa4:	2300      	movs	r3, #0
 8005fa6:	f412 5280 	ands.w	r2, r2, #4096	@ 0x1000
 8005faa:	682f      	ldr	r7, [r5, #0]
 8005fac:	6a21      	ldr	r1, [r4, #32]
 8005fae:	602b      	str	r3, [r5, #0]
 8005fb0:	d030      	beq.n	8006014 <__sflush_r+0x90>
 8005fb2:	6d62      	ldr	r2, [r4, #84]	@ 0x54
 8005fb4:	89a3      	ldrh	r3, [r4, #12]
 8005fb6:	0759      	lsls	r1, r3, #29
 8005fb8:	d505      	bpl.n	8005fc6 <__sflush_r+0x42>
 8005fba:	6863      	ldr	r3, [r4, #4]
 8005fbc:	1ad2      	subs	r2, r2, r3
 8005fbe:	6b63      	ldr	r3, [r4, #52]	@ 0x34
 8005fc0:	b10b      	cbz	r3, 8005fc6 <__sflush_r+0x42>
 8005fc2:	6c23      	ldr	r3, [r4, #64]	@ 0x40
 8005fc4:	1ad2      	subs	r2, r2, r3
 8005fc6:	2300      	movs	r3, #0
 8005fc8:	4628      	mov	r0, r5
 8005fca:	6ae6      	ldr	r6, [r4, #44]	@ 0x2c
 8005fcc:	6a21      	ldr	r1, [r4, #32]
 8005fce:	47b0      	blx	r6
 8005fd0:	1c43      	adds	r3, r0, #1
 8005fd2:	89a3      	ldrh	r3, [r4, #12]
 8005fd4:	d106      	bne.n	8005fe4 <__sflush_r+0x60>
 8005fd6:	6829      	ldr	r1, [r5, #0]
 8005fd8:	291d      	cmp	r1, #29
 8005fda:	d82b      	bhi.n	8006034 <__sflush_r+0xb0>
 8005fdc:	4a28      	ldr	r2, [pc, #160]	@ (8006080 <__sflush_r+0xfc>)
 8005fde:	40ca      	lsrs	r2, r1
 8005fe0:	07d6      	lsls	r6, r2, #31
 8005fe2:	d527      	bpl.n	8006034 <__sflush_r+0xb0>
 8005fe4:	2200      	movs	r2, #0
 8005fe6:	6062      	str	r2, [r4, #4]
 8005fe8:	6922      	ldr	r2, [r4, #16]
 8005fea:	04d9      	lsls	r1, r3, #19
 8005fec:	6022      	str	r2, [r4, #0]
 8005fee:	d504      	bpl.n	8005ffa <__sflush_r+0x76>
 8005ff0:	1c42      	adds	r2, r0, #1
 8005ff2:	d101      	bne.n	8005ff8 <__sflush_r+0x74>
 8005ff4:	682b      	ldr	r3, [r5, #0]
 8005ff6:	b903      	cbnz	r3, 8005ffa <__sflush_r+0x76>
 8005ff8:	6560      	str	r0, [r4, #84]	@ 0x54
 8005ffa:	6b61      	ldr	r1, [r4, #52]	@ 0x34
 8005ffc:	602f      	str	r7, [r5, #0]
 8005ffe:	b1b9      	cbz	r1, 8006030 <__sflush_r+0xac>
 8006000:	f104 0344 	add.w	r3, r4, #68	@ 0x44
 8006004:	4299      	cmp	r1, r3
 8006006:	d002      	beq.n	800600e <__sflush_r+0x8a>
 8006008:	4628      	mov	r0, r5
 800600a:	f7ff fbf5 	bl	80057f8 <_free_r>
 800600e:	2300      	movs	r3, #0
 8006010:	6363      	str	r3, [r4, #52]	@ 0x34
 8006012:	e00d      	b.n	8006030 <__sflush_r+0xac>
 8006014:	2301      	movs	r3, #1
 8006016:	4628      	mov	r0, r5
 8006018:	47b0      	blx	r6
 800601a:	4602      	mov	r2, r0
 800601c:	1c50      	adds	r0, r2, #1
 800601e:	d1c9      	bne.n	8005fb4 <__sflush_r+0x30>
 8006020:	682b      	ldr	r3, [r5, #0]
 8006022:	2b00      	cmp	r3, #0
 8006024:	d0c6      	beq.n	8005fb4 <__sflush_r+0x30>
 8006026:	2b1d      	cmp	r3, #29
 8006028:	d001      	beq.n	800602e <__sflush_r+0xaa>
 800602a:	2b16      	cmp	r3, #22
 800602c:	d11d      	bne.n	800606a <__sflush_r+0xe6>
 800602e:	602f      	str	r7, [r5, #0]
 8006030:	2000      	movs	r0, #0
 8006032:	e021      	b.n	8006078 <__sflush_r+0xf4>
 8006034:	f043 0340 	orr.w	r3, r3, #64	@ 0x40
 8006038:	b21b      	sxth	r3, r3
 800603a:	e01a      	b.n	8006072 <__sflush_r+0xee>
 800603c:	690f      	ldr	r7, [r1, #16]
 800603e:	2f00      	cmp	r7, #0
 8006040:	d0f6      	beq.n	8006030 <__sflush_r+0xac>
 8006042:	0793      	lsls	r3, r2, #30
 8006044:	bf18      	it	ne
 8006046:	2300      	movne	r3, #0
 8006048:	680e      	ldr	r6, [r1, #0]
 800604a:	bf08      	it	eq
 800604c:	694b      	ldreq	r3, [r1, #20]
 800604e:	1bf6      	subs	r6, r6, r7
 8006050:	600f      	str	r7, [r1, #0]
 8006052:	608b      	str	r3, [r1, #8]
 8006054:	2e00      	cmp	r6, #0
 8006056:	ddeb      	ble.n	8006030 <__sflush_r+0xac>
 8006058:	4633      	mov	r3, r6
 800605a:	463a      	mov	r2, r7
 800605c:	4628      	mov	r0, r5
 800605e:	6a21      	ldr	r1, [r4, #32]
 8006060:	f8d4 c028 	ldr.w	ip, [r4, #40]	@ 0x28
 8006064:	47e0      	blx	ip
 8006066:	2800      	cmp	r0, #0
 8006068:	dc07      	bgt.n	800607a <__sflush_r+0xf6>
 800606a:	f9b4 300c 	ldrsh.w	r3, [r4, #12]
 800606e:	f043 0340 	orr.w	r3, r3, #64	@ 0x40
 8006072:	f04f 30ff 	mov.w	r0, #4294967295
 8006076:	81a3      	strh	r3, [r4, #12]
 8006078:	bdf8      	pop	{r3, r4, r5, r6, r7, pc}
 800607a:	4407      	add	r7, r0
 800607c:	1a36      	subs	r6, r6, r0
 800607e:	e7e9      	b.n	8006054 <__sflush_r+0xd0>
 8006080:	20400001 	.word	0x20400001

08006084 <_fflush_r>:
 8006084:	b538      	push	{r3, r4, r5, lr}
 8006086:	690b      	ldr	r3, [r1, #16]
 8006088:	4605      	mov	r5, r0
 800608a:	460c      	mov	r4, r1
 800608c:	b913      	cbnz	r3, 8006094 <_fflush_r+0x10>
 800608e:	2500      	movs	r5, #0
 8006090:	4628      	mov	r0, r5
 8006092:	bd38      	pop	{r3, r4, r5, pc}
 8006094:	b118      	cbz	r0, 800609e <_fflush_r+0x1a>
 8006096:	6a03      	ldr	r3, [r0, #32]
 8006098:	b90b      	cbnz	r3, 800609e <_fflush_r+0x1a>
 800609a:	f7ff f9b3 	bl	8005404 <__sinit>
 800609e:	f9b4 300c 	ldrsh.w	r3, [r4, #12]
 80060a2:	2b00      	cmp	r3, #0
 80060a4:	d0f3      	beq.n	800608e <_fflush_r+0xa>
 80060a6:	6e62      	ldr	r2, [r4, #100]	@ 0x64
 80060a8:	07d0      	lsls	r0, r2, #31
 80060aa:	d404      	bmi.n	80060b6 <_fflush_r+0x32>
 80060ac:	0599      	lsls	r1, r3, #22
 80060ae:	d402      	bmi.n	80060b6 <_fflush_r+0x32>
 80060b0:	6da0      	ldr	r0, [r4, #88]	@ 0x58
 80060b2:	f7ff fb9e 	bl	80057f2 <__retarget_lock_acquire_recursive>
 80060b6:	4628      	mov	r0, r5
 80060b8:	4621      	mov	r1, r4
 80060ba:	f7ff ff63 	bl	8005f84 <__sflush_r>
 80060be:	6e63      	ldr	r3, [r4, #100]	@ 0x64
 80060c0:	4605      	mov	r5, r0
 80060c2:	07da      	lsls	r2, r3, #31
 80060c4:	d4e4      	bmi.n	8006090 <_fflush_r+0xc>
 80060c6:	89a3      	ldrh	r3, [r4, #12]
 80060c8:	059b      	lsls	r3, r3, #22
 80060ca:	d4e1      	bmi.n	8006090 <_fflush_r+0xc>
 80060cc:	6da0      	ldr	r0, [r4, #88]	@ 0x58
 80060ce:	f7ff fb91 	bl	80057f4 <__retarget_lock_release_recursive>
 80060d2:	e7dd      	b.n	8006090 <_fflush_r+0xc>

080060d4 <__swhatbuf_r>:
 80060d4:	b570      	push	{r4, r5, r6, lr}
 80060d6:	460c      	mov	r4, r1
 80060d8:	f9b1 100e 	ldrsh.w	r1, [r1, #14]
 80060dc:	4615      	mov	r5, r2
 80060de:	2900      	cmp	r1, #0
 80060e0:	461e      	mov	r6, r3
 80060e2:	b096      	sub	sp, #88	@ 0x58
 80060e4:	da0c      	bge.n	8006100 <__swhatbuf_r+0x2c>
 80060e6:	89a3      	ldrh	r3, [r4, #12]
 80060e8:	2100      	movs	r1, #0
 80060ea:	f013 0f80 	tst.w	r3, #128	@ 0x80
 80060ee:	bf14      	ite	ne
 80060f0:	2340      	movne	r3, #64	@ 0x40
 80060f2:	f44f 6380 	moveq.w	r3, #1024	@ 0x400
 80060f6:	2000      	movs	r0, #0
 80060f8:	6031      	str	r1, [r6, #0]
 80060fa:	602b      	str	r3, [r5, #0]
 80060fc:	b016      	add	sp, #88	@ 0x58
 80060fe:	bd70      	pop	{r4, r5, r6, pc}
 8006100:	466a      	mov	r2, sp
 8006102:	f000 f849 	bl	8006198 <_fstat_r>
 8006106:	2800      	cmp	r0, #0
 8006108:	dbed      	blt.n	80060e6 <__swhatbuf_r+0x12>
 800610a:	9901      	ldr	r1, [sp, #4]
 800610c:	f401 4170 	and.w	r1, r1, #61440	@ 0xf000
 8006110:	f5a1 5300 	sub.w	r3, r1, #8192	@ 0x2000
 8006114:	4259      	negs	r1, r3
 8006116:	4159      	adcs	r1, r3
 8006118:	f44f 6380 	mov.w	r3, #1024	@ 0x400
 800611c:	e7eb      	b.n	80060f6 <__swhatbuf_r+0x22>

0800611e <__smakebuf_r>:
 800611e:	898b      	ldrh	r3, [r1, #12]
 8006120:	b5f7      	push	{r0, r1, r2, r4, r5, r6, r7, lr}
 8006122:	079d      	lsls	r5, r3, #30
 8006124:	4606      	mov	r6, r0
 8006126:	460c      	mov	r4, r1
 8006128:	d507      	bpl.n	800613a <__smakebuf_r+0x1c>
 800612a:	f104 0347 	add.w	r3, r4, #71	@ 0x47
 800612e:	6023      	str	r3, [r4, #0]
 8006130:	6123      	str	r3, [r4, #16]
 8006132:	2301      	movs	r3, #1
 8006134:	6163      	str	r3, [r4, #20]
 8006136:	b003      	add	sp, #12
 8006138:	bdf0      	pop	{r4, r5, r6, r7, pc}
 800613a:	466a      	mov	r2, sp
 800613c:	ab01      	add	r3, sp, #4
 800613e:	f7ff ffc9 	bl	80060d4 <__swhatbuf_r>
 8006142:	9f00      	ldr	r7, [sp, #0]
 8006144:	4605      	mov	r5, r0
 8006146:	4639      	mov	r1, r7
 8006148:	4630      	mov	r0, r6
 800614a:	f7ff fbbf 	bl	80058cc <_malloc_r>
 800614e:	b948      	cbnz	r0, 8006164 <__smakebuf_r+0x46>
 8006150:	f9b4 300c 	ldrsh.w	r3, [r4, #12]
 8006154:	059a      	lsls	r2, r3, #22
 8006156:	d4ee      	bmi.n	8006136 <__smakebuf_r+0x18>
 8006158:	f023 0303 	bic.w	r3, r3, #3
 800615c:	f043 0302 	orr.w	r3, r3, #2
 8006160:	81a3      	strh	r3, [r4, #12]
 8006162:	e7e2      	b.n	800612a <__smakebuf_r+0xc>
 8006164:	89a3      	ldrh	r3, [r4, #12]
 8006166:	e9c4 0704 	strd	r0, r7, [r4, #16]
 800616a:	f043 0380 	orr.w	r3, r3, #128	@ 0x80
 800616e:	81a3      	strh	r3, [r4, #12]
 8006170:	9b01      	ldr	r3, [sp, #4]
 8006172:	6020      	str	r0, [r4, #0]
 8006174:	b15b      	cbz	r3, 800618e <__smakebuf_r+0x70>
 8006176:	4630      	mov	r0, r6
 8006178:	f9b4 100e 	ldrsh.w	r1, [r4, #14]
 800617c:	f000 f81e 	bl	80061bc <_isatty_r>
 8006180:	b128      	cbz	r0, 800618e <__smakebuf_r+0x70>
 8006182:	89a3      	ldrh	r3, [r4, #12]
 8006184:	f023 0303 	bic.w	r3, r3, #3
 8006188:	f043 0301 	orr.w	r3, r3, #1
 800618c:	81a3      	strh	r3, [r4, #12]
 800618e:	89a3      	ldrh	r3, [r4, #12]
 8006190:	431d      	orrs	r5, r3
 8006192:	81a5      	strh	r5, [r4, #12]
 8006194:	e7cf      	b.n	8006136 <__smakebuf_r+0x18>
	...

08006198 <_fstat_r>:
 8006198:	b538      	push	{r3, r4, r5, lr}
 800619a:	2300      	movs	r3, #0
 800619c:	4d06      	ldr	r5, [pc, #24]	@ (80061b8 <_fstat_r+0x20>)
 800619e:	4604      	mov	r4, r0
 80061a0:	4608      	mov	r0, r1
 80061a2:	4611      	mov	r1, r2
 80061a4:	602b      	str	r3, [r5, #0]
 80061a6:	f7fa f990 	bl	80004ca <_fstat>
 80061aa:	1c43      	adds	r3, r0, #1
 80061ac:	d102      	bne.n	80061b4 <_fstat_r+0x1c>
 80061ae:	682b      	ldr	r3, [r5, #0]
 80061b0:	b103      	cbz	r3, 80061b4 <_fstat_r+0x1c>
 80061b2:	6023      	str	r3, [r4, #0]
 80061b4:	bd38      	pop	{r3, r4, r5, pc}
 80061b6:	bf00      	nop
 80061b8:	2000059c 	.word	0x2000059c

080061bc <_isatty_r>:
 80061bc:	b538      	push	{r3, r4, r5, lr}
 80061be:	2300      	movs	r3, #0
 80061c0:	4d05      	ldr	r5, [pc, #20]	@ (80061d8 <_isatty_r+0x1c>)
 80061c2:	4604      	mov	r4, r0
 80061c4:	4608      	mov	r0, r1
 80061c6:	602b      	str	r3, [r5, #0]
 80061c8:	f7fa f984 	bl	80004d4 <_isatty>
 80061cc:	1c43      	adds	r3, r0, #1
 80061ce:	d102      	bne.n	80061d6 <_isatty_r+0x1a>
 80061d0:	682b      	ldr	r3, [r5, #0]
 80061d2:	b103      	cbz	r3, 80061d6 <_isatty_r+0x1a>
 80061d4:	6023      	str	r3, [r4, #0]
 80061d6:	bd38      	pop	{r3, r4, r5, pc}
 80061d8:	2000059c 	.word	0x2000059c

080061dc <_sbrk_r>:
 80061dc:	b538      	push	{r3, r4, r5, lr}
 80061de:	2300      	movs	r3, #0
 80061e0:	4d05      	ldr	r5, [pc, #20]	@ (80061f8 <_sbrk_r+0x1c>)
 80061e2:	4604      	mov	r4, r0
 80061e4:	4608      	mov	r0, r1
 80061e6:	602b      	str	r3, [r5, #0]
 80061e8:	f7fa f978 	bl	80004dc <_sbrk>
 80061ec:	1c43      	adds	r3, r0, #1
 80061ee:	d102      	bne.n	80061f6 <_sbrk_r+0x1a>
 80061f0:	682b      	ldr	r3, [r5, #0]
 80061f2:	b103      	cbz	r3, 80061f6 <_sbrk_r+0x1a>
 80061f4:	6023      	str	r3, [r4, #0]
 80061f6:	bd38      	pop	{r3, r4, r5, pc}
 80061f8:	2000059c 	.word	0x2000059c

080061fc <memchr>:
 80061fc:	4603      	mov	r3, r0
 80061fe:	b510      	push	{r4, lr}
 8006200:	b2c9      	uxtb	r1, r1
 8006202:	4402      	add	r2, r0
 8006204:	4293      	cmp	r3, r2
 8006206:	4618      	mov	r0, r3
 8006208:	d101      	bne.n	800620e <memchr+0x12>
 800620a:	2000      	movs	r0, #0
 800620c:	e003      	b.n	8006216 <memchr+0x1a>
 800620e:	7804      	ldrb	r4, [r0, #0]
 8006210:	3301      	adds	r3, #1
 8006212:	428c      	cmp	r4, r1
 8006214:	d1f6      	bne.n	8006204 <memchr+0x8>
 8006216:	bd10      	pop	{r4, pc}

08006218 <_init>:
 8006218:	b5f8      	push	{r3, r4, r5, r6, r7, lr}
 800621a:	bf00      	nop
 800621c:	bcf8      	pop	{r3, r4, r5, r6, r7}
 800621e:	bc08      	pop	{r3}
 8006220:	469e      	mov	lr, r3
 8006222:	4770      	bx	lr

08006224 <_fini>:
 8006224:	b5f8      	push	{r3, r4, r5, r6, r7, lr}
 8006226:	bf00      	nop
 8006228:	bcf8      	pop	{r3, r4, r5, r6, r7}
 800622a:	bc08      	pop	{r3}
 800622c:	469e      	mov	lr, r3
 800622e:	4770      	bx	lr
